Archive member included because of file (symbol)

d:/infineon/tools/dave ide/4.5.0.202105191637/eclipse/arm-gcc-49/bin/../lib/gcc/arm-none-eabi/4.9.3/armv7e-m/softfp\libgcc.a(_aeabi_uldivmod.o)
                              ./Dave/Generated/TIMER/timer.o (__aeabi_uldivmod)
d:/infineon/tools/dave ide/4.5.0.202105191637/eclipse/arm-gcc-49/bin/../lib/gcc/arm-none-eabi/4.9.3/armv7e-m/softfp\libgcc.a(bpabi.o)
                              d:/infineon/tools/dave ide/4.5.0.202105191637/eclipse/arm-gcc-49/bin/../lib/gcc/arm-none-eabi/4.9.3/armv7e-m/softfp\libgcc.a(_aeabi_uldivmod.o) (__gnu_uldivmod_helper)
d:/infineon/tools/dave ide/4.5.0.202105191637/eclipse/arm-gcc-49/bin/../lib/gcc/arm-none-eabi/4.9.3/armv7e-m/softfp\libgcc.a(_dvmd_tls.o)
                              d:/infineon/tools/dave ide/4.5.0.202105191637/eclipse/arm-gcc-49/bin/../lib/gcc/arm-none-eabi/4.9.3/armv7e-m/softfp\libgcc.a(_aeabi_uldivmod.o) (__aeabi_ldiv0)
d:/infineon/tools/dave ide/4.5.0.202105191637/eclipse/arm-gcc-49/bin/../lib/gcc/arm-none-eabi/4.9.3/armv7e-m/softfp\libgcc.a(_divdi3.o)
                              d:/infineon/tools/dave ide/4.5.0.202105191637/eclipse/arm-gcc-49/bin/../lib/gcc/arm-none-eabi/4.9.3/armv7e-m/softfp\libgcc.a(bpabi.o) (__divdi3)
d:/infineon/tools/dave ide/4.5.0.202105191637/eclipse/arm-gcc-49/bin/../lib/gcc/arm-none-eabi/4.9.3/armv7e-m/softfp\libgcc.a(_udivdi3.o)
                              d:/infineon/tools/dave ide/4.5.0.202105191637/eclipse/arm-gcc-49/bin/../lib/gcc/arm-none-eabi/4.9.3/armv7e-m/softfp\libgcc.a(bpabi.o) (__udivdi3)
d:/infineon/tools/dave ide/4.5.0.202105191637/eclipse/arm-gcc-49/bin/../lib/gcc/arm-none-eabi/4.9.3/../../../../arm-none-eabi/lib/armv7e-m/softfp\libg_nano.a(lib_a-errno.o)
                              ./Libraries/Newlib/syscalls.o (__errno)
d:/infineon/tools/dave ide/4.5.0.202105191637/eclipse/arm-gcc-49/bin/../lib/gcc/arm-none-eabi/4.9.3/../../../../arm-none-eabi/lib/armv7e-m/softfp\libg_nano.a(lib_a-impure.o)
                              d:/infineon/tools/dave ide/4.5.0.202105191637/eclipse/arm-gcc-49/bin/../lib/gcc/arm-none-eabi/4.9.3/../../../../arm-none-eabi/lib/armv7e-m/softfp\libg_nano.a(lib_a-errno.o) (_impure_ptr)
d:/infineon/tools/dave ide/4.5.0.202105191637/eclipse/arm-gcc-49/bin/../lib/gcc/arm-none-eabi/4.9.3/../../../../arm-none-eabi/lib/armv7e-m/softfp\libg_nano.a(lib_a-init.o)
                              ./Startup/startup_XMC4300.o (__libc_init_array)
d:/infineon/tools/dave ide/4.5.0.202105191637/eclipse/arm-gcc-49/bin/../lib/gcc/arm-none-eabi/4.9.3/../../../../arm-none-eabi/lib/armv7e-m/softfp\libg_nano.a(lib_a-malloc.o)
                              ./SSC/Src/ecatcoe.o (malloc)
d:/infineon/tools/dave ide/4.5.0.202105191637/eclipse/arm-gcc-49/bin/../lib/gcc/arm-none-eabi/4.9.3/../../../../arm-none-eabi/lib/armv7e-m/softfp\libg_nano.a(lib_a-memcmp.o)
                              ./Dave/Generated/E_EEPROM_XMC4/e_eeprom_xmc4.o (memcmp)
d:/infineon/tools/dave ide/4.5.0.202105191637/eclipse/arm-gcc-49/bin/../lib/gcc/arm-none-eabi/4.9.3/../../../../arm-none-eabi/lib/armv7e-m/softfp\libg_nano.a(lib_a-memcpy.o)
                              ./SSC/Src/coeappl.o (memcpy)
d:/infineon/tools/dave ide/4.5.0.202105191637/eclipse/arm-gcc-49/bin/../lib/gcc/arm-none-eabi/4.9.3/../../../../arm-none-eabi/lib/armv7e-m/softfp\libg_nano.a(lib_a-memset.o)
                              ./SSC/Src/mailbox.o (memset)
d:/infineon/tools/dave ide/4.5.0.202105191637/eclipse/arm-gcc-49/bin/../lib/gcc/arm-none-eabi/4.9.3/../../../../arm-none-eabi/lib/armv7e-m/softfp\libg_nano.a(lib_a-nano-freer.o)
                              d:/infineon/tools/dave ide/4.5.0.202105191637/eclipse/arm-gcc-49/bin/../lib/gcc/arm-none-eabi/4.9.3/../../../../arm-none-eabi/lib/armv7e-m/softfp\libg_nano.a(lib_a-malloc.o) (_free_r)
d:/infineon/tools/dave ide/4.5.0.202105191637/eclipse/arm-gcc-49/bin/../lib/gcc/arm-none-eabi/4.9.3/../../../../arm-none-eabi/lib/armv7e-m/softfp\libg_nano.a(lib_a-nano-mallocr.o)
                              d:/infineon/tools/dave ide/4.5.0.202105191637/eclipse/arm-gcc-49/bin/../lib/gcc/arm-none-eabi/4.9.3/../../../../arm-none-eabi/lib/armv7e-m/softfp\libg_nano.a(lib_a-malloc.o) (_malloc_r)
d:/infineon/tools/dave ide/4.5.0.202105191637/eclipse/arm-gcc-49/bin/../lib/gcc/arm-none-eabi/4.9.3/../../../../arm-none-eabi/lib/armv7e-m/softfp\libg_nano.a(lib_a-sbrkr.o)
                              d:/infineon/tools/dave ide/4.5.0.202105191637/eclipse/arm-gcc-49/bin/../lib/gcc/arm-none-eabi/4.9.3/../../../../arm-none-eabi/lib/armv7e-m/softfp\libg_nano.a(lib_a-nano-mallocr.o) (_sbrk_r)
d:/infineon/tools/dave ide/4.5.0.202105191637/eclipse/arm-gcc-49/bin/../lib/gcc/arm-none-eabi/4.9.3/../../../../arm-none-eabi/lib/armv7e-m/softfp\libg_nano.a(lib_a-strlen.o)
                              ./SSC/Src/objdef.o (strlen)
d:/infineon/tools/dave ide/4.5.0.202105191637/eclipse/arm-gcc-49/bin/../lib/gcc/arm-none-eabi/4.9.3/../../../../arm-none-eabi/lib/armv7e-m/softfp\libg_nano.a(lib_a-reent.o)
                              d:/infineon/tools/dave ide/4.5.0.202105191637/eclipse/arm-gcc-49/bin/../lib/gcc/arm-none-eabi/4.9.3/../../../../arm-none-eabi/lib/armv7e-m/softfp\libg_nano.a(lib_a-sbrkr.o) (errno)

Allocating common symbols
Common symbol       size              file

b3BufferMode        0x1               ./SSC/Src/ecatslv.o
nEcatStateTrans     0x2               ./SSC/Src/ecatslv.o
bApplEsmPending     0x1               ./SSC/Src/ecatslv.o
pCoeSendStored      0x4               ./SSC/Src/ecatcoe.o
pAPPL_EEPROM_Store  0x4               ./SSC/Src/ecatappl.o
nSdoInfoIndex       0x2               ./SSC/Src/sdoserv.o
pStoreData          0x4               ./SSC/Src/sdoserv.o
pAPPL_CoeReadInd    0x4               ./SSC/Src/ecatappl.o
u8MbxReadCounter    0x1               ./SSC/Src/mailbox.o
nAlStatus           0x1               ./SSC/Src/ecatslv.o
nPdOutputSize       0x2               ./SSC/Src/ecatslv.o
u16LocalErrorCode   0x2               ./SSC/Src/ecatslv.o
nSdoSegBytesToHandle
                    0x4               ./SSC/Src/sdoserv.o
errno               0x4               d:/infineon/tools/dave ide/4.5.0.202105191637/eclipse/arm-gcc-49/bin/../lib/gcc/arm-none-eabi/4.9.3/../../../../arm-none-eabi/lib/armv7e-m/softfp\libg_nano.a(lib_a-reent.o)
u8LocalErrorState   0x1               ./SSC/Src/ecatslv.o
sMbxSendQueue       0x34              ./SSC/Src/mailbox.o
sMbxReceiveQueue    0x34              ./SSC/Src/mailbox.o
bNoMbxMemoryAvailable
                    0x1               ./SSC/Src/mailbox.o
Sync0WdCounter      0x2               ./SSC/Src/ecatslv.o
bMinCycleTimeMeasurementStarted
                    0x1               ./SSC/Src/ecatappl.o
bSendMbxIsFull      0x1               ./SSC/Src/mailbox.o
u32CycleTimeStartValue
                    0x4               ./SSC/Src/ecatappl.o
LatchInputSync0Counter
                    0x2               ./SSC/Src/ecatslv.o
i16WaitForPllRunningCnt
                    0x2               ./SSC/Src/ecatslv.o
nEscAddrOutputData  0x2               ./SSC/Src/ecatslv.o
bMbxRunning         0x1               ./SSC/Src/mailbox.o
Sync0WdValue        0x2               ./SSC/Src/ecatslv.o
u8EcatRunLed        0x1               ./SSC/Src/ecatslv.o
i16WaitForPllRunningTimeout
                    0x2               ./SSC/Src/ecatslv.o
bSdoSegAccess       0x1               ./SSC/Src/sdoserv.o
pAPPL_EEPROM_Read   0x4               ./SSC/Src/ecatappl.o
Sync1WdValue        0x2               ./SSC/Src/ecatslv.o
pAPPL_EEPROM_Write  0x4               ./SSC/Src/ecatappl.o
bSdoSegFollows      0x1               ./SSC/Src/sdoserv.o
nSdoSegCompleteSize
                    0x4               ./SSC/Src/sdoserv.o
u8dummy             0x1               ./SSC/Src/ecatslv.o
u16ALEventMask      0x2               ./SSC/Src/ecatslv.o
pSdoPendFunc        0x4               ./SSC/Src/sdoserv.o
bDcRunning          0x1               ./SSC/Src/ecatslv.o
bRunApplication     0x1               ./SSC/Src/ecatappl.o
u16EscAddrReceiveMbx
                    0x2               ./SSC/Src/mailbox.o
psStoreMbx          0x4               ./SSC/Src/mailbox.o
SyncManInfo         0x8               ./SSC/Src/ecatslv.o
b32BitDc            0x1               ./SSC/Src/ecatslv.o
u32SystemTimeReadFailure
                    0x4               ./SSC/Src/ecatappl.o
u8PendingSdo        0x1               ./SSC/Src/sdoserv.o
LatchInputSync0Value
                    0x2               ./SSC/Src/ecatslv.o
u16SendMbxSize      0x2               ./SSC/Src/mailbox.o
bEcatWaitForAlControlRes
                    0x1               ./SSC/Src/ecatslv.o
psReadMbx           0x4               ./SSC/Src/mailbox.o
bEcatWaitForInputUpdate
                    0x1               ./SSC/Src/ecatappl.o
sSyncManInPar       0x44              ./SSC/Src/objdef.o
nPdInputSize        0x2               ./SSC/Src/ecatslv.o
u32MinCycleTimeValue
                    0x4               ./SSC/Src/ecatappl.o
u16SmSync0Value     0x2               ./SSC/Src/ecatslv.o
bStoreCompleteAccess
                    0x1               ./SSC/Src/sdoserv.o
aPdOutputData       0x9c              ./SSC/Src/ecatappl.o
bSdoSegLastToggle   0x1               ./SSC/Src/sdoserv.o
nSdoSegService      0x1               ./SSC/Src/sdoserv.o
bReceiveMbxIsLocked
                    0x1               ./SSC/Src/mailbox.o
u16EscAddrSendMbx   0x2               ./SSC/Src/mailbox.o
u16EepromStoreTimeoutCounter
                    0x2               ./SSC/Src/ecatappl.o
nMaxEscAddress      0x2               ./SSC/Src/ecatslv.o
bEcatFirstOutputsReceived
                    0x1               ./SSC/Src/ecatslv.o
psWriteMbx          0x4               ./SSC/Src/mailbox.o
u8MbxWriteCounter   0x1               ./SSC/Src/mailbox.o
u32LastDc32Value    0x4               ./SSC/Src/coeappl.o
u32CheckForDcOverrunCnt
                    0x4               ./SSC/Src/coeappl.o
u8MailboxSendReqStored
                    0x1               ./SSC/Src/mailbox.o
EepromReadSize      0x2               ./SSC/Src/ecatappl.o
pAPPL_CoeWriteInd   0x4               ./SSC/Src/ecatappl.o
pSdoInfoObjEntry    0x4               ./SSC/Src/sdoserv.o
bSmSyncSequenceValid
                    0x1               ./SSC/Src/ecatslv.o
nSdoInfoFragmentsLeft
                    0x2               ./SSC/Src/sdoserv.o
EsmTimeoutCounter   0x2               ./SSC/Src/ecatslv.o
u16ReceiveMbxSize   0x2               ./SSC/Src/mailbox.o
pSdoResStored       0x4               ./SSC/Src/sdoserv.o
u32StoreDataSize    0x4               ./SSC/Src/sdoserv.o
pSdoSegData         0x4               ./SSC/Src/sdoserv.o
bDcSyncActive       0x1               ./SSC/Src/ecatslv.o
bEcatOutputUpdateRunning
                    0x1               ./SSC/Src/ecatslv.o
pAPPL_MainLoop      0x4               ./SSC/Src/ecatappl.o
sSyncManOutPar      0x44              ./SSC/Src/objdef.o
Sync1WdCounter      0x2               ./SSC/Src/ecatslv.o
EcatWdValue         0x2               ./SSC/Src/ecatslv.o
bEtherCATErrorLed   0x1               ./SSC/Src/ecatappl.o
u32MinCycleTimeStartValue
                    0x4               ./SSC/Src/ecatappl.o
bSyncSetByUser      0x1               ./SSC/Src/objdef.o
bMbxRepeatToggle    0x1               ./SSC/Src/mailbox.o
bEcatInputUpdateRunning
                    0x1               ./SSC/Src/ecatslv.o
bEscIntEnabled      0x1               ./SSC/Src/ecatslv.o
psRepeatMbx         0x4               ./SSC/Src/mailbox.o
nSdoSegIndex        0x2               ./SSC/Src/sdoserv.o
aSdoInfoHeader      0x10              ./SSC/Src/sdoserv.o
pSdoSegObjEntry     0x4               ./SSC/Src/sdoserv.o
aPdInputData        0x9c              ./SSC/Src/ecatappl.o
bWdTrigger          0x1               ./SSC/Src/ecatslv.o
nSdoSegSubindex     0x1               ./SSC/Src/sdoserv.o
pEEPROM             0x4               ./SSC/Src/ecatappl.o
u16StoreIndex       0x2               ./SSC/Src/sdoserv.o
bEtherCATRunLed     0x1               ./SSC/Src/ecatappl.o
xmc_device          0x208             ./Libraries/XMCLib/src/xmc_usbd.o
u16SmSync0Counter   0x2               ./SSC/Src/ecatslv.o
nMaxSyncMan         0x1               ./SSC/Src/ecatslv.o
pAPPL_EEPROM_Reload
                    0x4               ./SSC/Src/ecatappl.o
u8StoreSubindex     0x1               ./SSC/Src/sdoserv.o
u16EepromStoreTimeoutValue
                    0x2               ./SSC/Src/ecatappl.o
sCycleDiag          0x2               ./SSC/Src/objdef.o
master_rec_data     0x4               ./main.o
u8EcatErrorLed      0x1               ./SSC/Src/ecatslv.o
nEscAddrInputData   0x2               ./SSC/Src/ecatslv.o

Discarded input sections

 .text          0x00000000        0x0 ./Startup/startup_XMC4300.o
 .data          0x00000000        0x0 ./Startup/startup_XMC4300.o
 .bss           0x00000000        0x0 ./Startup/startup_XMC4300.o
 .text          0x00000000        0x0 ./Startup/system_XMC4300.o
 .data          0x00000000        0x0 ./Startup/system_XMC4300.o
 .bss           0x00000000        0x0 ./Startup/system_XMC4300.o
 .text.delay    0x00000000       0x28 ./Startup/system_XMC4300.o
 .text.SystemCoreSetup
                0x00000000       0x70 ./Startup/system_XMC4300.o
 .text.SystemCoreClockSetup
                0x00000000      0x378 ./Startup/system_XMC4300.o
 .text.OSCHP_GetFrequency
                0x00000000       0x14 ./Startup/system_XMC4300.o
 .comment       0x00000000       0x71 ./Startup/system_XMC4300.o
 .text          0x00000000        0x0 ./SSC/Src/coeappl.o
 .data          0x00000000        0x0 ./SSC/Src/coeappl.o
 .bss           0x00000000        0x0 ./SSC/Src/coeappl.o
 .comment       0x00000000       0x71 ./SSC/Src/coeappl.o
 .text          0x00000000        0x0 ./SSC/Src/ecatappl.o
 .data          0x00000000        0x0 ./SSC/Src/ecatappl.o
 .bss           0x00000000        0x0 ./SSC/Src/ecatappl.o
 .comment       0x00000000       0x71 ./SSC/Src/ecatappl.o
 .text          0x00000000        0x0 ./SSC/Src/ecatcoe.o
 .data          0x00000000        0x0 ./SSC/Src/ecatcoe.o
 .bss           0x00000000        0x0 ./SSC/Src/ecatcoe.o
 .comment       0x00000000       0x71 ./SSC/Src/ecatcoe.o
 .text          0x00000000        0x0 ./SSC/Src/ecatslv.o
 .data          0x00000000        0x0 ./SSC/Src/ecatslv.o
 .bss           0x00000000        0x0 ./SSC/Src/ecatslv.o
 .text.ECAT_StateChange
                0x00000000      0x230 ./SSC/Src/ecatslv.o
 .comment       0x00000000       0x71 ./SSC/Src/ecatslv.o
 .text          0x00000000        0x0 ./SSC/Src/mailbox.o
 .data          0x00000000        0x0 ./SSC/Src/mailbox.o
 .bss           0x00000000        0x0 ./SSC/Src/mailbox.o
 .comment       0x00000000       0x71 ./SSC/Src/mailbox.o
 .text          0x00000000        0x0 ./SSC/Src/objdef.o
 .data          0x00000000        0x0 ./SSC/Src/objdef.o
 .bss           0x00000000        0x0 ./SSC/Src/objdef.o
 .comment       0x00000000       0x71 ./SSC/Src/objdef.o
 .text          0x00000000        0x0 ./SSC/Src/ryhand.o
 .data          0x00000000        0x0 ./SSC/Src/ryhand.o
 .bss           0x00000000        0x0 ./SSC/Src/ryhand.o
 .comment       0x00000000       0x71 ./SSC/Src/ryhand.o
 .text          0x00000000        0x0 ./SSC/Src/sdoserv.o
 .data          0x00000000        0x0 ./SSC/Src/sdoserv.o
 .bss           0x00000000        0x0 ./SSC/Src/sdoserv.o
 .comment       0x00000000       0x71 ./SSC/Src/sdoserv.o
 .text          0x00000000        0x0 ./Libraries/XMCLib/src/xmc4_eru.o
 .data          0x00000000        0x0 ./Libraries/XMCLib/src/xmc4_eru.o
 .bss           0x00000000        0x0 ./Libraries/XMCLib/src/xmc4_eru.o
 .text.XMC_ERU_Disable
                0x00000000       0x2c ./Libraries/XMCLib/src/xmc4_eru.o
 .comment       0x00000000       0x71 ./Libraries/XMCLib/src/xmc4_eru.o
 .text          0x00000000        0x0 ./Libraries/XMCLib/src/xmc4_flash.o
 .data          0x00000000        0x0 ./Libraries/XMCLib/src/xmc4_flash.o
 .bss           0x00000000        0x0 ./Libraries/XMCLib/src/xmc4_flash.o
 .text.XMC_FLASH_lWriteUCBPageCommand
                0x00000000       0x44 ./Libraries/XMCLib/src/xmc4_flash.o
 .text.XMC_FLASH_lDisableSectorWriteProtectionCommand
                0x00000000       0x64 ./Libraries/XMCLib/src/xmc4_flash.o
 .text.XMC_FLASH_lDisableReadProtectionCommand
                0x00000000       0x60 ./Libraries/XMCLib/src/xmc4_flash.o
 .text.XMC_FLASH_EnableEvent
                0x00000000       0x30 ./Libraries/XMCLib/src/xmc4_flash.o
 .text.XMC_FLASH_DisableEvent
                0x00000000       0x30 ./Libraries/XMCLib/src/xmc4_flash.o
 .text.XMC_FLASH_lErasePhysicalSectorCommand
                0x00000000       0x58 ./Libraries/XMCLib/src/xmc4_flash.o
 .text.XMC_FLASH_lRepairPhysicalSectorCommand
                0x00000000       0x58 ./Libraries/XMCLib/src/xmc4_flash.o
 .text.XMC_FLASH_ErasePhysicalSector
                0x00000000       0x30 ./Libraries/XMCLib/src/xmc4_flash.o
 .text.XMC_FLASH_RepairPhysicalSector
                0x00000000       0x10 ./Libraries/XMCLib/src/xmc4_flash.o
 .text.XMC_FLASH_EraseUCB
                0x00000000       0x70 ./Libraries/XMCLib/src/xmc4_flash.o
 .text.XMC_FLASH_Reset
                0x00000000       0x20 ./Libraries/XMCLib/src/xmc4_flash.o
 .text.XMC_FLASH_InstallBMI
                0x00000000       0xd8 ./Libraries/XMCLib/src/xmc4_flash.o
 .text.XMC_FLASH_InstallProtection
                0x00000000       0x7c ./Libraries/XMCLib/src/xmc4_flash.o
 .text.XMC_FLASH_ConfirmProtection
                0x00000000       0x6c ./Libraries/XMCLib/src/xmc4_flash.o
 .text.XMC_FLASH_VerifyReadProtection
                0x00000000       0x48 ./Libraries/XMCLib/src/xmc4_flash.o
 .text.XMC_FLASH_VerifyWriteProtection
                0x00000000       0x84 ./Libraries/XMCLib/src/xmc4_flash.o
 .text.XMC_FLASH_ResumeProtection
                0x00000000       0x20 ./Libraries/XMCLib/src/xmc4_flash.o
 .comment       0x00000000       0x71 ./Libraries/XMCLib/src/xmc4_flash.o
 .text          0x00000000        0x0 ./Libraries/XMCLib/src/xmc4_gpio.o
 .data          0x00000000        0x0 ./Libraries/XMCLib/src/xmc4_gpio.o
 .bss           0x00000000        0x0 ./Libraries/XMCLib/src/xmc4_gpio.o
 .text.XMC_GPIO_SetOutputStrength
                0x00000000       0x84 ./Libraries/XMCLib/src/xmc4_gpio.o
 .comment       0x00000000       0x71 ./Libraries/XMCLib/src/xmc4_gpio.o
 .text          0x00000000        0x0 ./Libraries/XMCLib/src/xmc4_rtc.o
 .data          0x00000000        0x0 ./Libraries/XMCLib/src/xmc4_rtc.o
 .bss           0x00000000        0x0 ./Libraries/XMCLib/src/xmc4_rtc.o
 .text.XMC_RTC_IsRunning
                0x00000000       0x24 ./Libraries/XMCLib/src/xmc4_rtc.o
 .text.XMC_SCU_GetMirrorStatus
                0x00000000       0x18 ./Libraries/XMCLib/src/xmc4_rtc.o
 .text.XMC_RTC_Enable
                0x00000000        0xc ./Libraries/XMCLib/src/xmc4_rtc.o
 .text.XMC_RTC_Disable
                0x00000000        0xc ./Libraries/XMCLib/src/xmc4_rtc.o
 .text.XMC_RTC_IsEnabled
                0x00000000       0x10 ./Libraries/XMCLib/src/xmc4_rtc.o
 .text.XMC_RTC_Init
                0x00000000       0xa4 ./Libraries/XMCLib/src/xmc4_rtc.o
 .text.XMC_RTC_EnableEvent
                0x00000000       0x30 ./Libraries/XMCLib/src/xmc4_rtc.o
 .text.XMC_RTC_DisableEvent
                0x00000000       0x30 ./Libraries/XMCLib/src/xmc4_rtc.o
 .text.XMC_RTC_ClearEvent
                0x00000000       0x28 ./Libraries/XMCLib/src/xmc4_rtc.o
 .text.XMC_RTC_EnableHibernationWakeUp
                0x00000000       0x30 ./Libraries/XMCLib/src/xmc4_rtc.o
 .text.XMC_RTC_DisableHibernationWakeUp
                0x00000000       0x30 ./Libraries/XMCLib/src/xmc4_rtc.o
 .debug_info    0x00000000      0x7b6 ./Libraries/XMCLib/src/xmc4_rtc.o
 .debug_abbrev  0x00000000      0x20e ./Libraries/XMCLib/src/xmc4_rtc.o
 .debug_loc     0x00000000      0x304 ./Libraries/XMCLib/src/xmc4_rtc.o
 .debug_aranges
                0x00000000       0x70 ./Libraries/XMCLib/src/xmc4_rtc.o
 .debug_ranges  0x00000000       0x60 ./Libraries/XMCLib/src/xmc4_rtc.o
 .debug_line    0x00000000      0x3d2 ./Libraries/XMCLib/src/xmc4_rtc.o
 .debug_str     0x00000000      0x58b ./Libraries/XMCLib/src/xmc4_rtc.o
 .comment       0x00000000       0x71 ./Libraries/XMCLib/src/xmc4_rtc.o
 .debug_frame   0x00000000      0x1a4 ./Libraries/XMCLib/src/xmc4_rtc.o
 .ARM.attributes
                0x00000000       0x37 ./Libraries/XMCLib/src/xmc4_rtc.o
 .text          0x00000000        0x0 ./Libraries/XMCLib/src/xmc4_scu.o
 .data          0x00000000        0x0 ./Libraries/XMCLib/src/xmc4_scu.o
 .bss           0x00000000        0x0 ./Libraries/XMCLib/src/xmc4_scu.o
 .text.XMC_SCU_CLOCK_GetUsbClockSource
                0x00000000       0x1c ./Libraries/XMCLib/src/xmc4_scu.o
 .text.XMC_SCU_CLOCK_GetWdtClockSource
                0x00000000       0x1c ./Libraries/XMCLib/src/xmc4_scu.o
 .text.XMC_SCU_CLOCK_GetExternalOutputClockSource
                0x00000000       0x20 ./Libraries/XMCLib/src/xmc4_scu.o
 .text.XMC_SCU_CLOCK_GetECATClockDivider
                0x00000000       0x1c ./Libraries/XMCLib/src/xmc4_scu.o
 .text.XMC_SCU_CLOCK_GetSystemClockFrequency
                0x00000000       0x28 ./Libraries/XMCLib/src/xmc4_scu.o
 .bss.event_handler_list
                0x00000000       0x80 ./Libraries/XMCLib/src/xmc4_scu.o
 .text.XMC_SCU_INTERRUPT_EnableEvent
                0x00000000       0x24 ./Libraries/XMCLib/src/xmc4_scu.o
 .text.XMC_SCU_INTERRUPT_DisableEvent
                0x00000000       0x24 ./Libraries/XMCLib/src/xmc4_scu.o
 .text.XMC_SCU_INTERRUPT_TriggerEvent
                0x00000000       0x24 ./Libraries/XMCLib/src/xmc4_scu.o
 .text.XMC_SCU_GetBootMode
                0x00000000       0x1c ./Libraries/XMCLib/src/xmc4_scu.o
 .text.XMC_SCU_SetBootMode
                0x00000000       0x20 ./Libraries/XMCLib/src/xmc4_scu.o
 .text.XMC_SCU_ReadGPR
                0x00000000       0x24 ./Libraries/XMCLib/src/xmc4_scu.o
 .text.XMC_SCU_WriteGPR
                0x00000000       0x28 ./Libraries/XMCLib/src/xmc4_scu.o
 .text.XMC_SCU_EnableOutOfRangeComparator
                0x00000000       0x38 ./Libraries/XMCLib/src/xmc4_scu.o
 .text.XMC_SCU_DisableOutOfRangeComparator
                0x00000000       0x38 ./Libraries/XMCLib/src/xmc4_scu.o
 .text.XMC_SCU_CalibrateTemperatureSensor
                0x00000000       0x2c ./Libraries/XMCLib/src/xmc4_scu.o
 .text.XMC_SCU_EnableTemperatureSensor
                0x00000000       0x20 ./Libraries/XMCLib/src/xmc4_scu.o
 .text.XMC_SCU_DisableTemperatureSensor
                0x00000000       0x20 ./Libraries/XMCLib/src/xmc4_scu.o
 .text.XMC_SCU_IsTemperatureSensorEnabled
                0x00000000       0x28 ./Libraries/XMCLib/src/xmc4_scu.o
 .text.XMC_SCU_IsTemperatureSensorReady
                0x00000000       0x28 ./Libraries/XMCLib/src/xmc4_scu.o
 .text.XMC_SCU_StartTemperatureMeasurement
                0x00000000       0x4c ./Libraries/XMCLib/src/xmc4_scu.o
 .text.XMC_SCU_GetTemperatureMeasurement
                0x00000000       0x38 ./Libraries/XMCLib/src/xmc4_scu.o
 .text.XMC_SCU_IsTemperatureSensorBusy
                0x00000000       0x28 ./Libraries/XMCLib/src/xmc4_scu.o
 .text.XMC_SCU_WriteToRetentionMemory
                0x00000000       0x4c ./Libraries/XMCLib/src/xmc4_scu.o
 .text.XMC_SCU_ReadFromRetentionMemory
                0x00000000       0x48 ./Libraries/XMCLib/src/xmc4_scu.o
 .text.XMC_SCU_TRAP_Enable
                0x00000000       0x24 ./Libraries/XMCLib/src/xmc4_scu.o
 .text.XMC_SCU_TRAP_Disable
                0x00000000       0x24 ./Libraries/XMCLib/src/xmc4_scu.o
 .text.XMC_SCU_TRAP_GetStatus
                0x00000000       0x18 ./Libraries/XMCLib/src/xmc4_scu.o
 .text.XMC_SCU_TRAP_Trigger
                0x00000000       0x1c ./Libraries/XMCLib/src/xmc4_scu.o
 .text.XMC_SCU_TRAP_ClearStatus
                0x00000000       0x1c ./Libraries/XMCLib/src/xmc4_scu.o
 .text.XMC_SCU_PARITY_ClearStatus
                0x00000000       0x24 ./Libraries/XMCLib/src/xmc4_scu.o
 .text.XMC_SCU_PARITY_GetStatus
                0x00000000       0x18 ./Libraries/XMCLib/src/xmc4_scu.o
 .text.XMC_SCU_PARITY_Enable
                0x00000000       0x24 ./Libraries/XMCLib/src/xmc4_scu.o
 .text.XMC_SCU_PARITY_Disable
                0x00000000       0x24 ./Libraries/XMCLib/src/xmc4_scu.o
 .text.XMC_SCU_PARITY_EnableTrapGeneration
                0x00000000       0x24 ./Libraries/XMCLib/src/xmc4_scu.o
 .text.XMC_SCU_PARITY_DisableTrapGeneration
                0x00000000       0x24 ./Libraries/XMCLib/src/xmc4_scu.o
 .text.XMC_SCU_INTERRUPT_DisableNmiRequest
                0x00000000       0x24 ./Libraries/XMCLib/src/xmc4_scu.o
 .text.XMC_SCU_RESET_AssertPeripheralReset
                0x00000000       0x38 ./Libraries/XMCLib/src/xmc4_scu.o
 .text.XMC_SCU_CLOCK_GetSystemPllClockFrequency
                0x00000000       0x7c ./Libraries/XMCLib/src/xmc4_scu.o
 .text.XMC_SCU_CLOCK_GetSystemPllClockSourceFrequency
                0x00000000       0x30 ./Libraries/XMCLib/src/xmc4_scu.o
 .text.XMC_SCU_CLOCK_GetUsbPllClockFrequency
                0x00000000       0x54 ./Libraries/XMCLib/src/xmc4_scu.o
 .text.XMC_SCU_CLOCK_GetCcuClockFrequency
                0x00000000       0x2c ./Libraries/XMCLib/src/xmc4_scu.o
 .text.XMC_SCU_CLOCK_GetUsbClockFrequency
                0x00000000       0x48 ./Libraries/XMCLib/src/xmc4_scu.o
 .text.XMC_SCU_CLOCK_GetECATClockFrequency
                0x00000000       0x3c ./Libraries/XMCLib/src/xmc4_scu.o
 .text.XMC_SCU_CLOCK_GetWdtClockFrequency
                0x00000000       0x58 ./Libraries/XMCLib/src/xmc4_scu.o
 .text.XMC_SCU_CLOCK_GetExternalOutputClockFrequency
                0x00000000       0x74 ./Libraries/XMCLib/src/xmc4_scu.o
 .text.XMC_SCU_CLOCK_SetExternalOutputClockSource
                0x00000000       0x28 ./Libraries/XMCLib/src/xmc4_scu.o
 .text.XMC_SCU_CLOCK_SetExternalOutputClockDivider
                0x00000000       0x30 ./Libraries/XMCLib/src/xmc4_scu.o
 .text.XMC_SCU_CLOCK_DisableClock
                0x00000000       0x20 ./Libraries/XMCLib/src/xmc4_scu.o
 .text.XMC_SCU_CLOCK_IsClockEnabled
                0x00000000       0x2c ./Libraries/XMCLib/src/xmc4_scu.o
 .text.XMC_SCU_CLOCK_GatePeripheralClock
                0x00000000       0x38 ./Libraries/XMCLib/src/xmc4_scu.o
 .text.XMC_SCU_POWER_GetEVR13Voltage
                0x00000000       0x30 ./Libraries/XMCLib/src/xmc4_scu.o
 .text.XMC_SCU_POWER_GetEVR33Voltage
                0x00000000       0x34 ./Libraries/XMCLib/src/xmc4_scu.o
 .text.XMC_SCU_CLOCK_DisableUsbPll
                0x00000000       0x20 ./Libraries/XMCLib/src/xmc4_scu.o
 .text.XMC_SCU_CLOCK_StopUsbPll
                0x00000000       0x1c ./Libraries/XMCLib/src/xmc4_scu.o
 .text.XMC_SCU_POWER_EnableUsb
                0x00000000       0x18 ./Libraries/XMCLib/src/xmc4_scu.o
 .text.XMC_SCU_POWER_DisableUsb
                0x00000000       0x18 ./Libraries/XMCLib/src/xmc4_scu.o
 .text.XMC_SCU_CLOCK_IsUsbPllLocked
                0x00000000       0x24 ./Libraries/XMCLib/src/xmc4_scu.o
 .text.XMC_SCU_HIB_DisableHibernateDomain
                0x00000000       0x24 ./Libraries/XMCLib/src/xmc4_scu.o
 .text.XMC_SCU_HIB_IsHibernateDomainEnabled
                0x00000000       0x3c ./Libraries/XMCLib/src/xmc4_scu.o
 .text.XMC_SCU_HIB_EnableInternalSlowClock
                0x00000000       0x30 ./Libraries/XMCLib/src/xmc4_scu.o
 .text.XMC_SCU_HIB_DisableInternalSlowClock
                0x00000000       0x30 ./Libraries/XMCLib/src/xmc4_scu.o
 .text.XMC_SCU_HIB_ClearEventStatus
                0x00000000       0x30 ./Libraries/XMCLib/src/xmc4_scu.o
 .text.XMC_SCU_HIB_TriggerEvent
                0x00000000       0x30 ./Libraries/XMCLib/src/xmc4_scu.o
 .text.XMC_SCU_HIB_EnableEvent
                0x00000000       0x38 ./Libraries/XMCLib/src/xmc4_scu.o
 .text.XMC_SCU_HIB_DisableEvent
                0x00000000       0x38 ./Libraries/XMCLib/src/xmc4_scu.o
 .text.XMC_SCU_HIB_EnterHibernateState
                0x00000000       0x30 ./Libraries/XMCLib/src/xmc4_scu.o
 .text.XMC_SCU_HIB_EnterHibernateStateEx
                0x00000000       0x1c ./Libraries/XMCLib/src/xmc4_scu.o
 .text.XMC_SCU_HIB_SetWakeupTriggerInput
                0x00000000       0x4c ./Libraries/XMCLib/src/xmc4_scu.o
 .text.XMC_SCU_HIB_SetPinMode
                0x00000000       0x54 ./Libraries/XMCLib/src/xmc4_scu.o
 .text.XMC_SCU_HIB_SetPinOutputLevel
                0x00000000       0x54 ./Libraries/XMCLib/src/xmc4_scu.o
 .text.XMC_SCU_HIB_SetInput0
                0x00000000       0x4c ./Libraries/XMCLib/src/xmc4_scu.o
 .text.XMC_SCU_HIB_SetSR0Input
                0x00000000       0x3c ./Libraries/XMCLib/src/xmc4_scu.o
 .text.XMC_SCU_CLOCK_DisableLowPowerOscillator
                0x00000000       0x30 ./Libraries/XMCLib/src/xmc4_scu.o
 .text.XMC_SCU_CLOCK_EnableLowPowerOscillatorGeneralPurposeInput
                0x00000000       0x30 ./Libraries/XMCLib/src/xmc4_scu.o
 .text.XMC_SCU_CLOCK_DisableLowPowerOscillatorGeneralPurposeInput
                0x00000000       0x34 ./Libraries/XMCLib/src/xmc4_scu.o
 .text.XMC_SCU_CLOCK_GetLowPowerOscillatorGeneralPurposeInputStatus
                0x00000000       0x1c ./Libraries/XMCLib/src/xmc4_scu.o
 .text.XMC_SCU_CLOCK_DisableHighPerformanceOscillator
                0x00000000       0x1c ./Libraries/XMCLib/src/xmc4_scu.o
 .text.XMC_SCU_CLOCK_EnableHighPerformanceOscillatorGeneralPurposeInput
                0x00000000       0x1c ./Libraries/XMCLib/src/xmc4_scu.o
 .text.XMC_SCU_CLOCK_DisableHighPerformanceOscillatorGeneralPurposeInput
                0x00000000       0x1c ./Libraries/XMCLib/src/xmc4_scu.o
 .text.XMC_SCU_CLOCK_GetHighPerformanceOscillatorGeneralPurposeInputStatus
                0x00000000       0x1c ./Libraries/XMCLib/src/xmc4_scu.o
 .text.XMC_SCU_CLOCK_StopSystemPll
                0x00000000       0x1c ./Libraries/XMCLib/src/xmc4_scu.o
 .text.XMC_SCU_CLOCK_IsSystemPllLocked
                0x00000000       0x24 ./Libraries/XMCLib/src/xmc4_scu.o
 .text.XMC_SCU_INTERRUPT_SetEventHandler
                0x00000000       0x58 ./Libraries/XMCLib/src/xmc4_scu.o
 .text.XMC_SCU_IRQHandler
                0x00000000       0x60 ./Libraries/XMCLib/src/xmc4_scu.o
 .comment       0x00000000       0x71 ./Libraries/XMCLib/src/xmc4_scu.o
 .text          0x00000000        0x0 ./Libraries/XMCLib/src/xmc_can.o
 .data          0x00000000        0x0 ./Libraries/XMCLib/src/xmc_can.o
 .bss           0x00000000        0x0 ./Libraries/XMCLib/src/xmc_can.o
 .text.XMC_CAN_IsPanelControlReady
                0x00000000       0x28 ./Libraries/XMCLib/src/xmc_can.o
 .text.XMC_CAN_PanelControl
                0x00000000       0x3c ./Libraries/XMCLib/src/xmc_can.o
 .text.XMC_CAN_NODE_EnableConfigurationChange
                0x00000000       0x20 ./Libraries/XMCLib/src/xmc_can.o
 .text.XMC_CAN_NODE_DisableConfigurationChange
                0x00000000       0x20 ./Libraries/XMCLib/src/xmc_can.o
 .text.max      0x00000000       0x20 ./Libraries/XMCLib/src/xmc_can.o
 .text.min      0x00000000       0x20 ./Libraries/XMCLib/src/xmc_can.o
 .text.XMC_CAN_NODE_NominalBitTimeConfigureEx
                0x00000000      0x150 ./Libraries/XMCLib/src/xmc_can.o
 .text.XMC_CAN_NODE_NominalBitTimeConfigure
                0x00000000      0x1c4 ./Libraries/XMCLib/src/xmc_can.o
 .text.XMC_CAN_AllocateMOtoNodeList
                0x00000000       0x3c ./Libraries/XMCLib/src/xmc_can.o
 .text.XMC_CAN_Disable
                0x00000000       0x24 ./Libraries/XMCLib/src/xmc_can.o
 .text.XMC_CAN_Enable
                0x00000000       0x38 ./Libraries/XMCLib/src/xmc_can.o
 .text.XMC_CAN_Init
                0x00000000       0xe4 ./Libraries/XMCLib/src/xmc_can.o
 .text.XMC_CAN_SetBaudrateClockSource
                0x00000000       0x2c ./Libraries/XMCLib/src/xmc_can.o
 .text.XMC_CAN_GetBaudrateClockSource
                0x00000000       0x24 ./Libraries/XMCLib/src/xmc_can.o
 .text.XMC_CAN_GetBaudrateClockFrequency
                0x00000000       0x38 ./Libraries/XMCLib/src/xmc_can.o
 .text.XMC_CAN_InitEx
                0x00000000       0x80 ./Libraries/XMCLib/src/xmc_can.o
 .text.XMC_CAN_GetClockFrequency
                0x00000000       0x2c ./Libraries/XMCLib/src/xmc_can.o
 .text.XMC_CAN_MO_SetIdentifier
                0x00000000       0x68 ./Libraries/XMCLib/src/xmc_can.o
 .text.XMC_CAN_MO_GetIdentifier
                0x00000000       0x40 ./Libraries/XMCLib/src/xmc_can.o
 .text.XMC_CAN_MO_GetAcceptanceMask
                0x00000000       0x50 ./Libraries/XMCLib/src/xmc_can.o
 .text.XMC_CAN_MO_SetAcceptanceMask
                0x00000000       0x78 ./Libraries/XMCLib/src/xmc_can.o
 .text.XMC_CAN_MO_Config
                0x00000000      0x138 ./Libraries/XMCLib/src/xmc_can.o
 .text.XMC_CAN_MO_UpdateData
                0x00000000       0x70 ./Libraries/XMCLib/src/xmc_can.o
 .text.XMC_CAN_MO_Transmit
                0x00000000       0x5c ./Libraries/XMCLib/src/xmc_can.o
 .text.XMC_CAN_MO_ReceiveData
                0x00000000       0x98 ./Libraries/XMCLib/src/xmc_can.o
 .text.XMC_CAN_MO_Receive
                0x00000000      0x1a0 ./Libraries/XMCLib/src/xmc_can.o
 .text.XMC_CAN_NODE_EnableEvent
                0x00000000       0x38 ./Libraries/XMCLib/src/xmc_can.o
 .text.XMC_CAN_NODE_DisableEvent
                0x00000000       0x3c ./Libraries/XMCLib/src/xmc_can.o
 .text.XMC_CAN_TXFIFO_Transmit
                0x00000000       0x78 ./Libraries/XMCLib/src/xmc_can.o
 .text.XMC_CAN_TXFIFO_ConfigMOBaseObject
                0x00000000       0x50 ./Libraries/XMCLib/src/xmc_can.o
 .text.XMC_CAN_RXFIFO_ConfigMOBaseObject
                0x00000000       0x50 ./Libraries/XMCLib/src/xmc_can.o
 .text.XMC_CAN_TXFIFO_ConfigMOSlaveObject
                0x00000000       0x50 ./Libraries/XMCLib/src/xmc_can.o
 .text.XMC_CAN_GATEWAY_InitSourceObject
                0x00000000       0x64 ./Libraries/XMCLib/src/xmc_can.o
 .debug_info    0x00000000     0x1467 ./Libraries/XMCLib/src/xmc_can.o
 .debug_abbrev  0x00000000      0x2ee ./Libraries/XMCLib/src/xmc_can.o
 .debug_loc     0x00000000      0xb68 ./Libraries/XMCLib/src/xmc_can.o
 .debug_aranges
                0x00000000      0x120 ./Libraries/XMCLib/src/xmc_can.o
 .debug_ranges  0x00000000      0x110 ./Libraries/XMCLib/src/xmc_can.o
 .debug_line    0x00000000      0x70d ./Libraries/XMCLib/src/xmc_can.o
 .debug_str     0x00000000     0x1347 ./Libraries/XMCLib/src/xmc_can.o
 .comment       0x00000000       0x71 ./Libraries/XMCLib/src/xmc_can.o
 .debug_frame   0x00000000      0x538 ./Libraries/XMCLib/src/xmc_can.o
 .ARM.attributes
                0x00000000       0x37 ./Libraries/XMCLib/src/xmc_can.o
 .text          0x00000000        0x0 ./Libraries/XMCLib/src/xmc_ccu4.o
 .data          0x00000000        0x0 ./Libraries/XMCLib/src/xmc_ccu4.o
 .bss           0x00000000        0x0 ./Libraries/XMCLib/src/xmc_ccu4.o
 .text.XMC_CCU4_SLICE_SetDitherCompareValue
                0x00000000       0x1c ./Libraries/XMCLib/src/xmc_ccu4.o
 .text.XMC_CCU4_lAssertReset
                0x00000000       0x34 ./Libraries/XMCLib/src/xmc_ccu4.o
 .text.XMC_CCU4_lGateClock
                0x00000000       0x34 ./Libraries/XMCLib/src/xmc_ccu4.o
 .text.XMC_CCU4_DisableModule
                0x00000000       0x1c ./Libraries/XMCLib/src/xmc_ccu4.o
 .text.XMC_CCU4_SetModuleClock
                0x00000000       0x34 ./Libraries/XMCLib/src/xmc_ccu4.o
 .text.XMC_CCU4_SetMultiChannelShadowTransferMode
                0x00000000       0x38 ./Libraries/XMCLib/src/xmc_ccu4.o
 .text.XMC_CCU4_SLICE_CaptureInit
                0x00000000       0x4c ./Libraries/XMCLib/src/xmc_ccu4.o
 .text.XMC_CCU4_SLICE_StartConfig
                0x00000000       0x5c ./Libraries/XMCLib/src/xmc_ccu4.o
 .text.XMC_CCU4_SLICE_StopConfig
                0x00000000       0x58 ./Libraries/XMCLib/src/xmc_ccu4.o
 .text.XMC_CCU4_SLICE_LoadConfig
                0x00000000       0x34 ./Libraries/XMCLib/src/xmc_ccu4.o
 .text.XMC_CCU4_SLICE_ModulationConfig
                0x00000000       0x80 ./Libraries/XMCLib/src/xmc_ccu4.o
 .text.XMC_CCU4_SLICE_CountConfig
                0x00000000       0x34 ./Libraries/XMCLib/src/xmc_ccu4.o
 .text.XMC_CCU4_SLICE_GateConfig
                0x00000000       0x34 ./Libraries/XMCLib/src/xmc_ccu4.o
 .text.XMC_CCU4_SLICE_Capture0Config
                0x00000000       0x34 ./Libraries/XMCLib/src/xmc_ccu4.o
 .text.XMC_CCU4_SLICE_Capture1Config
                0x00000000       0x34 ./Libraries/XMCLib/src/xmc_ccu4.o
 .text.XMC_CCU4_SLICE_DirectionConfig
                0x00000000       0x34 ./Libraries/XMCLib/src/xmc_ccu4.o
 .text.XMC_CCU4_SLICE_StatusBitOverrideConfig
                0x00000000       0x30 ./Libraries/XMCLib/src/xmc_ccu4.o
 .text.XMC_CCU4_SLICE_TrapConfig
                0x00000000       0x74 ./Libraries/XMCLib/src/xmc_ccu4.o
 .text.XMC_CCU4_SLICE_ConfigureStatusBitOverrideEvent
                0x00000000       0xc4 ./Libraries/XMCLib/src/xmc_ccu4.o
 .text.XMC_CCU4_SLICE_ConfigureEvent
                0x00000000       0xd4 ./Libraries/XMCLib/src/xmc_ccu4.o
 .text.XMC_CCU4_SLICE_SetInput
                0x00000000       0x50 ./Libraries/XMCLib/src/xmc_ccu4.o
 .text.XMC_CCU4_SLICE_SetTimerRepeatMode
                0x00000000       0x38 ./Libraries/XMCLib/src/xmc_ccu4.o
 .text.XMC_CCU4_SLICE_SetTimerCountingMode
                0x00000000       0x38 ./Libraries/XMCLib/src/xmc_ccu4.o
 .text.XMC_CCU4_SLICE_GetCaptureRegisterValue
                0x00000000       0x24 ./Libraries/XMCLib/src/xmc_ccu4.o
 .text.XMC_CCU4_SLICE_GetLastCapturedTimerValue
                0x00000000       0x8c ./Libraries/XMCLib/src/xmc_ccu4.o
 .text.XMC_CCU4_SLICE_GetCapturedValueFromFifo
                0x00000000       0x34 ./Libraries/XMCLib/src/xmc_ccu4.o
 .text.XMC_CCU4_SLICE_EnableDithering
                0x00000000       0x5c ./Libraries/XMCLib/src/xmc_ccu4.o
 .text.XMC_CCU4_SLICE_SetPrescaler
                0x00000000       0x3c ./Libraries/XMCLib/src/xmc_ccu4.o
 .text.XMC_CCU4_SLICE_SetPassiveLevel
                0x00000000       0x34 ./Libraries/XMCLib/src/xmc_ccu4.o
 .comment       0x00000000       0x71 ./Libraries/XMCLib/src/xmc_ccu4.o
 .text          0x00000000        0x0 ./Libraries/XMCLib/src/xmc_ccu8.o
 .data          0x00000000        0x0 ./Libraries/XMCLib/src/xmc_ccu8.o
 .bss           0x00000000        0x0 ./Libraries/XMCLib/src/xmc_ccu8.o
 .text.XMC_CCU8_StartPrescaler
                0x00000000       0x1c ./Libraries/XMCLib/src/xmc_ccu8.o
 .text.XMC_CCU8_SLICE_StopTimer
                0x00000000       0x18 ./Libraries/XMCLib/src/xmc_ccu8.o
 .text.XMC_CCU8_SLICE_SetDitherCompareValue
                0x00000000       0x1c ./Libraries/XMCLib/src/xmc_ccu8.o
 .text.XMC_CCU8_lAssertReset
                0x00000000       0x20 ./Libraries/XMCLib/src/xmc_ccu8.o
 .text.XMC_CCU8_lDeassertReset
                0x00000000       0x20 ./Libraries/XMCLib/src/xmc_ccu8.o
 .text.XMC_CCU8_lGateClock
                0x00000000       0x20 ./Libraries/XMCLib/src/xmc_ccu8.o
 .text.XMC_CCU8_lUngateClock
                0x00000000       0x20 ./Libraries/XMCLib/src/xmc_ccu8.o
 .text.XMC_CCU8_EnableModule
                0x00000000       0x20 ./Libraries/XMCLib/src/xmc_ccu8.o
 .text.XMC_CCU8_DisableModule
                0x00000000       0x1c ./Libraries/XMCLib/src/xmc_ccu8.o
 .text.XMC_CCU8_Init
                0x00000000       0x3c ./Libraries/XMCLib/src/xmc_ccu8.o
 .text.XMC_CCU8_SetModuleClock
                0x00000000       0x34 ./Libraries/XMCLib/src/xmc_ccu8.o
 .text.XMC_CCU8_SLICE_CompareInit
                0x00000000       0x74 ./Libraries/XMCLib/src/xmc_ccu8.o
 .text.XMC_CCU8_SLICE_CaptureInit
                0x00000000       0x50 ./Libraries/XMCLib/src/xmc_ccu8.o
 .text.XMC_CCU8_SLICE_SetOutPath
                0x00000000       0x38 ./Libraries/XMCLib/src/xmc_ccu8.o
 .text.XMC_CCU8_SetMultiChannelShadowTransferMode
                0x00000000       0x38 ./Libraries/XMCLib/src/xmc_ccu8.o
 .text.XMC_CCU8_SLICE_StartConfig
                0x00000000       0x5c ./Libraries/XMCLib/src/xmc_ccu8.o
 .text.XMC_CCU8_SLICE_StopConfig
                0x00000000       0x58 ./Libraries/XMCLib/src/xmc_ccu8.o
 .text.XMC_CCU8_SLICE_LoadConfig
                0x00000000       0x34 ./Libraries/XMCLib/src/xmc_ccu8.o
 .text.XMC_CCU8_SLICE_LoadSelector
                0x00000000       0x34 ./Libraries/XMCLib/src/xmc_ccu8.o
 .text.XMC_CCU8_SLICE_ModulationConfig
                0x00000000       0x90 ./Libraries/XMCLib/src/xmc_ccu8.o
 .text.XMC_CCU8_SLICE_CountConfig
                0x00000000       0x34 ./Libraries/XMCLib/src/xmc_ccu8.o
 .text.XMC_CCU8_SLICE_GateConfig
                0x00000000       0x34 ./Libraries/XMCLib/src/xmc_ccu8.o
 .text.XMC_CCU8_SLICE_Capture0Config
                0x00000000       0x34 ./Libraries/XMCLib/src/xmc_ccu8.o
 .text.XMC_CCU8_SLICE_Capture1Config
                0x00000000       0x34 ./Libraries/XMCLib/src/xmc_ccu8.o
 .text.XMC_CCU8_SLICE_DirectionConfig
                0x00000000       0x34 ./Libraries/XMCLib/src/xmc_ccu8.o
 .text.XMC_CCU8_SLICE_StatusBitOverrideConfig
                0x00000000       0x30 ./Libraries/XMCLib/src/xmc_ccu8.o
 .text.XMC_CCU8_SLICE_TrapConfig
                0x00000000       0x74 ./Libraries/XMCLib/src/xmc_ccu8.o
 .text.XMC_CCU8_SLICE_ConfigureStatusBitOverrideEvent
                0x00000000       0xc4 ./Libraries/XMCLib/src/xmc_ccu8.o
 .text.XMC_CCU8_SLICE_ConfigureEvent
                0x00000000       0xd4 ./Libraries/XMCLib/src/xmc_ccu8.o
 .text.XMC_CCU8_SLICE_SetInput
                0x00000000       0x50 ./Libraries/XMCLib/src/xmc_ccu8.o
 .text.XMC_CCU8_SLICE_SetTimerRepeatMode
                0x00000000       0x3c ./Libraries/XMCLib/src/xmc_ccu8.o
 .text.XMC_CCU8_SLICE_SetTimerCountingMode
                0x00000000       0x3c ./Libraries/XMCLib/src/xmc_ccu8.o
 .text.XMC_CCU8_SLICE_SetTimerPeriodMatch
                0x00000000       0x1c ./Libraries/XMCLib/src/xmc_ccu8.o
 .text.XMC_CCU8_SLICE_GetCaptureRegisterValue
                0x00000000       0x24 ./Libraries/XMCLib/src/xmc_ccu8.o
 .text.XMC_CCU8_SLICE_GetLastCapturedTimerValue
                0x00000000       0x8c ./Libraries/XMCLib/src/xmc_ccu8.o
 .text.XMC_CCU8_SLICE_GetCapturedValueFromFifo
                0x00000000       0x34 ./Libraries/XMCLib/src/xmc_ccu8.o
 .text.XMC_CCU8_SLICE_EnableDithering
                0x00000000       0x5c ./Libraries/XMCLib/src/xmc_ccu8.o
 .text.XMC_CCU8_SLICE_SetPrescaler
                0x00000000       0x3c ./Libraries/XMCLib/src/xmc_ccu8.o
 .text.XMC_CCU8_SLICE_SetTimerCompareMatch
                0x00000000       0x30 ./Libraries/XMCLib/src/xmc_ccu8.o
 .text.XMC_CCU8_SLICE_GetTimerCompareMatch
                0x00000000       0x30 ./Libraries/XMCLib/src/xmc_ccu8.o
 .text.XMC_CCU8_SLICE_SetInterruptNode
                0x00000000       0xd0 ./Libraries/XMCLib/src/xmc_ccu8.o
 .text.XMC_CCU8_SLICE_SetPassiveLevel
                0x00000000       0x40 ./Libraries/XMCLib/src/xmc_ccu8.o
 .text.XMC_CCU8_SLICE_DeadTimeInit
                0x00000000       0x2c ./Libraries/XMCLib/src/xmc_ccu8.o
 .text.XMC_CCU8_SLICE_ConfigureDeadTime
                0x00000000       0x30 ./Libraries/XMCLib/src/xmc_ccu8.o
 .text.XMC_CCU8_SLICE_SetDeadTimeValue
                0x00000000       0x44 ./Libraries/XMCLib/src/xmc_ccu8.o
 .text.XMC_CCU8_SLICE_SetDeadTimePrescaler
                0x00000000       0x30 ./Libraries/XMCLib/src/xmc_ccu8.o
 .text.XMC_CCU8_SLICE_ConfigureStatusBitOutput
                0x00000000       0x30 ./Libraries/XMCLib/src/xmc_ccu8.o
 .debug_info    0x00000000     0x1e30 ./Libraries/XMCLib/src/xmc_ccu8.o
 .debug_abbrev  0x00000000      0x254 ./Libraries/XMCLib/src/xmc_ccu8.o
 .debug_loc     0x00000000     0x106c ./Libraries/XMCLib/src/xmc_ccu8.o
 .debug_aranges
                0x00000000      0x190 ./Libraries/XMCLib/src/xmc_ccu8.o
 .debug_ranges  0x00000000      0x180 ./Libraries/XMCLib/src/xmc_ccu8.o
 .debug_line    0x00000000      0x74e ./Libraries/XMCLib/src/xmc_ccu8.o
 .debug_str     0x00000000     0x2424 ./Libraries/XMCLib/src/xmc_ccu8.o
 .comment       0x00000000       0x71 ./Libraries/XMCLib/src/xmc_ccu8.o
 .debug_frame   0x00000000      0x768 ./Libraries/XMCLib/src/xmc_ccu8.o
 .ARM.attributes
                0x00000000       0x37 ./Libraries/XMCLib/src/xmc_ccu8.o
 .text          0x00000000        0x0 ./Libraries/XMCLib/src/xmc_common.o
 .data          0x00000000        0x0 ./Libraries/XMCLib/src/xmc_common.o
 .bss           0x00000000        0x0 ./Libraries/XMCLib/src/xmc_common.o
 .debug_info    0x00000000      0x16a ./Libraries/XMCLib/src/xmc_common.o
 .debug_abbrev  0x00000000       0xa2 ./Libraries/XMCLib/src/xmc_common.o
 .debug_aranges
                0x00000000       0x18 ./Libraries/XMCLib/src/xmc_common.o
 .debug_line    0x00000000      0x171 ./Libraries/XMCLib/src/xmc_common.o
 .debug_str     0x00000000      0x28a ./Libraries/XMCLib/src/xmc_common.o
 .comment       0x00000000       0x71 ./Libraries/XMCLib/src/xmc_common.o
 .ARM.attributes
                0x00000000       0x37 ./Libraries/XMCLib/src/xmc_common.o
 .text          0x00000000        0x0 ./Libraries/XMCLib/src/xmc_dac.o
 .data          0x00000000        0x0 ./Libraries/XMCLib/src/xmc_dac.o
 .bss           0x00000000        0x0 ./Libraries/XMCLib/src/xmc_dac.o
 .text.XMC_DAC_CH_EnableOutput
                0x00000000       0x30 ./Libraries/XMCLib/src/xmc_dac.o
 .text.XMC_DAC_CH_EnablePatternSignOutput
                0x00000000       0x30 ./Libraries/XMCLib/src/xmc_dac.o
 .text.XMC_DAC_CH_DisablePatternSignOutput
                0x00000000       0x30 ./Libraries/XMCLib/src/xmc_dac.o
 .text.XMC_DAC_CH_SetRampStart
                0x00000000       0x28 ./Libraries/XMCLib/src/xmc_dac.o
 .text.XMC_DAC_CH_SetRampStop
                0x00000000       0x3c ./Libraries/XMCLib/src/xmc_dac.o
 .text.XMC_DAC_CH_SetTrigger
                0x00000000       0x34 ./Libraries/XMCLib/src/xmc_dac.o
 .text.XMC_DAC_CH_SetMode
                0x00000000       0x34 ./Libraries/XMCLib/src/xmc_dac.o
 .text.XMC_DAC_Enable
                0x00000000       0x20 ./Libraries/XMCLib/src/xmc_dac.o
 .text.XMC_DAC_Disable
                0x00000000       0x20 ./Libraries/XMCLib/src/xmc_dac.o
 .text.XMC_DAC_IsEnabled
                0x00000000       0x30 ./Libraries/XMCLib/src/xmc_dac.o
 .text.XMC_DAC_CH_Init
                0x00000000       0x48 ./Libraries/XMCLib/src/xmc_dac.o
 .text.XMC_DAC_CH_SetFrequency
                0x00000000       0x60 ./Libraries/XMCLib/src/xmc_dac.o
 .text.XMC_DAC_CH_SetRampFrequency
                0x00000000       0x50 ./Libraries/XMCLib/src/xmc_dac.o
 .text.XMC_DAC_CH_StartSingleValueMode
                0x00000000       0x24 ./Libraries/XMCLib/src/xmc_dac.o
 .text.XMC_DAC_CH_StartDataMode
                0x00000000       0x60 ./Libraries/XMCLib/src/xmc_dac.o
 .text.XMC_DAC_CH_StartRampMode
                0x00000000       0x88 ./Libraries/XMCLib/src/xmc_dac.o
 .text.XMC_DAC_CH_StartPatternMode
                0x00000000       0x90 ./Libraries/XMCLib/src/xmc_dac.o
 .text.XMC_DAC_CH_StartNoiseMode
                0x00000000       0x60 ./Libraries/XMCLib/src/xmc_dac.o
 .text.XMC_DAC_CH_SetPattern
                0x00000000       0xa0 ./Libraries/XMCLib/src/xmc_dac.o
 .debug_info    0x00000000      0xbee ./Libraries/XMCLib/src/xmc_dac.o
 .debug_abbrev  0x00000000      0x245 ./Libraries/XMCLib/src/xmc_dac.o
 .debug_loc     0x00000000      0x650 ./Libraries/XMCLib/src/xmc_dac.o
 .debug_aranges
                0x00000000       0xb0 ./Libraries/XMCLib/src/xmc_dac.o
 .debug_ranges  0x00000000       0xa0 ./Libraries/XMCLib/src/xmc_dac.o
 .debug_line    0x00000000      0x469 ./Libraries/XMCLib/src/xmc_dac.o
 .debug_str     0x00000000      0xd47 ./Libraries/XMCLib/src/xmc_dac.o
 .comment       0x00000000       0x71 ./Libraries/XMCLib/src/xmc_dac.o
 .debug_frame   0x00000000      0x308 ./Libraries/XMCLib/src/xmc_dac.o
 .ARM.attributes
                0x00000000       0x37 ./Libraries/XMCLib/src/xmc_dac.o
 .text          0x00000000        0x0 ./Libraries/XMCLib/src/xmc_dma.o
 .data          0x00000000        0x0 ./Libraries/XMCLib/src/xmc_dma.o
 .bss           0x00000000        0x0 ./Libraries/XMCLib/src/xmc_dma.o
 .text.XMC_DMA_Disable
                0x00000000       0x28 ./Libraries/XMCLib/src/xmc_dma.o
 .text.XMC_DMA_DisableRequestLine
                0x00000000       0x30 ./Libraries/XMCLib/src/xmc_dma.o
 .text.XMC_DMA_ClearRequestLine
                0x00000000       0x40 ./Libraries/XMCLib/src/xmc_dma.o
 .text.XMC_DMA_GetOverrunStatus
                0x00000000       0x38 ./Libraries/XMCLib/src/xmc_dma.o
 .text.XMC_DMA_ClearOverrunStatus
                0x00000000       0x28 ./Libraries/XMCLib/src/xmc_dma.o
 .text.XMC_DMA_CH_Disable
                0x00000000       0x3c ./Libraries/XMCLib/src/xmc_dma.o
 .text.XMC_DMA_CH_Suspend
                0x00000000       0x3c ./Libraries/XMCLib/src/xmc_dma.o
 .text.XMC_DMA_CH_Resume
                0x00000000       0x3c ./Libraries/XMCLib/src/xmc_dma.o
 .text.XMC_DMA_CH_IsSuspended
                0x00000000       0x38 ./Libraries/XMCLib/src/xmc_dma.o
 .text.XMC_DMA_CH_DisableEvent
                0x00000000       0x50 ./Libraries/XMCLib/src/xmc_dma.o
 .text.XMC_DMA_CH_GetEventStatus
                0x00000000       0x5c ./Libraries/XMCLib/src/xmc_dma.o
 .text.XMC_DMA_CH_EnableSourceGather
                0x00000000       0x5c ./Libraries/XMCLib/src/xmc_dma.o
 .text.XMC_DMA_CH_DisableSourceGather
                0x00000000       0x3c ./Libraries/XMCLib/src/xmc_dma.o
 .text.XMC_DMA_CH_EnableDestinationScatter
                0x00000000       0x5c ./Libraries/XMCLib/src/xmc_dma.o
 .text.XMC_DMA_CH_DisableDestinationScatter
                0x00000000       0x3c ./Libraries/XMCLib/src/xmc_dma.o
 .text.XMC_DMA_CH_TriggerSourceRequest
                0x00000000       0x5c ./Libraries/XMCLib/src/xmc_dma.o
 .text.XMC_DMA_CH_TriggerDestinationRequest
                0x00000000       0x5c ./Libraries/XMCLib/src/xmc_dma.o
 .text.XMC_DMA_CH_EnableSourceAddressReload
                0x00000000       0x3c ./Libraries/XMCLib/src/xmc_dma.o
 .text.XMC_DMA_CH_DisableSourceAddressReload
                0x00000000       0x3c ./Libraries/XMCLib/src/xmc_dma.o
 .text.XMC_DMA_CH_EnableDestinationAddressReload
                0x00000000       0x3c ./Libraries/XMCLib/src/xmc_dma.o
 .text.XMC_DMA_CH_DisableDestinationAddressReload
                0x00000000       0x3c ./Libraries/XMCLib/src/xmc_dma.o
 .text.XMC_DMA_CH_RequestLastMultiblockTransfer
                0x00000000       0x60 ./Libraries/XMCLib/src/xmc_dma.o
 .text.XMC_DMA_CH_ClearSourcePeripheralRequest
                0x00000000       0x38 ./Libraries/XMCLib/src/xmc_dma.o
 .text.XMC_DMA_CH_ClearDestinationPeripheralRequest
                0x00000000       0x38 ./Libraries/XMCLib/src/xmc_dma.o
 .comment       0x00000000       0x71 ./Libraries/XMCLib/src/xmc_dma.o
 .text          0x00000000        0x0 ./Libraries/XMCLib/src/xmc_dsd.o
 .data          0x00000000        0x0 ./Libraries/XMCLib/src/xmc_dsd.o
 .bss           0x00000000        0x0 ./Libraries/XMCLib/src/xmc_dsd.o
 .debug_info    0x00000000      0x16a ./Libraries/XMCLib/src/xmc_dsd.o
 .debug_abbrev  0x00000000       0xa2 ./Libraries/XMCLib/src/xmc_dsd.o
 .debug_aranges
                0x00000000       0x18 ./Libraries/XMCLib/src/xmc_dsd.o
 .debug_line    0x00000000      0x171 ./Libraries/XMCLib/src/xmc_dsd.o
 .debug_str     0x00000000      0x287 ./Libraries/XMCLib/src/xmc_dsd.o
 .comment       0x00000000       0x71 ./Libraries/XMCLib/src/xmc_dsd.o
 .ARM.attributes
                0x00000000       0x37 ./Libraries/XMCLib/src/xmc_dsd.o
 .text          0x00000000        0x0 ./Libraries/XMCLib/src/xmc_ebu.o
 .data          0x00000000        0x0 ./Libraries/XMCLib/src/xmc_ebu.o
 .bss           0x00000000        0x0 ./Libraries/XMCLib/src/xmc_ebu.o
 .debug_info    0x00000000      0x16a ./Libraries/XMCLib/src/xmc_ebu.o
 .debug_abbrev  0x00000000       0xa2 ./Libraries/XMCLib/src/xmc_ebu.o
 .debug_aranges
                0x00000000       0x18 ./Libraries/XMCLib/src/xmc_ebu.o
 .debug_line    0x00000000      0x171 ./Libraries/XMCLib/src/xmc_ebu.o
 .debug_str     0x00000000      0x287 ./Libraries/XMCLib/src/xmc_ebu.o
 .comment       0x00000000       0x71 ./Libraries/XMCLib/src/xmc_ebu.o
 .ARM.attributes
                0x00000000       0x37 ./Libraries/XMCLib/src/xmc_ebu.o
 .text          0x00000000        0x0 ./Libraries/XMCLib/src/xmc_ecat.o
 .data          0x00000000        0x0 ./Libraries/XMCLib/src/xmc_ecat.o
 .bss           0x00000000        0x0 ./Libraries/XMCLib/src/xmc_ecat.o
 .text.XMC_ECAT_lRequestPhyAccessToMII
                0x00000000       0x18 ./Libraries/XMCLib/src/xmc_ecat.o
 .text.XMC_ECAT_lReleasePhyAccessToMII
                0x00000000       0x18 ./Libraries/XMCLib/src/xmc_ecat.o
 .text.XMC_ECAT_Disable
                0x00000000       0x2c ./Libraries/XMCLib/src/xmc_ecat.o
 .text.XMC_ECAT_EnableEvent
                0x00000000       0x28 ./Libraries/XMCLib/src/xmc_ecat.o
 .text.XMC_ECAT_GetEventStatus
                0x00000000       0x18 ./Libraries/XMCLib/src/xmc_ecat.o
 .text.XMC_ECAT_EnableSyncManChannel
                0x00000000       0x38 ./Libraries/XMCLib/src/xmc_ecat.o
 .text.XMC_ECAT_ReadPhy
                0x00000000       0xa4 ./Libraries/XMCLib/src/xmc_ecat.o
 .text.XMC_ECAT_WritePhy
                0x00000000       0xa0 ./Libraries/XMCLib/src/xmc_ecat.o
 .comment       0x00000000       0x71 ./Libraries/XMCLib/src/xmc_ecat.o
 .text          0x00000000        0x0 ./Libraries/XMCLib/src/xmc_eru.o
 .data          0x00000000        0x0 ./Libraries/XMCLib/src/xmc_eru.o
 .bss           0x00000000        0x0 ./Libraries/XMCLib/src/xmc_eru.o
 .text.XMC_ERU_ETL_SetInput
                0x00000000       0x4c ./Libraries/XMCLib/src/xmc_eru.o
 .text.XMC_ERU_ETL_SetSource
                0x00000000       0x3c ./Libraries/XMCLib/src/xmc_eru.o
 .text.XMC_ERU_ETL_SetEdgeDetection
                0x00000000       0x3c ./Libraries/XMCLib/src/xmc_eru.o
 .text.XMC_ERU_ETL_GetEdgeDetection
                0x00000000       0x2c ./Libraries/XMCLib/src/xmc_eru.o
 .text.XMC_ERU_ETL_SetStatusFlagMode
                0x00000000       0x3c ./Libraries/XMCLib/src/xmc_eru.o
 .text.XMC_ERU_ETL_EnableOutputTrigger
                0x00000000       0x50 ./Libraries/XMCLib/src/xmc_eru.o
 .text.XMC_ERU_ETL_DisableOutputTrigger
                0x00000000       0x28 ./Libraries/XMCLib/src/xmc_eru.o
 .text.XMC_ERU_OGU_EnablePatternDetection
                0x00000000       0x50 ./Libraries/XMCLib/src/xmc_eru.o
 .text.XMC_ERU_OGU_DisablePatternDetection
                0x00000000       0x28 ./Libraries/XMCLib/src/xmc_eru.o
 .text.XMC_ERU_OGU_EnablePeripheralTrigger
                0x00000000       0x3c ./Libraries/XMCLib/src/xmc_eru.o
 .text.XMC_ERU_OGU_DisablePeripheralTrigger
                0x00000000       0x28 ./Libraries/XMCLib/src/xmc_eru.o
 .text.XMC_ERU_OGU_SetServiceRequestMode
                0x00000000       0x3c ./Libraries/XMCLib/src/xmc_eru.o
 .comment       0x00000000       0x71 ./Libraries/XMCLib/src/xmc_eru.o
 .text          0x00000000        0x0 ./Libraries/XMCLib/src/xmc_eth_mac.o
 .data          0x00000000        0x0 ./Libraries/XMCLib/src/xmc_eth_mac.o
 .bss           0x00000000        0x0 ./Libraries/XMCLib/src/xmc_eth_mac.o
 .text.XMC_ETH_MAC_Reset
                0x00000000       0x40 ./Libraries/XMCLib/src/xmc_eth_mac.o
 .text.XMC_ETH_MAC_SetAddress
                0x00000000       0x2c ./Libraries/XMCLib/src/xmc_eth_mac.o
 .text.XMC_SCU_CLOCK_GetSystemClockFrequency
                0x00000000       0x28 ./Libraries/XMCLib/src/xmc_eth_mac.o
 .text.XMC_SCU_CLOCK_GetEthernetClockFrequency
                0x00000000       0x10 ./Libraries/XMCLib/src/xmc_eth_mac.o
 .text.XCM_ETH_MAC_IsNormalEvent
                0x00000000       0x28 ./Libraries/XMCLib/src/xmc_eth_mac.o
 .text.XCM_ETH_MAC_IsAbnormalEvent
                0x00000000       0x28 ./Libraries/XMCLib/src/xmc_eth_mac.o
 .text.XMC_ETH_MAC_InitEx
                0x00000000       0x98 ./Libraries/XMCLib/src/xmc_eth_mac.o
 .text.XMC_ETH_MAC_Init
                0x00000000       0x34 ./Libraries/XMCLib/src/xmc_eth_mac.o
 .text.XMC_ETH_MAC_InitRxDescriptors
                0x00000000       0xc8 ./Libraries/XMCLib/src/xmc_eth_mac.o
 .text.XMC_ETH_MAC_InitTxDescriptors
                0x00000000       0xb8 ./Libraries/XMCLib/src/xmc_eth_mac.o
 .text.XMC_ETH_MAC_SetAddressEx
                0x00000000       0x58 ./Libraries/XMCLib/src/xmc_eth_mac.o
 .text.XMC_ETH_MAC_GetAddressEx
                0x00000000       0x68 ./Libraries/XMCLib/src/xmc_eth_mac.o
 .text.XMC_ETH_MAC_SetAddressPerfectFilter
                0x00000000       0x48 ./Libraries/XMCLib/src/xmc_eth_mac.o
 .text.XMC_ETH_MAC_SetAddressPerfectFilterEx
                0x00000000       0x74 ./Libraries/XMCLib/src/xmc_eth_mac.o
 .text.XMC_ETH_MAC_SetAddressHashFilter
                0x00000000       0x2c ./Libraries/XMCLib/src/xmc_eth_mac.o
 .text.XMC_ETH_MAC_SendFrame
                0x00000000      0x188 ./Libraries/XMCLib/src/xmc_eth_mac.o
 .text.XMC_ETH_MAC_ReadFrame
                0x00000000       0xa0 ./Libraries/XMCLib/src/xmc_eth_mac.o
 .text.XMC_ETH_MAC_GetRxFrameSize
                0x00000000       0x70 ./Libraries/XMCLib/src/xmc_eth_mac.o
 .text.XMC_ETH_MAC_SetManagmentClockDivider
                0x00000000       0xa0 ./Libraries/XMCLib/src/xmc_eth_mac.o
 .text.XMC_ETH_MAC_Enable
                0x00000000       0x24 ./Libraries/XMCLib/src/xmc_eth_mac.o
 .text.XMC_ETH_MAC_Disable
                0x00000000       0x24 ./Libraries/XMCLib/src/xmc_eth_mac.o
 .text.XMC_ETH_MAC_ReadPhy
                0x00000000       0x74 ./Libraries/XMCLib/src/xmc_eth_mac.o
 .text.XMC_ETH_MAC_WritePhy
                0x00000000       0x78 ./Libraries/XMCLib/src/xmc_eth_mac.o
 .text.XMC_ETH_MAC_FlushTx
                0x00000000       0x4c ./Libraries/XMCLib/src/xmc_eth_mac.o
 .text.XMC_ETH_MAC_FlushRx
                0x00000000       0x4c ./Libraries/XMCLib/src/xmc_eth_mac.o
 .text.XMC_ETH_MAC_SetWakeUpFrameFilter
                0x00000000       0x38 ./Libraries/XMCLib/src/xmc_eth_mac.o
 .text.XMC_ETH_MAC_EnableEvent
                0x00000000       0x70 ./Libraries/XMCLib/src/xmc_eth_mac.o
 .text.XMC_ETH_MAC_DisableEvent
                0x00000000       0x4c ./Libraries/XMCLib/src/xmc_eth_mac.o
 .text.XMC_ETH_MAC_ClearEventStatus
                0x00000000       0x60 ./Libraries/XMCLib/src/xmc_eth_mac.o
 .text.XMC_ETH_MAC_GetEventStatus
                0x00000000       0x3c ./Libraries/XMCLib/src/xmc_eth_mac.o
 .text.XMC_ETH_MAC_ReturnRxDescriptor
                0x00000000       0x60 ./Libraries/XMCLib/src/xmc_eth_mac.o
 .text.XMC_ETH_MAC_ReturnTxDescriptor
                0x00000000       0x74 ./Libraries/XMCLib/src/xmc_eth_mac.o
 .text.XMC_ETH_MAC_SetVLANTag
                0x00000000       0x1c ./Libraries/XMCLib/src/xmc_eth_mac.o
 .text.XMC_ETH_MAC_InitPTP
                0x00000000      0x108 ./Libraries/XMCLib/src/xmc_eth_mac.o
 .text.XMC_ETH_MAC_InitPTPEx
                0x00000000       0x34 ./Libraries/XMCLib/src/xmc_eth_mac.o
 .text.XMC_ETH_MAC_GetPTPTime
                0x00000000       0x30 ./Libraries/XMCLib/src/xmc_eth_mac.o
 .text.XMC_ETH_MAC_SetPTPTime
                0x00000000       0x54 ./Libraries/XMCLib/src/xmc_eth_mac.o
 .text.XMC_ETH_MAC_UpdatePTPTime
                0x00000000       0x5c ./Libraries/XMCLib/src/xmc_eth_mac.o
 .text.XMC_ETH_MAC_SetPTPAlarm
                0x00000000       0x2c ./Libraries/XMCLib/src/xmc_eth_mac.o
 .text.XMC_ETH_MAC_AdjustPTPClock
                0x00000000       0x74 ./Libraries/XMCLib/src/xmc_eth_mac.o
 .text.XMC_ETH_MAC_UpdateAddend
                0x00000000       0x44 ./Libraries/XMCLib/src/xmc_eth_mac.o
 .text.XMC_ETH_MAC_GetPTPStatus
                0x00000000       0x1c ./Libraries/XMCLib/src/xmc_eth_mac.o
 .text.XMC_ETH_MAC_GetRxTimeStamp
                0x00000000       0x60 ./Libraries/XMCLib/src/xmc_eth_mac.o
 .text.XMC_ETH_MAC_GetTxTimeStamp
                0x00000000       0x64 ./Libraries/XMCLib/src/xmc_eth_mac.o
 .debug_info    0x00000000     0x1d1d ./Libraries/XMCLib/src/xmc_eth_mac.o
 .debug_abbrev  0x00000000      0x26b ./Libraries/XMCLib/src/xmc_eth_mac.o
 .debug_loc     0x00000000      0xeec ./Libraries/XMCLib/src/xmc_eth_mac.o
 .debug_aranges
                0x00000000      0x178 ./Libraries/XMCLib/src/xmc_eth_mac.o
 .debug_ranges  0x00000000      0x168 ./Libraries/XMCLib/src/xmc_eth_mac.o
 .debug_line    0x00000000      0x76a ./Libraries/XMCLib/src/xmc_eth_mac.o
 .debug_str     0x00000000     0x207f ./Libraries/XMCLib/src/xmc_eth_mac.o
 .comment       0x00000000       0x71 ./Libraries/XMCLib/src/xmc_eth_mac.o
 .debug_frame   0x00000000      0x710 ./Libraries/XMCLib/src/xmc_eth_mac.o
 .ARM.attributes
                0x00000000       0x37 ./Libraries/XMCLib/src/xmc_eth_mac.o
 .text          0x00000000        0x0 ./Libraries/XMCLib/src/xmc_eth_phy_dp83848.o
 .data          0x00000000        0x0 ./Libraries/XMCLib/src/xmc_eth_phy_dp83848.o
 .bss           0x00000000        0x0 ./Libraries/XMCLib/src/xmc_eth_phy_dp83848.o
 .debug_line    0x00000000        0x0 ./Libraries/XMCLib/src/xmc_eth_phy_dp83848.o
 .debug_str     0x00000000      0x156 ./Libraries/XMCLib/src/xmc_eth_phy_dp83848.o
 .comment       0x00000000       0x71 ./Libraries/XMCLib/src/xmc_eth_phy_dp83848.o
 .ARM.attributes
                0x00000000       0x37 ./Libraries/XMCLib/src/xmc_eth_phy_dp83848.o
 .text          0x00000000        0x0 ./Libraries/XMCLib/src/xmc_eth_phy_ksz8031rnl.o
 .data          0x00000000        0x0 ./Libraries/XMCLib/src/xmc_eth_phy_ksz8031rnl.o
 .bss           0x00000000        0x0 ./Libraries/XMCLib/src/xmc_eth_phy_ksz8031rnl.o
 .debug_line    0x00000000        0x0 ./Libraries/XMCLib/src/xmc_eth_phy_ksz8031rnl.o
 .debug_str     0x00000000      0x159 ./Libraries/XMCLib/src/xmc_eth_phy_ksz8031rnl.o
 .comment       0x00000000       0x71 ./Libraries/XMCLib/src/xmc_eth_phy_ksz8031rnl.o
 .ARM.attributes
                0x00000000       0x37 ./Libraries/XMCLib/src/xmc_eth_phy_ksz8031rnl.o
 .text          0x00000000        0x0 ./Libraries/XMCLib/src/xmc_eth_phy_ksz8081rnb.o
 .data          0x00000000        0x0 ./Libraries/XMCLib/src/xmc_eth_phy_ksz8081rnb.o
 .bss           0x00000000        0x0 ./Libraries/XMCLib/src/xmc_eth_phy_ksz8081rnb.o
 .debug_line    0x00000000        0x0 ./Libraries/XMCLib/src/xmc_eth_phy_ksz8081rnb.o
 .debug_str     0x00000000      0x159 ./Libraries/XMCLib/src/xmc_eth_phy_ksz8081rnb.o
 .comment       0x00000000       0x71 ./Libraries/XMCLib/src/xmc_eth_phy_ksz8081rnb.o
 .ARM.attributes
                0x00000000       0x37 ./Libraries/XMCLib/src/xmc_eth_phy_ksz8081rnb.o
 .text          0x00000000        0x0 ./Libraries/XMCLib/src/xmc_fce.o
 .data          0x00000000        0x0 ./Libraries/XMCLib/src/xmc_fce.o
 .bss           0x00000000        0x0 ./Libraries/XMCLib/src/xmc_fce.o
 .text.XMC_FCE_Disable
                0x00000000       0x28 ./Libraries/XMCLib/src/xmc_fce.o
 .text.XMC_FCE_CalculateCRC8
                0x00000000       0x58 ./Libraries/XMCLib/src/xmc_fce.o
 .text.XMC_FCE_CalculateCRC16
                0x00000000       0x60 ./Libraries/XMCLib/src/xmc_fce.o
 .text.XMC_FCE_CalculateCRC16Ex
                0x00000000       0x70 ./Libraries/XMCLib/src/xmc_fce.o
 .text.XMC_FCE_CalculateCRC32Ex
                0x00000000       0x68 ./Libraries/XMCLib/src/xmc_fce.o
 .text.XMC_FCE_TriggerMismatch
                0x00000000       0x4c ./Libraries/XMCLib/src/xmc_fce.o
 .text.XMC_FCE_LittleEndian16bit
                0x00000000       0xa0 ./Libraries/XMCLib/src/xmc_fce.o
 .text.XMC_FCE_LittleEndian32bit
                0x00000000       0xb4 ./Libraries/XMCLib/src/xmc_fce.o
 .comment       0x00000000       0x71 ./Libraries/XMCLib/src/xmc_fce.o
 .text          0x00000000        0x0 ./Libraries/XMCLib/src/xmc_gpio.o
 .data          0x00000000        0x0 ./Libraries/XMCLib/src/xmc_gpio.o
 .bss           0x00000000        0x0 ./Libraries/XMCLib/src/xmc_gpio.o
 .text.XMC_GPIO_SetMode
                0x00000000       0x80 ./Libraries/XMCLib/src/xmc_gpio.o
 .comment       0x00000000       0x71 ./Libraries/XMCLib/src/xmc_gpio.o
 .text          0x00000000        0x0 ./Libraries/XMCLib/src/xmc_hrpwm.o
 .data          0x00000000        0x0 ./Libraries/XMCLib/src/xmc_hrpwm.o
 .bss           0x00000000        0x0 ./Libraries/XMCLib/src/xmc_hrpwm.o
 .debug_info    0x00000000      0x16a ./Libraries/XMCLib/src/xmc_hrpwm.o
 .debug_abbrev  0x00000000       0xa2 ./Libraries/XMCLib/src/xmc_hrpwm.o
 .debug_aranges
                0x00000000       0x18 ./Libraries/XMCLib/src/xmc_hrpwm.o
 .debug_line    0x00000000      0x171 ./Libraries/XMCLib/src/xmc_hrpwm.o
 .debug_str     0x00000000      0x289 ./Libraries/XMCLib/src/xmc_hrpwm.o
 .comment       0x00000000       0x71 ./Libraries/XMCLib/src/xmc_hrpwm.o
 .ARM.attributes
                0x00000000       0x37 ./Libraries/XMCLib/src/xmc_hrpwm.o
 .text          0x00000000        0x0 ./Libraries/XMCLib/src/xmc_i2c.o
 .data          0x00000000        0x0 ./Libraries/XMCLib/src/xmc_i2c.o
 .bss           0x00000000        0x0 ./Libraries/XMCLib/src/xmc_i2c.o
 .text.XMC_USIC_CH_GetTransmitBufferStatus
                0x00000000       0x20 ./Libraries/XMCLib/src/xmc_i2c.o
 .text.XMC_USIC_CH_SetMode
                0x00000000       0x28 ./Libraries/XMCLib/src/xmc_i2c.o
 .text.XMC_I2C_CH_ClearStatusFlag
                0x00000000       0x20 ./Libraries/XMCLib/src/xmc_i2c.o
 .text.XMC_I2C_CH_InitEx
                0x00000000       0x60 ./Libraries/XMCLib/src/xmc_i2c.o
 .text.XMC_I2C_CH_SetSlaveAddress
                0x00000000       0x54 ./Libraries/XMCLib/src/xmc_i2c.o
 .text.XMC_I2C_CH_GetSlaveAddress
                0x00000000       0x40 ./Libraries/XMCLib/src/xmc_i2c.o
 .text.XMC_I2C_CH_SetBaudrate
                0x00000000       0x78 ./Libraries/XMCLib/src/xmc_i2c.o
 .text.XMC_I2C_CH_SetBaudrateEx
                0x00000000       0x9c ./Libraries/XMCLib/src/xmc_i2c.o
 .text.XMC_I2C_CH_MasterStart
                0x00000000       0x68 ./Libraries/XMCLib/src/xmc_i2c.o
 .text.XMC_I2C_CH_MasterRepeatedStart
                0x00000000       0x68 ./Libraries/XMCLib/src/xmc_i2c.o
 .text.XMC_I2C_CH_MasterStop
                0x00000000       0x4c ./Libraries/XMCLib/src/xmc_i2c.o
 .text.XMC_I2C_CH_MasterTransmit
                0x00000000       0x4c ./Libraries/XMCLib/src/xmc_i2c.o
 .text.XMC_I2C_CH_SlaveTransmit
                0x00000000       0x54 ./Libraries/XMCLib/src/xmc_i2c.o
 .text.XMC_I2C_CH_MasterReceiveAck
                0x00000000       0x4c ./Libraries/XMCLib/src/xmc_i2c.o
 .text.XMC_I2C_CH_MasterReceiveNack
                0x00000000       0x4c ./Libraries/XMCLib/src/xmc_i2c.o
 .text.XMC_I2C_CH_GetReceivedData
                0x00000000       0x34 ./Libraries/XMCLib/src/xmc_i2c.o
 .text.XMC_I2C_CH_Stop
                0x00000000       0x30 ./Libraries/XMCLib/src/xmc_i2c.o
 .text.XMC_I2C_CH_EnableEvent
                0x00000000       0x38 ./Libraries/XMCLib/src/xmc_i2c.o
 .text.XMC_I2C_CH_DisableEvent
                0x00000000       0x3c ./Libraries/XMCLib/src/xmc_i2c.o
 .debug_info    0x00000000      0xba3 ./Libraries/XMCLib/src/xmc_i2c.o
 .debug_abbrev  0x00000000      0x2af ./Libraries/XMCLib/src/xmc_i2c.o
 .debug_loc     0x00000000      0x650 ./Libraries/XMCLib/src/xmc_i2c.o
 .debug_aranges
                0x00000000       0xb0 ./Libraries/XMCLib/src/xmc_i2c.o
 .debug_ranges  0x00000000       0xa0 ./Libraries/XMCLib/src/xmc_i2c.o
 .debug_line    0x00000000      0x409 ./Libraries/XMCLib/src/xmc_i2c.o
 .debug_str     0x00000000      0xd5a ./Libraries/XMCLib/src/xmc_i2c.o
 .comment       0x00000000       0x71 ./Libraries/XMCLib/src/xmc_i2c.o
 .debug_frame   0x00000000      0x308 ./Libraries/XMCLib/src/xmc_i2c.o
 .ARM.attributes
                0x00000000       0x37 ./Libraries/XMCLib/src/xmc_i2c.o
 .text          0x00000000        0x0 ./Libraries/XMCLib/src/xmc_i2s.o
 .data          0x00000000        0x0 ./Libraries/XMCLib/src/xmc_i2s.o
 .bss           0x00000000        0x0 ./Libraries/XMCLib/src/xmc_i2s.o
 .text.XMC_USIC_CH_GetTransmitBufferStatus
                0x00000000       0x20 ./Libraries/XMCLib/src/xmc_i2s.o
 .text.XMC_USIC_CH_SetMode
                0x00000000       0x28 ./Libraries/XMCLib/src/xmc_i2s.o
 .text.XMC_I2S_CH_ClearStatusFlag
                0x00000000       0x20 ./Libraries/XMCLib/src/xmc_i2s.o
 .text.XMC_I2S_CH_InitEx
                0x00000000       0xb0 ./Libraries/XMCLib/src/xmc_i2s.o
 .text.XMC_I2S_CH_SetBaudrate
                0x00000000       0x4c ./Libraries/XMCLib/src/xmc_i2s.o
 .text.XMC_I2S_CH_SetBaudrateEx
                0x00000000       0x68 ./Libraries/XMCLib/src/xmc_i2s.o
 .text.XMC_I2S_CH_SetSystemWordLength
                0x00000000       0xb4 ./Libraries/XMCLib/src/xmc_i2s.o
 .text.XMC_I2S_CH_Transmit
                0x00000000       0x5c ./Libraries/XMCLib/src/xmc_i2s.o
 .text.XMC_I2S_CH_GetReceivedData
                0x00000000       0x34 ./Libraries/XMCLib/src/xmc_i2s.o
 .text.XMC_I2S_CH_Stop
                0x00000000       0x30 ./Libraries/XMCLib/src/xmc_i2s.o
 .text.XMC_I2S_CH_EnableEvent
                0x00000000       0x38 ./Libraries/XMCLib/src/xmc_i2s.o
 .text.XMC_I2S_CH_DisableEvent
                0x00000000       0x3c ./Libraries/XMCLib/src/xmc_i2s.o
 .debug_info    0x00000000      0xa4f ./Libraries/XMCLib/src/xmc_i2s.o
 .debug_abbrev  0x00000000      0x26a ./Libraries/XMCLib/src/xmc_i2s.o
 .debug_loc     0x00000000      0x414 ./Libraries/XMCLib/src/xmc_i2s.o
 .debug_aranges
                0x00000000       0x78 ./Libraries/XMCLib/src/xmc_i2s.o
 .debug_ranges  0x00000000       0x68 ./Libraries/XMCLib/src/xmc_i2s.o
 .debug_line    0x00000000      0x3f8 ./Libraries/XMCLib/src/xmc_i2s.o
 .debug_str     0x00000000      0xbf6 ./Libraries/XMCLib/src/xmc_i2s.o
 .comment       0x00000000       0x71 ./Libraries/XMCLib/src/xmc_i2s.o
 .debug_frame   0x00000000      0x1f0 ./Libraries/XMCLib/src/xmc_i2s.o
 .ARM.attributes
                0x00000000       0x37 ./Libraries/XMCLib/src/xmc_i2s.o
 .text          0x00000000        0x0 ./Libraries/XMCLib/src/xmc_ledts.o
 .data          0x00000000        0x0 ./Libraries/XMCLib/src/xmc_ledts.o
 .bss           0x00000000        0x0 ./Libraries/XMCLib/src/xmc_ledts.o
 .text.XMC_LEDTS_InitGlobal
                0x00000000       0x48 ./Libraries/XMCLib/src/xmc_ledts.o
 .text.XMC_LEDTS_InitLED
                0x00000000       0x50 ./Libraries/XMCLib/src/xmc_ledts.o
 .text.XMC_LEDTS_InitTSBasic
                0x00000000       0x58 ./Libraries/XMCLib/src/xmc_ledts.o
 .text.XMC_LEDTS_InitTSAdvanced
                0x00000000       0x6c ./Libraries/XMCLib/src/xmc_ledts.o
 .text.XMC_LEDTS_StartCounter
                0x00000000       0x24 ./Libraries/XMCLib/src/xmc_ledts.o
 .text.XMC_LEDTS_StopCounter
                0x00000000       0x1c ./Libraries/XMCLib/src/xmc_ledts.o
 .text.XMC_LEDTS_ReadInterruptFlag
                0x00000000       0x1c ./Libraries/XMCLib/src/xmc_ledts.o
 .text.XMC_LEDTS_SetActivePADNo
                0x00000000       0x34 ./Libraries/XMCLib/src/xmc_ledts.o
 .text.XMC_LEDTS_ClearInterruptFlag
                0x00000000       0x1c ./Libraries/XMCLib/src/xmc_ledts.o
 .text.XMC_LEDTS_SetLEDLinePattern
                0x00000000       0x6c ./Libraries/XMCLib/src/xmc_ledts.o
 .text.XMC_LEDTS_SetColumnBrightness
                0x00000000       0x6c ./Libraries/XMCLib/src/xmc_ledts.o
 .text.XMC_LEDTS_SetCommonOscillationWindow
                0x00000000       0x38 ./Libraries/XMCLib/src/xmc_ledts.o
 .text.XMC_LEDTS_ReadFNCOL
                0x00000000       0x28 ./Libraries/XMCLib/src/xmc_ledts.o
 .text.XMC_LEDTS_SetNumOfLEDColumns
                0x00000000       0x30 ./Libraries/XMCLib/src/xmc_ledts.o
 .text.XMC_LEDTS_ReadTSVAL
                0x00000000       0x1c ./Libraries/XMCLib/src/xmc_ledts.o
 .text.XMC_LEDTS_SetOscillationWindow
                0x00000000       0x6c ./Libraries/XMCLib/src/xmc_ledts.o
 .debug_info    0x00000000      0xc6e ./Libraries/XMCLib/src/xmc_ledts.o
 .debug_abbrev  0x00000000      0x249 ./Libraries/XMCLib/src/xmc_ledts.o
 .debug_loc     0x00000000      0x5b4 ./Libraries/XMCLib/src/xmc_ledts.o
 .debug_aranges
                0x00000000       0x98 ./Libraries/XMCLib/src/xmc_ledts.o
 .debug_ranges  0x00000000       0x88 ./Libraries/XMCLib/src/xmc_ledts.o
 .debug_line    0x00000000      0x401 ./Libraries/XMCLib/src/xmc_ledts.o
 .debug_str     0x00000000      0xe8d ./Libraries/XMCLib/src/xmc_ledts.o
 .comment       0x00000000       0x71 ./Libraries/XMCLib/src/xmc_ledts.o
 .debug_frame   0x00000000      0x290 ./Libraries/XMCLib/src/xmc_ledts.o
 .ARM.attributes
                0x00000000       0x37 ./Libraries/XMCLib/src/xmc_ledts.o
 .text          0x00000000        0x0 ./Libraries/XMCLib/src/xmc_posif.o
 .data          0x00000000        0x0 ./Libraries/XMCLib/src/xmc_posif.o
 .bss           0x00000000        0x0 ./Libraries/XMCLib/src/xmc_posif.o
 .debug_info    0x00000000      0x16a ./Libraries/XMCLib/src/xmc_posif.o
 .debug_abbrev  0x00000000       0xa2 ./Libraries/XMCLib/src/xmc_posif.o
 .debug_aranges
                0x00000000       0x18 ./Libraries/XMCLib/src/xmc_posif.o
 .debug_line    0x00000000      0x171 ./Libraries/XMCLib/src/xmc_posif.o
 .debug_str     0x00000000      0x289 ./Libraries/XMCLib/src/xmc_posif.o
 .comment       0x00000000       0x71 ./Libraries/XMCLib/src/xmc_posif.o
 .ARM.attributes
                0x00000000       0x37 ./Libraries/XMCLib/src/xmc_posif.o
 .text          0x00000000        0x0 ./Libraries/XMCLib/src/xmc_rtc.o
 .data          0x00000000        0x0 ./Libraries/XMCLib/src/xmc_rtc.o
 .bss           0x00000000        0x0 ./Libraries/XMCLib/src/xmc_rtc.o
 .text.XMC_SCU_GetMirrorStatus
                0x00000000       0x18 ./Libraries/XMCLib/src/xmc_rtc.o
 .text.XMC_RTC_Start
                0x00000000       0x28 ./Libraries/XMCLib/src/xmc_rtc.o
 .text.XMC_RTC_Stop
                0x00000000       0x28 ./Libraries/XMCLib/src/xmc_rtc.o
 .text.XMC_RTC_SetPrescaler
                0x00000000       0x34 ./Libraries/XMCLib/src/xmc_rtc.o
 .text.XMC_RTC_SetTime
                0x00000000       0x44 ./Libraries/XMCLib/src/xmc_rtc.o
 .text.XMC_RTC_GetTime
                0x00000000       0x28 ./Libraries/XMCLib/src/xmc_rtc.o
 .text.XMC_RTC_SetTimeStdFormat
                0x00000000       0xa4 ./Libraries/XMCLib/src/xmc_rtc.o
 .text.XMC_RTC_GetTimeStdFormat
                0x00000000       0x80 ./Libraries/XMCLib/src/xmc_rtc.o
 .text.XMC_RTC_SetAlarm
                0x00000000       0x44 ./Libraries/XMCLib/src/xmc_rtc.o
 .text.XMC_RTC_GetAlarm
                0x00000000       0x28 ./Libraries/XMCLib/src/xmc_rtc.o
 .text.XMC_RTC_SetAlarmStdFormat
                0x00000000       0x90 ./Libraries/XMCLib/src/xmc_rtc.o
 .text.XMC_RTC_GetAlarmStdFormat
                0x00000000       0x74 ./Libraries/XMCLib/src/xmc_rtc.o
 .text.XMC_RTC_GetEventStatus
                0x00000000       0x18 ./Libraries/XMCLib/src/xmc_rtc.o
 .debug_info    0x00000000      0x8c4 ./Libraries/XMCLib/src/xmc_rtc.o
 .debug_abbrev  0x00000000      0x23d ./Libraries/XMCLib/src/xmc_rtc.o
 .debug_loc     0x00000000      0x3e0 ./Libraries/XMCLib/src/xmc_rtc.o
 .debug_aranges
                0x00000000       0x80 ./Libraries/XMCLib/src/xmc_rtc.o
 .debug_ranges  0x00000000       0x70 ./Libraries/XMCLib/src/xmc_rtc.o
 .debug_line    0x00000000      0x414 ./Libraries/XMCLib/src/xmc_rtc.o
 .debug_str     0x00000000      0x582 ./Libraries/XMCLib/src/xmc_rtc.o
 .comment       0x00000000       0x71 ./Libraries/XMCLib/src/xmc_rtc.o
 .debug_frame   0x00000000      0x1f8 ./Libraries/XMCLib/src/xmc_rtc.o
 .ARM.attributes
                0x00000000       0x37 ./Libraries/XMCLib/src/xmc_rtc.o
 .text          0x00000000        0x0 ./Libraries/XMCLib/src/xmc_sdmmc.o
 .data          0x00000000        0x0 ./Libraries/XMCLib/src/xmc_sdmmc.o
 .bss           0x00000000        0x0 ./Libraries/XMCLib/src/xmc_sdmmc.o
 .text.XMC_SDMMC_GetPowerStatus
                0x00000000       0x2c ./Libraries/XMCLib/src/xmc_sdmmc.o
 .text.XMC_SDMMC_Enable
                0x00000000       0x20 ./Libraries/XMCLib/src/xmc_sdmmc.o
 .text.XMC_SDMMC_Disable
                0x00000000       0x20 ./Libraries/XMCLib/src/xmc_sdmmc.o
 .text.XMC_SDMMC_Init
                0x00000000       0x58 ./Libraries/XMCLib/src/xmc_sdmmc.o
 .text.XMC_SDMMC_EnableEventStatus
                0x00000000       0x3c ./Libraries/XMCLib/src/xmc_sdmmc.o
 .text.XMC_SDMMC_DisableEventStatus
                0x00000000       0x44 ./Libraries/XMCLib/src/xmc_sdmmc.o
 .text.XMC_SDMMC_EnableEvent
                0x00000000       0x40 ./Libraries/XMCLib/src/xmc_sdmmc.o
 .text.XMC_SDMMC_DisableEvent
                0x00000000       0x44 ./Libraries/XMCLib/src/xmc_sdmmc.o
 .text.XMC_SDMMC_ClearEvent
                0x00000000       0x28 ./Libraries/XMCLib/src/xmc_sdmmc.o
 .text.XMC_SDMMC_GetEvent
                0x00000000       0x54 ./Libraries/XMCLib/src/xmc_sdmmc.o
 .text.XMC_SDMMC_GetR2Response
                0x00000000       0x34 ./Libraries/XMCLib/src/xmc_sdmmc.o
 .text.XMC_SDMMC_SendCommand
                0x00000000       0x28 ./Libraries/XMCLib/src/xmc_sdmmc.o
 .text.XMC_SDMMC_SetDataTransferMode
                0x00000000       0x80 ./Libraries/XMCLib/src/xmc_sdmmc.o
 .debug_info    0x00000000      0xbfb ./Libraries/XMCLib/src/xmc_sdmmc.o
 .debug_abbrev  0x00000000      0x23c ./Libraries/XMCLib/src/xmc_sdmmc.o
 .debug_loc     0x00000000      0x47c ./Libraries/XMCLib/src/xmc_sdmmc.o
 .debug_aranges
                0x00000000       0x80 ./Libraries/XMCLib/src/xmc_sdmmc.o
 .debug_ranges  0x00000000       0x70 ./Libraries/XMCLib/src/xmc_sdmmc.o
 .debug_line    0x00000000      0x3a8 ./Libraries/XMCLib/src/xmc_sdmmc.o
 .debug_str     0x00000000     0x10de ./Libraries/XMCLib/src/xmc_sdmmc.o
 .comment       0x00000000       0x71 ./Libraries/XMCLib/src/xmc_sdmmc.o
 .debug_frame   0x00000000      0x218 ./Libraries/XMCLib/src/xmc_sdmmc.o
 .ARM.attributes
                0x00000000       0x37 ./Libraries/XMCLib/src/xmc_sdmmc.o
 .text          0x00000000        0x0 ./Libraries/XMCLib/src/xmc_spi.o
 .data          0x00000000        0x0 ./Libraries/XMCLib/src/xmc_spi.o
 .bss           0x00000000        0x0 ./Libraries/XMCLib/src/xmc_spi.o
 .text.XMC_USIC_CH_GetTransmitBufferStatus
                0x00000000       0x20 ./Libraries/XMCLib/src/xmc_spi.o
 .text.XMC_USIC_CH_SetMode
                0x00000000       0x28 ./Libraries/XMCLib/src/xmc_spi.o
 .text.XMC_SPI_CH_ClearStatusFlag
                0x00000000       0x20 ./Libraries/XMCLib/src/xmc_spi.o
 .text.XMC_SPI_CH_SetBaudrate
                0x00000000       0x3c ./Libraries/XMCLib/src/xmc_spi.o
 .text.XMC_SPI_CH_SetBaudrateEx
                0x00000000       0x54 ./Libraries/XMCLib/src/xmc_spi.o
 .text.XMC_SPI_CH_EnableSlaveSelect
                0x00000000       0x2c ./Libraries/XMCLib/src/xmc_spi.o
 .text.XMC_SPI_CH_DisableSlaveSelect
                0x00000000       0x24 ./Libraries/XMCLib/src/xmc_spi.o
 .text.XMC_SPI_CH_Transmit
                0x00000000       0x6c ./Libraries/XMCLib/src/xmc_spi.o
 .text.XMC_SPI_CH_SetInterwordDelay
                0x00000000      0x130 ./Libraries/XMCLib/src/xmc_spi.o
 .text.XMC_SPI_CH_Stop
                0x00000000       0x30 ./Libraries/XMCLib/src/xmc_spi.o
 .comment       0x00000000       0x71 ./Libraries/XMCLib/src/xmc_spi.o
 .text          0x00000000        0x0 ./Libraries/XMCLib/src/xmc_uart.o
 .data          0x00000000        0x0 ./Libraries/XMCLib/src/xmc_uart.o
 .bss           0x00000000        0x0 ./Libraries/XMCLib/src/xmc_uart.o
 .text.XMC_USIC_CH_GetTransmitBufferStatus
                0x00000000       0x20 ./Libraries/XMCLib/src/xmc_uart.o
 .text.XMC_USIC_CH_SetMode
                0x00000000       0x28 ./Libraries/XMCLib/src/xmc_uart.o
 .text.XMC_UART_CH_GetStatusFlag
                0x00000000       0x18 ./Libraries/XMCLib/src/xmc_uart.o
 .text.XMC_UART_CH_ClearStatusFlag
                0x00000000       0x1c ./Libraries/XMCLib/src/xmc_uart.o
 .text.XMC_UART_CH_InitEx
                0x00000000       0xd4 ./Libraries/XMCLib/src/xmc_uart.o
 .text.XMC_UART_CH_SetBaudrate
                0x00000000       0x44 ./Libraries/XMCLib/src/xmc_uart.o
 .text.XMC_UART_CH_SetBaudrateEx
                0x00000000       0x5c ./Libraries/XMCLib/src/xmc_uart.o
 .text.XMC_UART_CH_Transmit
                0x00000000       0x4c ./Libraries/XMCLib/src/xmc_uart.o
 .text.XMC_UART_CH_GetReceivedData
                0x00000000       0x34 ./Libraries/XMCLib/src/xmc_uart.o
 .text.XMC_UART_CH_Stop
                0x00000000       0x44 ./Libraries/XMCLib/src/xmc_uart.o
 .text.XMC_UART_CH_EnableEvent
                0x00000000       0x34 ./Libraries/XMCLib/src/xmc_uart.o
 .text.XMC_UART_CH_DisableEvent
                0x00000000       0x38 ./Libraries/XMCLib/src/xmc_uart.o
 .debug_info    0x00000000      0x9d2 ./Libraries/XMCLib/src/xmc_uart.o
 .debug_abbrev  0x00000000      0x225 ./Libraries/XMCLib/src/xmc_uart.o
 .debug_loc     0x00000000      0x414 ./Libraries/XMCLib/src/xmc_uart.o
 .debug_aranges
                0x00000000       0x78 ./Libraries/XMCLib/src/xmc_uart.o
 .debug_ranges  0x00000000       0x68 ./Libraries/XMCLib/src/xmc_uart.o
 .debug_line    0x00000000      0x3da ./Libraries/XMCLib/src/xmc_uart.o
 .debug_str     0x00000000      0xbc5 ./Libraries/XMCLib/src/xmc_uart.o
 .comment       0x00000000       0x71 ./Libraries/XMCLib/src/xmc_uart.o
 .debug_frame   0x00000000      0x1f0 ./Libraries/XMCLib/src/xmc_uart.o
 .ARM.attributes
                0x00000000       0x37 ./Libraries/XMCLib/src/xmc_uart.o
 .text          0x00000000        0x0 ./Libraries/XMCLib/src/xmc_usbd.o
 .data          0x00000000        0x0 ./Libraries/XMCLib/src/xmc_usbd.o
 .bss           0x00000000        0x0 ./Libraries/XMCLib/src/xmc_usbd.o
 .bss.XMC_USBD_EP_OUT_BUFFERSIZE
                0x00000000       0x1c ./Libraries/XMCLib/src/xmc_usbd.o
 .bss.XMC_USBD_EP_IN_BUFFERSIZE
                0x00000000       0x1c ./Libraries/XMCLib/src/xmc_usbd.o
 USB_RAM        0x00000000      0xe00 ./Libraries/XMCLib/src/xmc_usbd.o
 .bss.usbd_init
                0x00000000        0x4 ./Libraries/XMCLib/src/xmc_usbd.o
 .rodata.Driver_USBD0
                0x00000000       0x40 ./Libraries/XMCLib/src/xmc_usbd.o
 .text.XMC_USBD_lDeviceActive
                0x00000000       0x6c ./Libraries/XMCLib/src/xmc_usbd.o
 .text.XMC_USBD_lReadFifo
                0x00000000       0xe8 ./Libraries/XMCLib/src/xmc_usbd.o
 .text.XMC_USBD_lWriteFifo
                0x00000000       0xa4 ./Libraries/XMCLib/src/xmc_usbd.o
 .text.XMC_USBD_lFlushTXFifo
                0x00000000       0x84 ./Libraries/XMCLib/src/xmc_usbd.o
 .text.XMC_USBD_lFlushRXFifo
                0x00000000       0x68 ./Libraries/XMCLib/src/xmc_usbd.o
 .text.XMC_USBD_lAssignTXFifo
                0x00000000       0x70 ./Libraries/XMCLib/src/xmc_usbd.o
 .text.XMC_USBD_lUnassignFifo
                0x00000000       0x38 ./Libraries/XMCLib/src/xmc_usbd.o
 .text.XMC_USBD_lStartReadXfer
                0x00000000      0x178 ./Libraries/XMCLib/src/xmc_usbd.o
 .text.XMC_USBD_lStartWriteXfer
                0x00000000      0x194 ./Libraries/XMCLib/src/xmc_usbd.o
 .text.XMC_USBD_lHandleUSBReset
                0x00000000      0x14c ./Libraries/XMCLib/src/xmc_usbd.o
 .text.XMC_USBD_lHandleOTGInt
                0x00000000       0x48 ./Libraries/XMCLib/src/xmc_usbd.o
 .text.XMC_USBD_lHandleEnumDone
                0x00000000       0x78 ./Libraries/XMCLib/src/xmc_usbd.o
 .text.XMC_USBD_lHandleOEPInt
                0x00000000      0x1b8 ./Libraries/XMCLib/src/xmc_usbd.o
 .text.XMC_USBD_lHandleIEPInt
                0x00000000      0x1b8 ./Libraries/XMCLib/src/xmc_usbd.o
 .text.XMC_USBD_lHandleRxFLvl
                0x00000000       0x80 ./Libraries/XMCLib/src/xmc_usbd.o
 .text.XMC_USBD_IRQHandler
                0x00000000      0x14c ./Libraries/XMCLib/src/xmc_usbd.o
 .text.XMC_USBD_Enable
                0x00000000       0x1c ./Libraries/XMCLib/src/xmc_usbd.o
 .text.XMC_USBD_Disable
                0x00000000       0x1c ./Libraries/XMCLib/src/xmc_usbd.o
 .text.XMC_USBD_ClearEvent
                0x00000000       0xc8 ./Libraries/XMCLib/src/xmc_usbd.o
 .text.XMC_USBD_lClearEventOTG
                0x00000000       0x28 ./Libraries/XMCLib/src/xmc_usbd.o
 .text.XMC_USBD_ClearEventINEP
                0x00000000       0x2c ./Libraries/XMCLib/src/xmc_usbd.o
 .text.XMC_USBD_ClearEventOUTEP
                0x00000000       0x30 ./Libraries/XMCLib/src/xmc_usbd.o
 .text.XMC_USBD_EnableEventOUTEP
                0x00000000       0x30 ./Libraries/XMCLib/src/xmc_usbd.o
 .text.XMC_USBD_EnableEventINEP
                0x00000000       0x30 ./Libraries/XMCLib/src/xmc_usbd.o
 .text.XMC_USBD_GetCapabilities
                0x00000000       0x68 ./Libraries/XMCLib/src/xmc_usbd.o
 .text.XMC_USBD_Init
                0x00000000      0x23c ./Libraries/XMCLib/src/xmc_usbd.o
 .text.XMC_USBD_Uninitialize
                0x00000000       0x3c ./Libraries/XMCLib/src/xmc_usbd.o
 .text.XMC_USBD_DeviceConnect
                0x00000000       0x34 ./Libraries/XMCLib/src/xmc_usbd.o
 .text.XMC_USBD_DeviceDisconnect
                0x00000000       0x34 ./Libraries/XMCLib/src/xmc_usbd.o
 .text.XMC_USBD_DeviceGetState
                0x00000000       0x64 ./Libraries/XMCLib/src/xmc_usbd.o
 .text.XMC_USBD_EndpointReadStart
                0x00000000       0x8c ./Libraries/XMCLib/src/xmc_usbd.o
 .text.XMC_USBD_EndpointRead
                0x00000000       0x78 ./Libraries/XMCLib/src/xmc_usbd.o
 .text.XMC_USBD_EndpointWrite
                0x00000000       0xa8 ./Libraries/XMCLib/src/xmc_usbd.o
 .text.XMC_USBD_DeviceSetAddress
                0x00000000       0x4c ./Libraries/XMCLib/src/xmc_usbd.o
 .text.XMC_USBD_EndpointStall
                0x00000000      0x14c ./Libraries/XMCLib/src/xmc_usbd.o
 .text.XMC_USBD_EndpointAbort
                0x00000000       0x88 ./Libraries/XMCLib/src/xmc_usbd.o
 .text.XMC_USBD_EndpointConfigure
                0x00000000      0x2f4 ./Libraries/XMCLib/src/xmc_usbd.o
 .text.XMC_USBD_EndpointUnconfigure
                0x00000000      0x170 ./Libraries/XMCLib/src/xmc_usbd.o
 .text.XMC_USBD_GetFrameNumber
                0x00000000       0x2c ./Libraries/XMCLib/src/xmc_usbd.o
 .text.XMC_USBD_IsEnumDone
                0x00000000       0x38 ./Libraries/XMCLib/src/xmc_usbd.o
 .debug_info    0x00000000     0x3874 ./Libraries/XMCLib/src/xmc_usbd.o
 .debug_abbrev  0x00000000      0x3c2 ./Libraries/XMCLib/src/xmc_usbd.o
 .debug_loc     0x00000000      0xd34 ./Libraries/XMCLib/src/xmc_usbd.o
 .debug_aranges
                0x00000000      0x158 ./Libraries/XMCLib/src/xmc_usbd.o
 .debug_ranges  0x00000000      0x148 ./Libraries/XMCLib/src/xmc_usbd.o
 .debug_line    0x00000000      0x923 ./Libraries/XMCLib/src/xmc_usbd.o
 .debug_str     0x00000000     0x2637 ./Libraries/XMCLib/src/xmc_usbd.o
 .comment       0x00000000       0x71 ./Libraries/XMCLib/src/xmc_usbd.o
 .debug_frame   0x00000000      0x634 ./Libraries/XMCLib/src/xmc_usbd.o
 .ARM.attributes
                0x00000000       0x37 ./Libraries/XMCLib/src/xmc_usbd.o
 COMMON         0x00000000      0x208 ./Libraries/XMCLib/src/xmc_usbd.o
 .text          0x00000000        0x0 ./Libraries/XMCLib/src/xmc_usbh.o
 .data          0x00000000        0x0 ./Libraries/XMCLib/src/xmc_usbh.o
 .bss           0x00000000        0x0 ./Libraries/XMCLib/src/xmc_usbh.o
 .text.__NVIC_EnableIRQ
                0x00000000       0x38 ./Libraries/XMCLib/src/xmc_usbh.o
 .text.__NVIC_DisableIRQ
                0x00000000       0x44 ./Libraries/XMCLib/src/xmc_usbh.o
 .text.__NVIC_ClearPendingIRQ
                0x00000000       0x3c ./Libraries/XMCLib/src/xmc_usbh.o
 .text.__NVIC_SetPriority
                0x00000000       0x54 ./Libraries/XMCLib/src/xmc_usbh.o
 .rodata.xmc_usbh_driver_version
                0x00000000        0x4 ./Libraries/XMCLib/src/xmc_usbh.o
 .data.VBUS_port
                0x00000000        0x4 ./Libraries/XMCLib/src/xmc_usbh.o
 .data.VBUS_pin
                0x00000000        0x4 ./Libraries/XMCLib/src/xmc_usbh.o
 .bss.is_nack   0x00000000       0x10 ./Libraries/XMCLib/src/xmc_usbh.o
 .rodata.xmc_usbh_driver_capabilities
                0x00000000        0x4 ./Libraries/XMCLib/src/xmc_usbh.o
 .data.XMC_USBH0_device
                0x00000000       0x14 ./Libraries/XMCLib/src/xmc_usbh.o
 .bss.pipe      0x00000000      0x1c0 ./Libraries/XMCLib/src/xmc_usbh.o
 .bss.XMC_USBH0_dfifo_ptr
                0x00000000       0x38 ./Libraries/XMCLib/src/xmc_usbh.o
 .text.XMC_lClockGating
                0x00000000       0x30 ./Libraries/XMCLib/src/xmc_usbh.o
 .text.XMC_lTriggerHaltChannel
                0x00000000       0x28 ./Libraries/XMCLib/src/xmc_usbh.o
 .text.XMC_lStartTransfer
                0x00000000      0x268 ./Libraries/XMCLib/src/xmc_usbh.o
 .text.XMC_USBH_GetVersion
                0x00000000       0x2c ./Libraries/XMCLib/src/xmc_usbh.o
 .text.XMC_USBH_GetCapabilities
                0x00000000       0x24 ./Libraries/XMCLib/src/xmc_usbh.o
 .text.XMC_USBH_Initialize
                0x00000000       0x7c ./Libraries/XMCLib/src/xmc_usbh.o
 .text.XMC_USBH_Uninitialize
                0x00000000       0x1c ./Libraries/XMCLib/src/xmc_usbh.o
 .text.XMC_USBH_PowerControl
                0x00000000      0x1fc ./Libraries/XMCLib/src/xmc_usbh.o
 .text.XMC_USBH_PortVbusOnOff
                0x00000000       0xa0 ./Libraries/XMCLib/src/xmc_usbh.o
 .text.XMC_USBH_PortReset
                0x00000000       0xa8 ./Libraries/XMCLib/src/xmc_usbh.o
 .text.XMC_USBH_PortSuspend
                0x00000000       0x78 ./Libraries/XMCLib/src/xmc_usbh.o
 .text.XMC_USBH_PortResume
                0x00000000       0x94 ./Libraries/XMCLib/src/xmc_usbh.o
 .text.XMC_USBH_PortGetState
                0x00000000       0x8c ./Libraries/XMCLib/src/xmc_usbh.o
 .text.XMC_USBH_PipeCreate
                0x00000000      0x148 ./Libraries/XMCLib/src/xmc_usbh.o
 .text.XMC_USBH_PipeModify
                0x00000000       0xac ./Libraries/XMCLib/src/xmc_usbh.o
 .text.XMC_USBH_PipeDelete
                0x00000000       0x84 ./Libraries/XMCLib/src/xmc_usbh.o
 .text.XMC_USBH_PipeReset
                0x00000000       0x78 ./Libraries/XMCLib/src/xmc_usbh.o
 .text.XMC_USBH_PipeTransfer
                0x00000000      0x118 ./Libraries/XMCLib/src/xmc_usbh.o
 .text.XMC_USBH_PipeTransferGetResult
                0x00000000       0x40 ./Libraries/XMCLib/src/xmc_usbh.o
 .text.XMC_USBH_PipeTransferAbort
                0x00000000       0xd8 ./Libraries/XMCLib/src/xmc_usbh.o
 .text.XMC_USBH_GetFrameNumber
                0x00000000       0x38 ./Libraries/XMCLib/src/xmc_usbh.o
 .text.XMC_USBH_HandleIrq
                0x00000000      0x668 ./Libraries/XMCLib/src/xmc_usbh.o
 .text.XMC_USBH_GetInterruptStatus
                0x00000000       0x18 ./Libraries/XMCLib/src/xmc_usbh.o
 .text.XMC_USBH_Select_VBUS
                0x00000000       0x38 ./Libraries/XMCLib/src/xmc_usbh.o
 .text.XMC_USBH_TurnOffResumeBit
                0x00000000       0x38 ./Libraries/XMCLib/src/xmc_usbh.o
 .rodata.Driver_USBH0
                0x00000000       0x48 ./Libraries/XMCLib/src/xmc_usbh.o
 .text.XMC_USBH_osDelay
                0x00000000        0xc ./Libraries/XMCLib/src/xmc_usbh.o
 .debug_info    0x00000000     0x1f3e ./Libraries/XMCLib/src/xmc_usbh.o
 .debug_abbrev  0x00000000      0x37e ./Libraries/XMCLib/src/xmc_usbh.o
 .debug_loc     0x00000000      0x9ac ./Libraries/XMCLib/src/xmc_usbh.o
 .debug_aranges
                0x00000000      0x108 ./Libraries/XMCLib/src/xmc_usbh.o
 .debug_ranges  0x00000000       0xf8 ./Libraries/XMCLib/src/xmc_usbh.o
 .debug_line    0x00000000      0x82a ./Libraries/XMCLib/src/xmc_usbh.o
 .debug_str     0x00000000     0x1a32 ./Libraries/XMCLib/src/xmc_usbh.o
 .comment       0x00000000       0x71 ./Libraries/XMCLib/src/xmc_usbh.o
 .debug_frame   0x00000000      0x4a4 ./Libraries/XMCLib/src/xmc_usbh.o
 .ARM.attributes
                0x00000000       0x37 ./Libraries/XMCLib/src/xmc_usbh.o
 .text          0x00000000        0x0 ./Libraries/XMCLib/src/xmc_usic.o
 .data          0x00000000        0x0 ./Libraries/XMCLib/src/xmc_usic.o
 .bss           0x00000000        0x0 ./Libraries/XMCLib/src/xmc_usic.o
 .text.XMC_USIC_CH_SetInputTriggerCombinationMode
                0x00000000       0x3c ./Libraries/XMCLib/src/xmc_usic.o
 .text.XMC_USIC_CH_SetBRGInputClockSource
                0x00000000       0x28 ./Libraries/XMCLib/src/xmc_usic.o
 .text.XMC_USIC_CH_Disable
                0x00000000       0x24 ./Libraries/XMCLib/src/xmc_usic.o
 .text.XMC_USIC_CH_SetBaudrateDivider
                0x00000000       0x64 ./Libraries/XMCLib/src/xmc_usic.o
 .text.XMC_USIC_CH_GetBaudrate
                0x00000000      0x128 ./Libraries/XMCLib/src/xmc_usic.o
 .text.XMC_USIC_CH_GetSCLKFrequency
                0x00000000       0xd8 ./Libraries/XMCLib/src/xmc_usic.o
 .text.XMC_USIC_CH_GetMCLKFrequency
                0x00000000       0xa0 ./Libraries/XMCLib/src/xmc_usic.o
 .text.XMC_USIC_CH_ConfigExternalInputSignalToBRG
                0x00000000       0x50 ./Libraries/XMCLib/src/xmc_usic.o
 .text.XMC_USIC_CH_TXFIFO_Configure
                0x00000000       0x50 ./Libraries/XMCLib/src/xmc_usic.o
 .text.XMC_USIC_CH_RXFIFO_Configure
                0x00000000       0x54 ./Libraries/XMCLib/src/xmc_usic.o
 .text.XMC_USIC_CH_TXFIFO_SetSizeTriggerLimit
                0x00000000       0x30 ./Libraries/XMCLib/src/xmc_usic.o
 .text.XMC_USIC_CH_RXFIFO_SetSizeTriggerLimit
                0x00000000       0x30 ./Libraries/XMCLib/src/xmc_usic.o
 .text.XMC_USIC_CH_TXFIFO_SetInterruptNodePointer
                0x00000000       0x3c ./Libraries/XMCLib/src/xmc_usic.o
 .text.XMC_USIC_CH_RXFIFO_SetInterruptNodePointer
                0x00000000       0x3c ./Libraries/XMCLib/src/xmc_usic.o
 .text.XMC_USIC_Disable
                0x00000000       0x48 ./Libraries/XMCLib/src/xmc_usic.o
 .comment       0x00000000       0x71 ./Libraries/XMCLib/src/xmc_usic.o
 .text          0x00000000        0x0 ./Libraries/XMCLib/src/xmc_vadc.o
 .data          0x00000000        0x0 ./Libraries/XMCLib/src/xmc_vadc.o
 .bss           0x00000000        0x0 ./Libraries/XMCLib/src/xmc_vadc.o
 .text.XMC_VADC_GROUP_ExternalMuxControlInit
                0x00000000       0x7c ./Libraries/XMCLib/src/xmc_vadc.o
 .text.XMC_VADC_GROUP_ScanEnableArbitrationSlot
                0x00000000       0x24 ./Libraries/XMCLib/src/xmc_vadc.o
 .text.XMC_VADC_GROUP_ScanDisableArbitrationSlot
                0x00000000       0x24 ./Libraries/XMCLib/src/xmc_vadc.o
 .text.XMC_VADC_GROUP_BackgroundEnableArbitrationSlot
                0x00000000       0x24 ./Libraries/XMCLib/src/xmc_vadc.o
 .text.XMC_VADC_GROUP_BackgroundDisableArbitrationSlot
                0x00000000       0x24 ./Libraries/XMCLib/src/xmc_vadc.o
 .text.XMC_VADC_GROUP_QueueEnableArbitrationSlot
                0x00000000       0x24 ./Libraries/XMCLib/src/xmc_vadc.o
 .text.XMC_VADC_GROUP_QueueDisableArbitrationSlot
                0x00000000       0x24 ./Libraries/XMCLib/src/xmc_vadc.o
 .text.XMC_VADC_GROUP_QueueFlushEntries
                0x00000000       0x34 ./Libraries/XMCLib/src/xmc_vadc.o
 .rodata.g_xmc_vadc_group_array
                0x00000000        0x8 ./Libraries/XMCLib/src/xmc_vadc.o
 .text.XMC_VADC_GLOBAL_EnableModule
                0x00000000       0x14 ./Libraries/XMCLib/src/xmc_vadc.o
 .text.XMC_VADC_GLOBAL_DisableModule
                0x00000000       0x14 ./Libraries/XMCLib/src/xmc_vadc.o
 .text.XMC_VADC_GLOBAL_Init
                0x00000000       0x54 ./Libraries/XMCLib/src/xmc_vadc.o
 .text.XMC_VADC_GLOBAL_InputClassInit
                0x00000000       0x48 ./Libraries/XMCLib/src/xmc_vadc.o
 .text.XMC_VADC_GLOBAL_StartupCalibration
                0x00000000       0x64 ./Libraries/XMCLib/src/xmc_vadc.o
 .text.XMC_VADC_GLOBAL_SetBoundaries
                0x00000000       0x34 ./Libraries/XMCLib/src/xmc_vadc.o
 .text.XMC_VADC_GLOBAL_SetIndividualBoundary
                0x00000000       0x64 ./Libraries/XMCLib/src/xmc_vadc.o
 .text.XMC_VADC_GLOBAL_SetCompareValue
                0x00000000       0x38 ./Libraries/XMCLib/src/xmc_vadc.o
 .text.XMC_VADC_GLOBAL_GetCompareResult
                0x00000000       0x38 ./Libraries/XMCLib/src/xmc_vadc.o
 .text.XMC_VADC_GLOBAL_BindGroupToEMux
                0x00000000       0x58 ./Libraries/XMCLib/src/xmc_vadc.o
 .text.XMC_VADC_GLOBAL_SetResultEventInterruptNode
                0x00000000       0x4c ./Libraries/XMCLib/src/xmc_vadc.o
 .text.XMC_VADC_GLOBAL_BackgroundSetReqSrcEventInterruptNode
                0x00000000       0x48 ./Libraries/XMCLib/src/xmc_vadc.o
 .text.XMC_VADC_GROUP_Init
                0x00000000       0x68 ./Libraries/XMCLib/src/xmc_vadc.o
 .text.XMC_VADC_GROUP_InputClassInit
                0x00000000       0xb8 ./Libraries/XMCLib/src/xmc_vadc.o
 .text.XMC_VADC_GROUP_SetPowerMode
                0x00000000       0x38 ./Libraries/XMCLib/src/xmc_vadc.o
 .text.XMC_VADC_GROUP_SetSyncSlave
                0x00000000       0x44 ./Libraries/XMCLib/src/xmc_vadc.o
 .text.XMC_VADC_GROUP_SetSyncMaster
                0x00000000       0x2c ./Libraries/XMCLib/src/xmc_vadc.o
 .text.XMC_VADC_GROUP_CheckSlaveReadiness
                0x00000000       0x68 ./Libraries/XMCLib/src/xmc_vadc.o
 .text.XMC_VADC_GROUP_IgnoreSlaveReadiness
                0x00000000       0x68 ./Libraries/XMCLib/src/xmc_vadc.o
 .text.XMC_VADC_GROUP_SetSyncSlaveReadySignal
                0x00000000       0x3c ./Libraries/XMCLib/src/xmc_vadc.o
 .text.XMC_VADC_GROUP_EnableChannelSyncRequest
                0x00000000       0x40 ./Libraries/XMCLib/src/xmc_vadc.o
 .text.XMC_VADC_GROUP_DisableChannelSyncRequest
                0x00000000       0x40 ./Libraries/XMCLib/src/xmc_vadc.o
 .text.XMC_VADC_GROUP_IsConverterBusy
                0x00000000       0x30 ./Libraries/XMCLib/src/xmc_vadc.o
 .text.XMC_VADC_GROUP_SetBoundaries
                0x00000000       0x50 ./Libraries/XMCLib/src/xmc_vadc.o
 .text.XMC_VADC_GROUP_SetIndividualBoundary
                0x00000000       0x64 ./Libraries/XMCLib/src/xmc_vadc.o
 .text.XMC_VADC_GROUP_TriggerServiceRequest
                0x00000000       0x50 ./Libraries/XMCLib/src/xmc_vadc.o
 .text.XMC_VADC_GROUP_SetBoundaryEventInterruptNode
                0x00000000       0x50 ./Libraries/XMCLib/src/xmc_vadc.o
 .text.XMC_VADC_GROUP_ScanInit
                0x00000000       0x9c ./Libraries/XMCLib/src/xmc_vadc.o
 .text.XMC_VADC_GROUP_ScanSelectTrigger
                0x00000000       0x40 ./Libraries/XMCLib/src/xmc_vadc.o
 .text.XMC_VADC_GROUP_ScanSelectTriggerEdge
                0x00000000       0x40 ./Libraries/XMCLib/src/xmc_vadc.o
 .text.XMC_VADC_GROUP_ScanSelectGating
                0x00000000       0x40 ./Libraries/XMCLib/src/xmc_vadc.o
 .text.XMC_VADC_GROUP_ScanSequenceAbort
                0x00000000       0x80 ./Libraries/XMCLib/src/xmc_vadc.o
 .text.XMC_VADC_GROUP_ScanGetNumChannelsPending
                0x00000000       0x54 ./Libraries/XMCLib/src/xmc_vadc.o
 .text.XMC_VADC_GROUP_ScanSetReqSrcEventInterruptNode
                0x00000000       0x38 ./Libraries/XMCLib/src/xmc_vadc.o
 .text.XMC_VADC_GROUP_ScanRemoveChannel
                0x00000000       0x38 ./Libraries/XMCLib/src/xmc_vadc.o
 .text.XMC_VADC_GLOBAL_BackgroundInit
                0x00000000       0xfc ./Libraries/XMCLib/src/xmc_vadc.o
 .text.XMC_VADC_GLOBAL_BackgroundSelectTrigger
                0x00000000       0x40 ./Libraries/XMCLib/src/xmc_vadc.o
 .text.XMC_VADC_GLOBAL_BackgroundSelectTriggerEdge
                0x00000000       0x40 ./Libraries/XMCLib/src/xmc_vadc.o
 .text.XMC_VADC_GLOBAL_BackgroundSelectGating
                0x00000000       0x40 ./Libraries/XMCLib/src/xmc_vadc.o
 .text.XMC_VADC_GLOBAL_BackgroundAbortSequence
                0x00000000       0xb0 ./Libraries/XMCLib/src/xmc_vadc.o
 .text.XMC_VADC_GLOBAL_BackgroundGetNumChannelsPending
                0x00000000       0x70 ./Libraries/XMCLib/src/xmc_vadc.o
 .text.XMC_VADC_GROUP_QueueInit
                0x00000000       0x9c ./Libraries/XMCLib/src/xmc_vadc.o
 .text.XMC_VADC_GROUP_QueueSelectTrigger
                0x00000000       0x40 ./Libraries/XMCLib/src/xmc_vadc.o
 .text.XMC_VADC_GROUP_QueueSelectTriggerEdge
                0x00000000       0x40 ./Libraries/XMCLib/src/xmc_vadc.o
 .text.XMC_VADC_GROUP_QueueSelectGating
                0x00000000       0x40 ./Libraries/XMCLib/src/xmc_vadc.o
 .text.XMC_VADC_GROUP_QueueGetLength
                0x00000000       0x50 ./Libraries/XMCLib/src/xmc_vadc.o
 .text.XMC_VADC_GROUP_QueueAbortSequence
                0x00000000       0x68 ./Libraries/XMCLib/src/xmc_vadc.o
 .text.XMC_VADC_GROUP_QueueRemoveChannel
                0x00000000       0x98 ./Libraries/XMCLib/src/xmc_vadc.o
 .text.XMC_VADC_GROUP_QueueGetNextChannel
                0x00000000       0x54 ./Libraries/XMCLib/src/xmc_vadc.o
 .text.XMC_VADC_GROUP_QueueGetInterruptedChannel
                0x00000000       0x38 ./Libraries/XMCLib/src/xmc_vadc.o
 .text.XMC_VADC_GROUP_QueueSetReqSrcEventInterruptNode
                0x00000000       0x38 ./Libraries/XMCLib/src/xmc_vadc.o
 .text.XMC_VADC_GROUP_ChannelInit
                0x00000000       0xdc ./Libraries/XMCLib/src/xmc_vadc.o
 .text.XMC_VADC_GROUP_ChannelIsResultOutOfBounds
                0x00000000       0x60 ./Libraries/XMCLib/src/xmc_vadc.o
 .text.XMC_VADC_GROUP_ChannelSetInputReference
                0x00000000       0x44 ./Libraries/XMCLib/src/xmc_vadc.o
 .text.XMC_VADC_GROUP_ChannelSetResultRegister
                0x00000000       0x40 ./Libraries/XMCLib/src/xmc_vadc.o
 .text.XMC_VADC_GROUP_ChannelSetIclass
                0x00000000       0x40 ./Libraries/XMCLib/src/xmc_vadc.o
 .text.XMC_VADC_GROUP_ChannelGetResultRegister
                0x00000000       0x2c ./Libraries/XMCLib/src/xmc_vadc.o
 .text.XMC_VADC_GROUP_ChannelTriggerEvent
                0x00000000       0x34 ./Libraries/XMCLib/src/xmc_vadc.o
 .text.XMC_VADC_GROUP_ChannelSetEventInterruptNode
                0x00000000       0x48 ./Libraries/XMCLib/src/xmc_vadc.o
 .text.XMC_VADC_GROUP_ChannelTriggerEventGenCriteria
                0x00000000       0x44 ./Libraries/XMCLib/src/xmc_vadc.o
 .text.XMC_VADC_GROUP_ChannelSetBoundarySelection
                0x00000000       0x64 ./Libraries/XMCLib/src/xmc_vadc.o
 .text.XMC_VADC_GROUP_AddResultToFifo
                0x00000000       0x3c ./Libraries/XMCLib/src/xmc_vadc.o
 .text.XMC_VADC_GROUP_SetResultFastCompareValue
                0x00000000       0x44 ./Libraries/XMCLib/src/xmc_vadc.o
 .text.XMC_VADC_GROUP_GetFastCompareResult
                0x00000000       0x3c ./Libraries/XMCLib/src/xmc_vadc.o
 .text.XMC_VADC_GROUP_SetResultSubtractionValue
                0x00000000       0x38 ./Libraries/XMCLib/src/xmc_vadc.o
 .text.XMC_VADC_GROUP_SetResultInterruptNode
                0x00000000       0x90 ./Libraries/XMCLib/src/xmc_vadc.o
 .text.XMC_VADC_GROUP_GetResultFifoTail
                0x00000000       0x8c ./Libraries/XMCLib/src/xmc_vadc.o
 .text.XMC_VADC_GROUP_GetResultFifoHead
                0x00000000       0x60 ./Libraries/XMCLib/src/xmc_vadc.o
 .text.XMC_VADC_GROUP_IsResultRegisterFifoHead
                0x00000000       0x60 ./Libraries/XMCLib/src/xmc_vadc.o
 .debug_info    0x00000000     0x30e8 ./Libraries/XMCLib/src/xmc_vadc.o
 .debug_abbrev  0x00000000      0x282 ./Libraries/XMCLib/src/xmc_vadc.o
 .debug_loc     0x00000000     0x1ac8 ./Libraries/XMCLib/src/xmc_vadc.o
 .debug_aranges
                0x00000000      0x280 ./Libraries/XMCLib/src/xmc_vadc.o
 .debug_ranges  0x00000000      0x270 ./Libraries/XMCLib/src/xmc_vadc.o
 .debug_line    0x00000000      0xb33 ./Libraries/XMCLib/src/xmc_vadc.o
 .debug_str     0x00000000     0x2b5e ./Libraries/XMCLib/src/xmc_vadc.o
 .comment       0x00000000       0x71 ./Libraries/XMCLib/src/xmc_vadc.o
 .debug_frame   0x00000000      0xc00 ./Libraries/XMCLib/src/xmc_vadc.o
 .ARM.attributes
                0x00000000       0x37 ./Libraries/XMCLib/src/xmc_vadc.o
 .text          0x00000000        0x0 ./Libraries/XMCLib/src/xmc_wdt.o
 .data          0x00000000        0x0 ./Libraries/XMCLib/src/xmc_wdt.o
 .bss           0x00000000        0x0 ./Libraries/XMCLib/src/xmc_wdt.o
 .text.XMC_WDT_Enable
                0x00000000       0x1c ./Libraries/XMCLib/src/xmc_wdt.o
 .text.XMC_WDT_Disable
                0x00000000       0x1c ./Libraries/XMCLib/src/xmc_wdt.o
 .text.XMC_WDT_Init
                0x00000000       0x30 ./Libraries/XMCLib/src/xmc_wdt.o
 .debug_info    0x00000000      0x49f ./Libraries/XMCLib/src/xmc_wdt.o
 .debug_abbrev  0x00000000      0x187 ./Libraries/XMCLib/src/xmc_wdt.o
 .debug_loc     0x00000000       0xa8 ./Libraries/XMCLib/src/xmc_wdt.o
 .debug_aranges
                0x00000000       0x30 ./Libraries/XMCLib/src/xmc_wdt.o
 .debug_ranges  0x00000000       0x20 ./Libraries/XMCLib/src/xmc_wdt.o
 .debug_line    0x00000000      0x2e6 ./Libraries/XMCLib/src/xmc_wdt.o
 .debug_str     0x00000000      0x856 ./Libraries/XMCLib/src/xmc_wdt.o
 .comment       0x00000000       0x71 ./Libraries/XMCLib/src/xmc_wdt.o
 .debug_frame   0x00000000       0x70 ./Libraries/XMCLib/src/xmc_wdt.o
 .ARM.attributes
                0x00000000       0x37 ./Libraries/XMCLib/src/xmc_wdt.o
 .text          0x00000000        0x0 ./Libraries/Newlib/syscalls.o
 .data          0x00000000        0x0 ./Libraries/Newlib/syscalls.o
 .bss           0x00000000        0x0 ./Libraries/Newlib/syscalls.o
 .bss.__dso_handle
                0x00000000        0x4 ./Libraries/Newlib/syscalls.o
 .comment       0x00000000       0x71 ./Libraries/Newlib/syscalls.o
 .text          0x00000000        0x0 ./Dave/Generated/TIMER/timer.o
 .data          0x00000000        0x0 ./Dave/Generated/TIMER/timer.o
 .bss           0x00000000        0x0 ./Dave/Generated/TIMER/timer.o
 .text.XMC_CCU4_SLICE_IsTimerRunning
                0x00000000       0x28 ./Dave/Generated/TIMER/timer.o
 .text.XMC_CCU4_SLICE_StopTimer
                0x00000000       0x18 ./Dave/Generated/TIMER/timer.o
 .text.XMC_CCU4_SLICE_GetTimerValue
                0x00000000       0x1c ./Dave/Generated/TIMER/timer.o
 .text.XMC_CCU4_SLICE_ClearEvent
                0x00000000       0x24 ./Dave/Generated/TIMER/timer.o
 .text.XMC_CCU4_SLICE_GetEvent
                0x00000000       0x34 ./Dave/Generated/TIMER/timer.o
 .text.TIMER_GetAppVersion
                0x00000000       0x44 ./Dave/Generated/TIMER/timer.o
 .text.TIMER_Stop
                0x00000000       0x48 ./Dave/Generated/TIMER/timer.o
 .text.TIMER_GetTimerStatus
                0x00000000       0x30 ./Dave/Generated/TIMER/timer.o
 .text.TIMER_SetTimeInterval
                0x00000000      0x128 ./Dave/Generated/TIMER/timer.o
 .text.TIMER_GetInterruptStatus
                0x00000000       0x30 ./Dave/Generated/TIMER/timer.o
 .text.TIMER_ClearEvent
                0x00000000       0x24 ./Dave/Generated/TIMER/timer.o
 .text.TIMER_GetTime
                0x00000000       0x88 ./Dave/Generated/TIMER/timer.o
 .text.TIMER_Clear
                0x00000000       0x3c ./Dave/Generated/TIMER/timer.o
 .comment       0x00000000       0x71 ./Dave/Generated/TIMER/timer.o
 .text          0x00000000        0x0 ./Dave/Generated/TIMER/timer_conf.o
 .data          0x00000000        0x0 ./Dave/Generated/TIMER/timer_conf.o
 .bss           0x00000000        0x0 ./Dave/Generated/TIMER/timer_conf.o
 .comment       0x00000000       0x71 ./Dave/Generated/TIMER/timer_conf.o
 .text          0x00000000        0x0 ./Dave/Generated/SPI_MASTER/spi_master.o
 .data          0x00000000        0x0 ./Dave/Generated/SPI_MASTER/spi_master.o
 .bss           0x00000000        0x0 ./Dave/Generated/SPI_MASTER/spi_master.o
 .text.XMC_USIC_CH_SetInputSource
                0x00000000       0x3c ./Dave/Generated/SPI_MASTER/spi_master.o
 .text.XMC_USIC_CH_TXFIFO_DisableEvent
                0x00000000       0x28 ./Dave/Generated/SPI_MASTER/spi_master.o
 .text.XMC_USIC_CH_TXFIFO_Flush
                0x00000000       0x1c ./Dave/Generated/SPI_MASTER/spi_master.o
 .text.XMC_USIC_CH_RXFIFO_DisableEvent
                0x00000000       0x28 ./Dave/Generated/SPI_MASTER/spi_master.o
 .text.XMC_USIC_CH_ConfigureShiftClockOutput
                0x00000000       0x2c ./Dave/Generated/SPI_MASTER/spi_master.o
 .text.XMC_USIC_CH_SetMode
                0x00000000       0x28 ./Dave/Generated/SPI_MASTER/spi_master.o
 .text.XMC_SPI_CH_Start
                0x00000000       0x18 ./Dave/Generated/SPI_MASTER/spi_master.o
 .text.XMC_SPI_CH_SetSlaveSelectDelay
                0x00000000       0x2c ./Dave/Generated/SPI_MASTER/spi_master.o
 .text.XMC_SPI_CH_ConfigureShiftClockOutput
                0x00000000       0x1c ./Dave/Generated/SPI_MASTER/spi_master.o
 .text.XMC_SPI_CH_SetInputSource
                0x00000000       0x44 ./Dave/Generated/SPI_MASTER/spi_master.o
 .text.SPI_MASTER_GetAppVersion
                0x00000000       0x44 ./Dave/Generated/SPI_MASTER/spi_master.o
 .text.SPI_MASTER_SetMode
                0x00000000       0x78 ./Dave/Generated/SPI_MASTER/spi_master.o
 .text.SPI_MASTER_SetBaudRate
                0x00000000       0xac ./Dave/Generated/SPI_MASTER/spi_master.o
 .text.SPI_MASTER_Receive
                0x00000000       0x34 ./Dave/Generated/SPI_MASTER/spi_master.o
 .text.SPI_MASTER_StartReceiveDMA
                0x00000000       0xac ./Dave/Generated/SPI_MASTER/spi_master.o
 .text.SPI_MASTER_AbortReceive
                0x00000000       0xec ./Dave/Generated/SPI_MASTER/spi_master.o
 .text.SPI_MASTER_AbortTransmit
                0x00000000       0xe4 ./Dave/Generated/SPI_MASTER/spi_master.o
 .text.SPI_MASTER_lPortConfig
                0x00000000      0x150 ./Dave/Generated/SPI_MASTER/spi_master.o
 .text.SPI_MASTER_lPortModeSet
                0x00000000      0x1a8 ./Dave/Generated/SPI_MASTER/spi_master.o
 .text.SPI_MASTER_lPortModeReset
                0x00000000      0x15c ./Dave/Generated/SPI_MASTER/spi_master.o
 .text.SPI_MASTER_lValidateModeChange
                0x00000000       0x80 ./Dave/Generated/SPI_MASTER/spi_master.o
 .data.dummy_data.8958
                0x00000000        0x4 ./Dave/Generated/SPI_MASTER/spi_master.o
 .comment       0x00000000       0x71 ./Dave/Generated/SPI_MASTER/spi_master.o
 .text          0x00000000        0x0 ./Dave/Generated/SPI_MASTER/spi_master_conf.o
 .data          0x00000000        0x0 ./Dave/Generated/SPI_MASTER/spi_master_conf.o
 .bss           0x00000000        0x0 ./Dave/Generated/SPI_MASTER/spi_master_conf.o
 .comment       0x00000000       0x71 ./Dave/Generated/SPI_MASTER/spi_master_conf.o
 .text          0x00000000        0x0 ./Dave/Generated/INTERRUPT/interrupt.o
 .data          0x00000000        0x0 ./Dave/Generated/INTERRUPT/interrupt.o
 .bss           0x00000000        0x0 ./Dave/Generated/INTERRUPT/interrupt.o
 .text.INTERRUPT_GetAppVersion
                0x00000000       0x44 ./Dave/Generated/INTERRUPT/interrupt.o
 .comment       0x00000000       0x71 ./Dave/Generated/INTERRUPT/interrupt.o
 .text          0x00000000        0x0 ./Dave/Generated/INTERRUPT/interrupt_conf.o
 .data          0x00000000        0x0 ./Dave/Generated/INTERRUPT/interrupt_conf.o
 .bss           0x00000000        0x0 ./Dave/Generated/INTERRUPT/interrupt_conf.o
 .comment       0x00000000       0x71 ./Dave/Generated/INTERRUPT/interrupt_conf.o
 .text          0x00000000        0x0 ./Dave/Generated/GLOBAL_DMA/global_dma.o
 .data          0x00000000        0x0 ./Dave/Generated/GLOBAL_DMA/global_dma.o
 .bss           0x00000000        0x0 ./Dave/Generated/GLOBAL_DMA/global_dma.o
 .text.GLOBAL_DMA_GetAppVersion
                0x00000000       0x44 ./Dave/Generated/GLOBAL_DMA/global_dma.o
 .comment       0x00000000       0x71 ./Dave/Generated/GLOBAL_DMA/global_dma.o
 .text          0x00000000        0x0 ./Dave/Generated/GLOBAL_DMA/global_dma_conf.o
 .data          0x00000000        0x0 ./Dave/Generated/GLOBAL_DMA/global_dma_conf.o
 .bss           0x00000000        0x0 ./Dave/Generated/GLOBAL_DMA/global_dma_conf.o
 .comment       0x00000000       0x71 ./Dave/Generated/GLOBAL_DMA/global_dma_conf.o
 .text          0x00000000        0x0 ./Dave/Generated/GLOBAL_CCU4/global_ccu4.o
 .data          0x00000000        0x0 ./Dave/Generated/GLOBAL_CCU4/global_ccu4.o
 .bss           0x00000000        0x0 ./Dave/Generated/GLOBAL_CCU4/global_ccu4.o
 .text.GLOBAL_CCU4_GetAppVersion
                0x00000000       0x44 ./Dave/Generated/GLOBAL_CCU4/global_ccu4.o
 .comment       0x00000000       0x71 ./Dave/Generated/GLOBAL_CCU4/global_ccu4.o
 .text          0x00000000        0x0 ./Dave/Generated/GLOBAL_CCU4/global_ccu4_conf.o
 .data          0x00000000        0x0 ./Dave/Generated/GLOBAL_CCU4/global_ccu4_conf.o
 .bss           0x00000000        0x0 ./Dave/Generated/GLOBAL_CCU4/global_ccu4_conf.o
 .comment       0x00000000       0x71 ./Dave/Generated/GLOBAL_CCU4/global_ccu4_conf.o
 .text          0x00000000        0x0 ./Dave/Generated/E_EEPROM_XMC4/e_eeprom_xmc4.o
 .data          0x00000000        0x0 ./Dave/Generated/E_EEPROM_XMC4/e_eeprom_xmc4.o
 .bss           0x00000000        0x0 ./Dave/Generated/E_EEPROM_XMC4/e_eeprom_xmc4.o
 .text.E_EEPROM_XMC4_GetAppVersion
                0x00000000       0x44 ./Dave/Generated/E_EEPROM_XMC4/e_eeprom_xmc4.o
 .text.E_EEPROM_XMC4_WriteByte
                0x00000000       0x44 ./Dave/Generated/E_EEPROM_XMC4/e_eeprom_xmc4.o
 .text.E_EEPROM_XMC4_ReadByte
                0x00000000       0x2c ./Dave/Generated/E_EEPROM_XMC4/e_eeprom_xmc4.o
 .comment       0x00000000       0x71 ./Dave/Generated/E_EEPROM_XMC4/e_eeprom_xmc4.o
 .text          0x00000000        0x0 ./Dave/Generated/E_EEPROM_XMC4/e_eeprom_xmc4_conf.o
 .data          0x00000000        0x0 ./Dave/Generated/E_EEPROM_XMC4/e_eeprom_xmc4_conf.o
 .bss           0x00000000        0x0 ./Dave/Generated/E_EEPROM_XMC4/e_eeprom_xmc4_conf.o
 .comment       0x00000000       0x71 ./Dave/Generated/E_EEPROM_XMC4/e_eeprom_xmc4_conf.o
 .text          0x00000000        0x0 ./Dave/Generated/EVENT_GENERATOR/event_generator.o
 .data          0x00000000        0x0 ./Dave/Generated/EVENT_GENERATOR/event_generator.o
 .bss           0x00000000        0x0 ./Dave/Generated/EVENT_GENERATOR/event_generator.o
 .text.EVENT_GENERATOR_GetAppVersion
                0x00000000       0x44 ./Dave/Generated/EVENT_GENERATOR/event_generator.o
 .comment       0x00000000       0x71 ./Dave/Generated/EVENT_GENERATOR/event_generator.o
 .text          0x00000000        0x0 ./Dave/Generated/EVENT_GENERATOR/event_generator_conf.o
 .data          0x00000000        0x0 ./Dave/Generated/EVENT_GENERATOR/event_generator_conf.o
 .bss           0x00000000        0x0 ./Dave/Generated/EVENT_GENERATOR/event_generator_conf.o
 .comment       0x00000000       0x71 ./Dave/Generated/EVENT_GENERATOR/event_generator_conf.o
 .text          0x00000000        0x0 ./Dave/Generated/EVENT_DETECTOR/event_detector.o
 .data          0x00000000        0x0 ./Dave/Generated/EVENT_DETECTOR/event_detector.o
 .bss           0x00000000        0x0 ./Dave/Generated/EVENT_DETECTOR/event_detector.o
 .text.EVENT_DETECTOR_GetAppVersion
                0x00000000       0x44 ./Dave/Generated/EVENT_DETECTOR/event_detector.o
 .comment       0x00000000       0x71 ./Dave/Generated/EVENT_DETECTOR/event_detector.o
 .text          0x00000000        0x0 ./Dave/Generated/EVENT_DETECTOR/event_detector_conf.o
 .data          0x00000000        0x0 ./Dave/Generated/EVENT_DETECTOR/event_detector_conf.o
 .bss           0x00000000        0x0 ./Dave/Generated/EVENT_DETECTOR/event_detector_conf.o
 .comment       0x00000000       0x71 ./Dave/Generated/EVENT_DETECTOR/event_detector_conf.o
 .text          0x00000000        0x0 ./Dave/Generated/ECAT_SSC/ecat_ssc.o
 .data          0x00000000        0x0 ./Dave/Generated/ECAT_SSC/ecat_ssc.o
 .bss           0x00000000        0x0 ./Dave/Generated/ECAT_SSC/ecat_ssc.o
 .text.ECAT_SSC_GetAppVersion
                0x00000000       0x44 ./Dave/Generated/ECAT_SSC/ecat_ssc.o
 .comment       0x00000000       0x71 ./Dave/Generated/ECAT_SSC/ecat_ssc.o
 .text          0x00000000        0x0 ./Dave/Generated/ECAT_SSC/ecat_ssc_conf.o
 .data          0x00000000        0x0 ./Dave/Generated/ECAT_SSC/ecat_ssc_conf.o
 .bss           0x00000000        0x0 ./Dave/Generated/ECAT_SSC/ecat_ssc_conf.o
 .comment       0x00000000       0x71 ./Dave/Generated/ECAT_SSC/ecat_ssc_conf.o
 .text          0x00000000        0x0 ./Dave/Generated/ECAT_SSC/xmc_eschw.o
 .data          0x00000000        0x0 ./Dave/Generated/ECAT_SSC/xmc_eschw.o
 .bss           0x00000000        0x0 ./Dave/Generated/ECAT_SSC/xmc_eschw.o
 .text.HW_Release
                0x00000000        0xc ./Dave/Generated/ECAT_SSC/xmc_eschw.o
 .text.HW_RestartTarget
                0x00000000        0xc ./Dave/Generated/ECAT_SSC/xmc_eschw.o
 .text.HW_GetTimer
                0x00000000       0x18 ./Dave/Generated/ECAT_SSC/xmc_eschw.o
 .text.HW_ClearTimer
                0x00000000       0x18 ./Dave/Generated/ECAT_SSC/xmc_eschw.o
 .comment       0x00000000       0x71 ./Dave/Generated/ECAT_SSC/xmc_eschw.o
 .text          0x00000000        0x0 ./Dave/Generated/DIGITAL_IO/digital_io.o
 .data          0x00000000        0x0 ./Dave/Generated/DIGITAL_IO/digital_io.o
 .bss           0x00000000        0x0 ./Dave/Generated/DIGITAL_IO/digital_io.o
 .text.DIGITAL_IO_GetAppVersion
                0x00000000       0x44 ./Dave/Generated/DIGITAL_IO/digital_io.o
 .comment       0x00000000       0x71 ./Dave/Generated/DIGITAL_IO/digital_io.o
 .text          0x00000000        0x0 ./Dave/Generated/DIGITAL_IO/digital_io_conf.o
 .data          0x00000000        0x0 ./Dave/Generated/DIGITAL_IO/digital_io_conf.o
 .bss           0x00000000        0x0 ./Dave/Generated/DIGITAL_IO/digital_io_conf.o
 .comment       0x00000000       0x71 ./Dave/Generated/DIGITAL_IO/digital_io_conf.o
 .text          0x00000000        0x0 ./Dave/Generated/CPU_CTRL_XMC4/cpu_ctrl_xmc4.o
 .data          0x00000000        0x0 ./Dave/Generated/CPU_CTRL_XMC4/cpu_ctrl_xmc4.o
 .bss           0x00000000        0x0 ./Dave/Generated/CPU_CTRL_XMC4/cpu_ctrl_xmc4.o
 .text.CPU_CTRL_XMC4_GetAppVersion
                0x00000000       0x44 ./Dave/Generated/CPU_CTRL_XMC4/cpu_ctrl_xmc4.o
 .text.CPU_CTRL_XMC4_Init
                0x00000000       0x18 ./Dave/Generated/CPU_CTRL_XMC4/cpu_ctrl_xmc4.o
 .text.CPU_CTRL_XMC4_MPU_Enable
                0x00000000       0x28 ./Dave/Generated/CPU_CTRL_XMC4/cpu_ctrl_xmc4.o
 .text.CPU_CTRL_XMC4_MPU_Disable
                0x00000000       0x1c ./Dave/Generated/CPU_CTRL_XMC4/cpu_ctrl_xmc4.o
 .debug_info    0x00000000      0x3d8 ./Dave/Generated/CPU_CTRL_XMC4/cpu_ctrl_xmc4.o
 .debug_abbrev  0x00000000      0x179 ./Dave/Generated/CPU_CTRL_XMC4/cpu_ctrl_xmc4.o
 .debug_loc     0x00000000      0x158 ./Dave/Generated/CPU_CTRL_XMC4/cpu_ctrl_xmc4.o
 .debug_aranges
                0x00000000       0x38 ./Dave/Generated/CPU_CTRL_XMC4/cpu_ctrl_xmc4.o
 .debug_ranges  0x00000000       0x28 ./Dave/Generated/CPU_CTRL_XMC4/cpu_ctrl_xmc4.o
 .debug_line    0x00000000      0x285 ./Dave/Generated/CPU_CTRL_XMC4/cpu_ctrl_xmc4.o
 .debug_str     0x00000000      0x44c ./Dave/Generated/CPU_CTRL_XMC4/cpu_ctrl_xmc4.o
 .comment       0x00000000       0x71 ./Dave/Generated/CPU_CTRL_XMC4/cpu_ctrl_xmc4.o
 .debug_frame   0x00000000       0xac ./Dave/Generated/CPU_CTRL_XMC4/cpu_ctrl_xmc4.o
 .ARM.attributes
                0x00000000       0x37 ./Dave/Generated/CPU_CTRL_XMC4/cpu_ctrl_xmc4.o
 .text          0x00000000        0x0 ./Dave/Generated/CPU_CTRL_XMC4/cpu_ctrl_xmc4_conf.o
 .data          0x00000000        0x0 ./Dave/Generated/CPU_CTRL_XMC4/cpu_ctrl_xmc4_conf.o
 .bss           0x00000000        0x0 ./Dave/Generated/CPU_CTRL_XMC4/cpu_ctrl_xmc4_conf.o
 .bss.CPU_CTRL_XMC4_0
                0x00000000        0x4 ./Dave/Generated/CPU_CTRL_XMC4/cpu_ctrl_xmc4_conf.o
 .comment       0x00000000       0x71 ./Dave/Generated/CPU_CTRL_XMC4/cpu_ctrl_xmc4_conf.o
 .text          0x00000000        0x0 ./Dave/Generated/CLOCK_XMC4/clock_xmc4.o
 .data          0x00000000        0x0 ./Dave/Generated/CLOCK_XMC4/clock_xmc4.o
 .bss           0x00000000        0x0 ./Dave/Generated/CLOCK_XMC4/clock_xmc4.o
 .text.CLOCK_XMC4_GetAppVersion
                0x00000000       0x44 ./Dave/Generated/CLOCK_XMC4/clock_xmc4.o
 .text.CLOCK_XMC4_StepSystemPllFrequency
                0x00000000       0x14 ./Dave/Generated/CLOCK_XMC4/clock_xmc4.o
 .comment       0x00000000       0x71 ./Dave/Generated/CLOCK_XMC4/clock_xmc4.o
 .text          0x00000000        0x0 ./Dave/Generated/CLOCK_XMC4/clock_xmc4_conf.o
 .data          0x00000000        0x0 ./Dave/Generated/CLOCK_XMC4/clock_xmc4_conf.o
 .bss           0x00000000        0x0 ./Dave/Generated/CLOCK_XMC4/clock_xmc4_conf.o
 .comment       0x00000000       0x71 ./Dave/Generated/CLOCK_XMC4/clock_xmc4_conf.o
 .text          0x00000000        0x0 ./Dave/Generated/DAVE.o
 .data          0x00000000        0x0 ./Dave/Generated/DAVE.o
 .bss           0x00000000        0x0 ./Dave/Generated/DAVE.o
 .comment       0x00000000       0x71 ./Dave/Generated/DAVE.o
 .text          0x00000000        0x0 ./main.o
 .data          0x00000000        0x0 ./main.o
 .bss           0x00000000        0x0 ./main.o
 .bss.master_send_data
                0x00000000        0x8 ./main.o
 .comment       0x00000000       0x71 ./main.o
 COMMON         0x00000000        0x4 ./main.o
 .text          0x00000000       0x2c d:/infineon/tools/dave ide/4.5.0.202105191637/eclipse/arm-gcc-49/bin/../lib/gcc/arm-none-eabi/4.9.3/armv7e-m/softfp\libgcc.a(_aeabi_uldivmod.o)
 .data          0x00000000        0x0 d:/infineon/tools/dave ide/4.5.0.202105191637/eclipse/arm-gcc-49/bin/../lib/gcc/arm-none-eabi/4.9.3/armv7e-m/softfp\libgcc.a(_aeabi_uldivmod.o)
 .bss           0x00000000        0x0 d:/infineon/tools/dave ide/4.5.0.202105191637/eclipse/arm-gcc-49/bin/../lib/gcc/arm-none-eabi/4.9.3/armv7e-m/softfp\libgcc.a(_aeabi_uldivmod.o)
 .debug_frame   0x00000000       0x28 d:/infineon/tools/dave ide/4.5.0.202105191637/eclipse/arm-gcc-49/bin/../lib/gcc/arm-none-eabi/4.9.3/armv7e-m/softfp\libgcc.a(_aeabi_uldivmod.o)
 .ARM.attributes
                0x00000000       0x22 d:/infineon/tools/dave ide/4.5.0.202105191637/eclipse/arm-gcc-49/bin/../lib/gcc/arm-none-eabi/4.9.3/armv7e-m/softfp\libgcc.a(_aeabi_uldivmod.o)
 .text          0x00000000       0x60 d:/infineon/tools/dave ide/4.5.0.202105191637/eclipse/arm-gcc-49/bin/../lib/gcc/arm-none-eabi/4.9.3/armv7e-m/softfp\libgcc.a(bpabi.o)
 .data          0x00000000        0x0 d:/infineon/tools/dave ide/4.5.0.202105191637/eclipse/arm-gcc-49/bin/../lib/gcc/arm-none-eabi/4.9.3/armv7e-m/softfp\libgcc.a(bpabi.o)
 .bss           0x00000000        0x0 d:/infineon/tools/dave ide/4.5.0.202105191637/eclipse/arm-gcc-49/bin/../lib/gcc/arm-none-eabi/4.9.3/armv7e-m/softfp\libgcc.a(bpabi.o)
 .debug_frame   0x00000000       0x50 d:/infineon/tools/dave ide/4.5.0.202105191637/eclipse/arm-gcc-49/bin/../lib/gcc/arm-none-eabi/4.9.3/armv7e-m/softfp\libgcc.a(bpabi.o)
 .ARM.attributes
                0x00000000       0x32 d:/infineon/tools/dave ide/4.5.0.202105191637/eclipse/arm-gcc-49/bin/../lib/gcc/arm-none-eabi/4.9.3/armv7e-m/softfp\libgcc.a(bpabi.o)
 .text          0x00000000        0x4 d:/infineon/tools/dave ide/4.5.0.202105191637/eclipse/arm-gcc-49/bin/../lib/gcc/arm-none-eabi/4.9.3/armv7e-m/softfp\libgcc.a(_dvmd_tls.o)
 .data          0x00000000        0x0 d:/infineon/tools/dave ide/4.5.0.202105191637/eclipse/arm-gcc-49/bin/../lib/gcc/arm-none-eabi/4.9.3/armv7e-m/softfp\libgcc.a(_dvmd_tls.o)
 .bss           0x00000000        0x0 d:/infineon/tools/dave ide/4.5.0.202105191637/eclipse/arm-gcc-49/bin/../lib/gcc/arm-none-eabi/4.9.3/armv7e-m/softfp\libgcc.a(_dvmd_tls.o)
 .ARM.attributes
                0x00000000       0x22 d:/infineon/tools/dave ide/4.5.0.202105191637/eclipse/arm-gcc-49/bin/../lib/gcc/arm-none-eabi/4.9.3/armv7e-m/softfp\libgcc.a(_dvmd_tls.o)
 .text          0x00000000      0x29c d:/infineon/tools/dave ide/4.5.0.202105191637/eclipse/arm-gcc-49/bin/../lib/gcc/arm-none-eabi/4.9.3/armv7e-m/softfp\libgcc.a(_divdi3.o)
 .data          0x00000000        0x0 d:/infineon/tools/dave ide/4.5.0.202105191637/eclipse/arm-gcc-49/bin/../lib/gcc/arm-none-eabi/4.9.3/armv7e-m/softfp\libgcc.a(_divdi3.o)
 .bss           0x00000000        0x0 d:/infineon/tools/dave ide/4.5.0.202105191637/eclipse/arm-gcc-49/bin/../lib/gcc/arm-none-eabi/4.9.3/armv7e-m/softfp\libgcc.a(_divdi3.o)
 .ARM.extab     0x00000000        0x0 d:/infineon/tools/dave ide/4.5.0.202105191637/eclipse/arm-gcc-49/bin/../lib/gcc/arm-none-eabi/4.9.3/armv7e-m/softfp\libgcc.a(_divdi3.o)
 .ARM.exidx     0x00000000        0x8 d:/infineon/tools/dave ide/4.5.0.202105191637/eclipse/arm-gcc-49/bin/../lib/gcc/arm-none-eabi/4.9.3/armv7e-m/softfp\libgcc.a(_divdi3.o)
 .debug_frame   0x00000000       0x34 d:/infineon/tools/dave ide/4.5.0.202105191637/eclipse/arm-gcc-49/bin/../lib/gcc/arm-none-eabi/4.9.3/armv7e-m/softfp\libgcc.a(_divdi3.o)
 .ARM.attributes
                0x00000000       0x32 d:/infineon/tools/dave ide/4.5.0.202105191637/eclipse/arm-gcc-49/bin/../lib/gcc/arm-none-eabi/4.9.3/armv7e-m/softfp\libgcc.a(_divdi3.o)
 .text          0x00000000      0x26c d:/infineon/tools/dave ide/4.5.0.202105191637/eclipse/arm-gcc-49/bin/../lib/gcc/arm-none-eabi/4.9.3/armv7e-m/softfp\libgcc.a(_udivdi3.o)
 .data          0x00000000        0x0 d:/infineon/tools/dave ide/4.5.0.202105191637/eclipse/arm-gcc-49/bin/../lib/gcc/arm-none-eabi/4.9.3/armv7e-m/softfp\libgcc.a(_udivdi3.o)
 .bss           0x00000000        0x0 d:/infineon/tools/dave ide/4.5.0.202105191637/eclipse/arm-gcc-49/bin/../lib/gcc/arm-none-eabi/4.9.3/armv7e-m/softfp\libgcc.a(_udivdi3.o)
 .ARM.extab     0x00000000        0x0 d:/infineon/tools/dave ide/4.5.0.202105191637/eclipse/arm-gcc-49/bin/../lib/gcc/arm-none-eabi/4.9.3/armv7e-m/softfp\libgcc.a(_udivdi3.o)
 .ARM.exidx     0x00000000        0x8 d:/infineon/tools/dave ide/4.5.0.202105191637/eclipse/arm-gcc-49/bin/../lib/gcc/arm-none-eabi/4.9.3/armv7e-m/softfp\libgcc.a(_udivdi3.o)
 .debug_frame   0x00000000       0x30 d:/infineon/tools/dave ide/4.5.0.202105191637/eclipse/arm-gcc-49/bin/../lib/gcc/arm-none-eabi/4.9.3/armv7e-m/softfp\libgcc.a(_udivdi3.o)
 .ARM.attributes
                0x00000000       0x32 d:/infineon/tools/dave ide/4.5.0.202105191637/eclipse/arm-gcc-49/bin/../lib/gcc/arm-none-eabi/4.9.3/armv7e-m/softfp\libgcc.a(_udivdi3.o)
 .text          0x00000000        0x0 d:/infineon/tools/dave ide/4.5.0.202105191637/eclipse/arm-gcc-49/bin/../lib/gcc/arm-none-eabi/4.9.3/../../../../arm-none-eabi/lib/armv7e-m/softfp\libg_nano.a(lib_a-errno.o)
 .data          0x00000000        0x0 d:/infineon/tools/dave ide/4.5.0.202105191637/eclipse/arm-gcc-49/bin/../lib/gcc/arm-none-eabi/4.9.3/../../../../arm-none-eabi/lib/armv7e-m/softfp\libg_nano.a(lib_a-errno.o)
 .bss           0x00000000        0x0 d:/infineon/tools/dave ide/4.5.0.202105191637/eclipse/arm-gcc-49/bin/../lib/gcc/arm-none-eabi/4.9.3/../../../../arm-none-eabi/lib/armv7e-m/softfp\libg_nano.a(lib_a-errno.o)
 .text          0x00000000        0x0 d:/infineon/tools/dave ide/4.5.0.202105191637/eclipse/arm-gcc-49/bin/../lib/gcc/arm-none-eabi/4.9.3/../../../../arm-none-eabi/lib/armv7e-m/softfp\libg_nano.a(lib_a-impure.o)
 .data          0x00000000        0x0 d:/infineon/tools/dave ide/4.5.0.202105191637/eclipse/arm-gcc-49/bin/../lib/gcc/arm-none-eabi/4.9.3/../../../../arm-none-eabi/lib/armv7e-m/softfp\libg_nano.a(lib_a-impure.o)
 .bss           0x00000000        0x0 d:/infineon/tools/dave ide/4.5.0.202105191637/eclipse/arm-gcc-49/bin/../lib/gcc/arm-none-eabi/4.9.3/../../../../arm-none-eabi/lib/armv7e-m/softfp\libg_nano.a(lib_a-impure.o)
 .rodata._global_impure_ptr
                0x00000000        0x4 d:/infineon/tools/dave ide/4.5.0.202105191637/eclipse/arm-gcc-49/bin/../lib/gcc/arm-none-eabi/4.9.3/../../../../arm-none-eabi/lib/armv7e-m/softfp\libg_nano.a(lib_a-impure.o)
 .text          0x00000000        0x0 d:/infineon/tools/dave ide/4.5.0.202105191637/eclipse/arm-gcc-49/bin/../lib/gcc/arm-none-eabi/4.9.3/../../../../arm-none-eabi/lib/armv7e-m/softfp\libg_nano.a(lib_a-init.o)
 .data          0x00000000        0x0 d:/infineon/tools/dave ide/4.5.0.202105191637/eclipse/arm-gcc-49/bin/../lib/gcc/arm-none-eabi/4.9.3/../../../../arm-none-eabi/lib/armv7e-m/softfp\libg_nano.a(lib_a-init.o)
 .bss           0x00000000        0x0 d:/infineon/tools/dave ide/4.5.0.202105191637/eclipse/arm-gcc-49/bin/../lib/gcc/arm-none-eabi/4.9.3/../../../../arm-none-eabi/lib/armv7e-m/softfp\libg_nano.a(lib_a-init.o)
 .text          0x00000000        0x0 d:/infineon/tools/dave ide/4.5.0.202105191637/eclipse/arm-gcc-49/bin/../lib/gcc/arm-none-eabi/4.9.3/../../../../arm-none-eabi/lib/armv7e-m/softfp\libg_nano.a(lib_a-malloc.o)
 .data          0x00000000        0x0 d:/infineon/tools/dave ide/4.5.0.202105191637/eclipse/arm-gcc-49/bin/../lib/gcc/arm-none-eabi/4.9.3/../../../../arm-none-eabi/lib/armv7e-m/softfp\libg_nano.a(lib_a-malloc.o)
 .bss           0x00000000        0x0 d:/infineon/tools/dave ide/4.5.0.202105191637/eclipse/arm-gcc-49/bin/../lib/gcc/arm-none-eabi/4.9.3/../../../../arm-none-eabi/lib/armv7e-m/softfp\libg_nano.a(lib_a-malloc.o)
 .text          0x00000000        0x0 d:/infineon/tools/dave ide/4.5.0.202105191637/eclipse/arm-gcc-49/bin/../lib/gcc/arm-none-eabi/4.9.3/../../../../arm-none-eabi/lib/armv7e-m/softfp\libg_nano.a(lib_a-memcmp.o)
 .data          0x00000000        0x0 d:/infineon/tools/dave ide/4.5.0.202105191637/eclipse/arm-gcc-49/bin/../lib/gcc/arm-none-eabi/4.9.3/../../../../arm-none-eabi/lib/armv7e-m/softfp\libg_nano.a(lib_a-memcmp.o)
 .bss           0x00000000        0x0 d:/infineon/tools/dave ide/4.5.0.202105191637/eclipse/arm-gcc-49/bin/../lib/gcc/arm-none-eabi/4.9.3/../../../../arm-none-eabi/lib/armv7e-m/softfp\libg_nano.a(lib_a-memcmp.o)
 .text          0x00000000        0x0 d:/infineon/tools/dave ide/4.5.0.202105191637/eclipse/arm-gcc-49/bin/../lib/gcc/arm-none-eabi/4.9.3/../../../../arm-none-eabi/lib/armv7e-m/softfp\libg_nano.a(lib_a-memcpy.o)
 .data          0x00000000        0x0 d:/infineon/tools/dave ide/4.5.0.202105191637/eclipse/arm-gcc-49/bin/../lib/gcc/arm-none-eabi/4.9.3/../../../../arm-none-eabi/lib/armv7e-m/softfp\libg_nano.a(lib_a-memcpy.o)
 .bss           0x00000000        0x0 d:/infineon/tools/dave ide/4.5.0.202105191637/eclipse/arm-gcc-49/bin/../lib/gcc/arm-none-eabi/4.9.3/../../../../arm-none-eabi/lib/armv7e-m/softfp\libg_nano.a(lib_a-memcpy.o)
 .text          0x00000000        0x0 d:/infineon/tools/dave ide/4.5.0.202105191637/eclipse/arm-gcc-49/bin/../lib/gcc/arm-none-eabi/4.9.3/../../../../arm-none-eabi/lib/armv7e-m/softfp\libg_nano.a(lib_a-memset.o)
 .data          0x00000000        0x0 d:/infineon/tools/dave ide/4.5.0.202105191637/eclipse/arm-gcc-49/bin/../lib/gcc/arm-none-eabi/4.9.3/../../../../arm-none-eabi/lib/armv7e-m/softfp\libg_nano.a(lib_a-memset.o)
 .bss           0x00000000        0x0 d:/infineon/tools/dave ide/4.5.0.202105191637/eclipse/arm-gcc-49/bin/../lib/gcc/arm-none-eabi/4.9.3/../../../../arm-none-eabi/lib/armv7e-m/softfp\libg_nano.a(lib_a-memset.o)
 .text          0x00000000        0x0 d:/infineon/tools/dave ide/4.5.0.202105191637/eclipse/arm-gcc-49/bin/../lib/gcc/arm-none-eabi/4.9.3/../../../../arm-none-eabi/lib/armv7e-m/softfp\libg_nano.a(lib_a-nano-freer.o)
 .data          0x00000000        0x0 d:/infineon/tools/dave ide/4.5.0.202105191637/eclipse/arm-gcc-49/bin/../lib/gcc/arm-none-eabi/4.9.3/../../../../arm-none-eabi/lib/armv7e-m/softfp\libg_nano.a(lib_a-nano-freer.o)
 .bss           0x00000000        0x0 d:/infineon/tools/dave ide/4.5.0.202105191637/eclipse/arm-gcc-49/bin/../lib/gcc/arm-none-eabi/4.9.3/../../../../arm-none-eabi/lib/armv7e-m/softfp\libg_nano.a(lib_a-nano-freer.o)
 .text          0x00000000        0x0 d:/infineon/tools/dave ide/4.5.0.202105191637/eclipse/arm-gcc-49/bin/../lib/gcc/arm-none-eabi/4.9.3/../../../../arm-none-eabi/lib/armv7e-m/softfp\libg_nano.a(lib_a-nano-mallocr.o)
 .data          0x00000000        0x0 d:/infineon/tools/dave ide/4.5.0.202105191637/eclipse/arm-gcc-49/bin/../lib/gcc/arm-none-eabi/4.9.3/../../../../arm-none-eabi/lib/armv7e-m/softfp\libg_nano.a(lib_a-nano-mallocr.o)
 .bss           0x00000000        0x0 d:/infineon/tools/dave ide/4.5.0.202105191637/eclipse/arm-gcc-49/bin/../lib/gcc/arm-none-eabi/4.9.3/../../../../arm-none-eabi/lib/armv7e-m/softfp\libg_nano.a(lib_a-nano-mallocr.o)
 .text          0x00000000        0x0 d:/infineon/tools/dave ide/4.5.0.202105191637/eclipse/arm-gcc-49/bin/../lib/gcc/arm-none-eabi/4.9.3/../../../../arm-none-eabi/lib/armv7e-m/softfp\libg_nano.a(lib_a-sbrkr.o)
 .data          0x00000000        0x0 d:/infineon/tools/dave ide/4.5.0.202105191637/eclipse/arm-gcc-49/bin/../lib/gcc/arm-none-eabi/4.9.3/../../../../arm-none-eabi/lib/armv7e-m/softfp\libg_nano.a(lib_a-sbrkr.o)
 .bss           0x00000000        0x0 d:/infineon/tools/dave ide/4.5.0.202105191637/eclipse/arm-gcc-49/bin/../lib/gcc/arm-none-eabi/4.9.3/../../../../arm-none-eabi/lib/armv7e-m/softfp\libg_nano.a(lib_a-sbrkr.o)
 .text          0x00000000        0x0 d:/infineon/tools/dave ide/4.5.0.202105191637/eclipse/arm-gcc-49/bin/../lib/gcc/arm-none-eabi/4.9.3/../../../../arm-none-eabi/lib/armv7e-m/softfp\libg_nano.a(lib_a-strlen.o)
 .data          0x00000000        0x0 d:/infineon/tools/dave ide/4.5.0.202105191637/eclipse/arm-gcc-49/bin/../lib/gcc/arm-none-eabi/4.9.3/../../../../arm-none-eabi/lib/armv7e-m/softfp\libg_nano.a(lib_a-strlen.o)
 .bss           0x00000000        0x0 d:/infineon/tools/dave ide/4.5.0.202105191637/eclipse/arm-gcc-49/bin/../lib/gcc/arm-none-eabi/4.9.3/../../../../arm-none-eabi/lib/armv7e-m/softfp\libg_nano.a(lib_a-strlen.o)
 .text          0x00000000        0x0 d:/infineon/tools/dave ide/4.5.0.202105191637/eclipse/arm-gcc-49/bin/../lib/gcc/arm-none-eabi/4.9.3/../../../../arm-none-eabi/lib/armv7e-m/softfp\libg_nano.a(lib_a-reent.o)
 .data          0x00000000        0x0 d:/infineon/tools/dave ide/4.5.0.202105191637/eclipse/arm-gcc-49/bin/../lib/gcc/arm-none-eabi/4.9.3/../../../../arm-none-eabi/lib/armv7e-m/softfp\libg_nano.a(lib_a-reent.o)
 .bss           0x00000000        0x0 d:/infineon/tools/dave ide/4.5.0.202105191637/eclipse/arm-gcc-49/bin/../lib/gcc/arm-none-eabi/4.9.3/../../../../arm-none-eabi/lib/armv7e-m/softfp\libg_nano.a(lib_a-reent.o)
 .text.cleanup_glue
                0x00000000       0x1a d:/infineon/tools/dave ide/4.5.0.202105191637/eclipse/arm-gcc-49/bin/../lib/gcc/arm-none-eabi/4.9.3/../../../../arm-none-eabi/lib/armv7e-m/softfp\libg_nano.a(lib_a-reent.o)
 .text._reclaim_reent
                0x00000000       0xb4 d:/infineon/tools/dave ide/4.5.0.202105191637/eclipse/arm-gcc-49/bin/../lib/gcc/arm-none-eabi/4.9.3/../../../../arm-none-eabi/lib/armv7e-m/softfp\libg_nano.a(lib_a-reent.o)

Memory Configuration

Name             Origin             Length             Attributes
FLASH_0_cached   0x08000000         0x00010000         xr
FLASH_0_uncached 0x0c000000         0x00010000         xr
FLASH_1_cached   0x08020000         0x00020000         xr
FLASH_1_uncached 0x0c020000         0x00020000         xr
PSRAM_1          0x1fff0000         0x00010000         !xr
DSRAM_1_system   0x20000000         0x00010000         !xr
SRAM_combined    0x1fff0000         0x00020000         !xr
*default*        0x00000000         0xffffffff

Linker script and memory map

LOAD ./Startup/startup_XMC4300.o
LOAD ./Startup/system_XMC4300.o
LOAD ./SSC/Src/coeappl.o
LOAD ./SSC/Src/ecatappl.o
LOAD ./SSC/Src/ecatcoe.o
LOAD ./SSC/Src/ecatslv.o
LOAD ./SSC/Src/mailbox.o
LOAD ./SSC/Src/objdef.o
LOAD ./SSC/Src/ryhand.o
LOAD ./SSC/Src/sdoserv.o
LOAD ./Libraries/XMCLib/src/xmc4_eru.o
LOAD ./Libraries/XMCLib/src/xmc4_flash.o
LOAD ./Libraries/XMCLib/src/xmc4_gpio.o
LOAD ./Libraries/XMCLib/src/xmc4_rtc.o
LOAD ./Libraries/XMCLib/src/xmc4_scu.o
LOAD ./Libraries/XMCLib/src/xmc_can.o
LOAD ./Libraries/XMCLib/src/xmc_ccu4.o
LOAD ./Libraries/XMCLib/src/xmc_ccu8.o
LOAD ./Libraries/XMCLib/src/xmc_common.o
LOAD ./Libraries/XMCLib/src/xmc_dac.o
LOAD ./Libraries/XMCLib/src/xmc_dma.o
LOAD ./Libraries/XMCLib/src/xmc_dsd.o
LOAD ./Libraries/XMCLib/src/xmc_ebu.o
LOAD ./Libraries/XMCLib/src/xmc_ecat.o
LOAD ./Libraries/XMCLib/src/xmc_eru.o
LOAD ./Libraries/XMCLib/src/xmc_eth_mac.o
LOAD ./Libraries/XMCLib/src/xmc_eth_phy_dp83848.o
LOAD ./Libraries/XMCLib/src/xmc_eth_phy_ksz8031rnl.o
LOAD ./Libraries/XMCLib/src/xmc_eth_phy_ksz8081rnb.o
LOAD ./Libraries/XMCLib/src/xmc_fce.o
LOAD ./Libraries/XMCLib/src/xmc_gpio.o
LOAD ./Libraries/XMCLib/src/xmc_hrpwm.o
LOAD ./Libraries/XMCLib/src/xmc_i2c.o
LOAD ./Libraries/XMCLib/src/xmc_i2s.o
LOAD ./Libraries/XMCLib/src/xmc_ledts.o
LOAD ./Libraries/XMCLib/src/xmc_posif.o
LOAD ./Libraries/XMCLib/src/xmc_rtc.o
LOAD ./Libraries/XMCLib/src/xmc_sdmmc.o
LOAD ./Libraries/XMCLib/src/xmc_spi.o
LOAD ./Libraries/XMCLib/src/xmc_uart.o
LOAD ./Libraries/XMCLib/src/xmc_usbd.o
LOAD ./Libraries/XMCLib/src/xmc_usbh.o
LOAD ./Libraries/XMCLib/src/xmc_usic.o
LOAD ./Libraries/XMCLib/src/xmc_vadc.o
LOAD ./Libraries/XMCLib/src/xmc_wdt.o
LOAD ./Libraries/Newlib/syscalls.o
LOAD ./Dave/Generated/TIMER/timer.o
LOAD ./Dave/Generated/TIMER/timer_conf.o
LOAD ./Dave/Generated/SPI_MASTER/spi_master.o
LOAD ./Dave/Generated/SPI_MASTER/spi_master_conf.o
LOAD ./Dave/Generated/INTERRUPT/interrupt.o
LOAD ./Dave/Generated/INTERRUPT/interrupt_conf.o
LOAD ./Dave/Generated/GLOBAL_DMA/global_dma.o
LOAD ./Dave/Generated/GLOBAL_DMA/global_dma_conf.o
LOAD ./Dave/Generated/GLOBAL_CCU4/global_ccu4.o
LOAD ./Dave/Generated/GLOBAL_CCU4/global_ccu4_conf.o
LOAD ./Dave/Generated/E_EEPROM_XMC4/e_eeprom_xmc4.o
LOAD ./Dave/Generated/E_EEPROM_XMC4/e_eeprom_xmc4_conf.o
LOAD ./Dave/Generated/EVENT_GENERATOR/event_generator.o
LOAD ./Dave/Generated/EVENT_GENERATOR/event_generator_conf.o
LOAD ./Dave/Generated/EVENT_DETECTOR/event_detector.o
LOAD ./Dave/Generated/EVENT_DETECTOR/event_detector_conf.o
LOAD ./Dave/Generated/ECAT_SSC/ecat_ssc.o
LOAD ./Dave/Generated/ECAT_SSC/ecat_ssc_conf.o
LOAD ./Dave/Generated/ECAT_SSC/xmc_eschw.o
LOAD ./Dave/Generated/DIGITAL_IO/digital_io.o
LOAD ./Dave/Generated/DIGITAL_IO/digital_io_conf.o
LOAD ./Dave/Generated/CPU_CTRL_XMC4/cpu_ctrl_xmc4.o
LOAD ./Dave/Generated/CPU_CTRL_XMC4/cpu_ctrl_xmc4_conf.o
LOAD ./Dave/Generated/CLOCK_XMC4/clock_xmc4.o
LOAD ./Dave/Generated/CLOCK_XMC4/clock_xmc4_conf.o
LOAD ./Dave/Generated/DAVE.o
LOAD ./main.o
LOAD d:/infineon/tools/dave ide/4.5.0.202105191637/eclipse/arm-gcc-49/bin/../lib/gcc/arm-none-eabi/4.9.3/../../../../arm-none-eabi/lib/armv7e-m/softfp\libm.a
START GROUP
LOAD d:/infineon/tools/dave ide/4.5.0.202105191637/eclipse/arm-gcc-49/bin/../lib/gcc/arm-none-eabi/4.9.3/armv7e-m/softfp\libgcc.a
LOAD d:/infineon/tools/dave ide/4.5.0.202105191637/eclipse/arm-gcc-49/bin/../lib/gcc/arm-none-eabi/4.9.3/../../../../arm-none-eabi/lib/armv7e-m/softfp\libg_nano.a
LOAD d:/infineon/tools/dave ide/4.5.0.202105191637/eclipse/arm-gcc-49/bin/../lib/gcc/arm-none-eabi/4.9.3/../../../../arm-none-eabi/lib/armv7e-m/softfp\libc_nano.a
END GROUP
START GROUP
LOAD d:/infineon/tools/dave ide/4.5.0.202105191637/eclipse/arm-gcc-49/bin/../lib/gcc/arm-none-eabi/4.9.3/armv7e-m/softfp\libgcc.a
LOAD d:/infineon/tools/dave ide/4.5.0.202105191637/eclipse/arm-gcc-49/bin/../lib/gcc/arm-none-eabi/4.9.3/../../../../arm-none-eabi/lib/armv7e-m/softfp\libc_nano.a
LOAD d:/infineon/tools/dave ide/4.5.0.202105191637/eclipse/arm-gcc-49/bin/../lib/gcc/arm-none-eabi/4.9.3/../../../../arm-none-eabi/lib/armv7e-m/softfp\libnosys.a
END GROUP
START GROUP
LOAD d:/infineon/tools/dave ide/4.5.0.202105191637/eclipse/arm-gcc-49/bin/../lib/gcc/arm-none-eabi/4.9.3/armv7e-m/softfp\libgcc.a
LOAD d:/infineon/tools/dave ide/4.5.0.202105191637/eclipse/arm-gcc-49/bin/../lib/gcc/arm-none-eabi/4.9.3/../../../../arm-none-eabi/lib/armv7e-m/softfp\libc_nano.a
LOAD d:/infineon/tools/dave ide/4.5.0.202105191637/eclipse/arm-gcc-49/bin/../lib/gcc/arm-none-eabi/4.9.3/../../../../arm-none-eabi/lib/armv7e-m/softfp\libnosys.a
END GROUP
                0x00000800                stack_size = DEFINED (stack_size)?stack_size:0x800
                0x00000040                no_init_size = 0x40

.reset          0x08000000      0x300 load address 0x0c000000
 *(.reset)
 .reset         0x08000000      0x29c ./Startup/startup_XMC4300.o
                0x08000000                __Vectors
                0x08000200                Reset_Handler
                0x08000298                DebugMon_Handler
                0x08000298                VADC0_C0_0_IRQHandler
                0x08000298                CAN0_4_IRQHandler
                0x08000298                USIC0_5_IRQHandler
                0x08000298                HardFault_Handler
                0x08000298                VADC0_G1_1_IRQHandler
                0x08000298                SysTick_Handler
                0x08000298                PendSV_Handler
                0x08000298                NMI_Handler
                0x08000298                USIC1_3_IRQHandler
                0x08000298                CCU40_2_IRQHandler
                0x08000298                SCU_0_IRQHandler
                0x08000298                ERU0_0_IRQHandler
                0x08000298                CCU41_0_IRQHandler
                0x08000298                USIC1_5_IRQHandler
                0x08000298                CCU80_1_IRQHandler
                0x08000298                UsageFault_Handler
                0x08000298                USIC0_0_IRQHandler
                0x08000298                ERU0_2_IRQHandler
                0x08000298                ERU1_1_IRQHandler
                0x08000298                ERU0_3_IRQHandler
                0x08000298                VADC0_C0_3_IRQHandler
                0x08000298                CAN0_6_IRQHandler
                0x08000298                VADC0_G0_1_IRQHandler
                0x08000298                USIC1_1_IRQHandler
                0x08000298                CCU40_0_IRQHandler
                0x08000298                CAN0_0_IRQHandler
                0x08000298                Default_Handler
                0x08000298                USIC1_4_IRQHandler
                0x08000298                USIC1_0_IRQHandler
                0x08000298                VADC0_G0_0_IRQHandler
                0x08000298                CCU80_3_IRQHandler
                0x08000298                CCU41_3_IRQHandler
                0x08000298                CCU80_2_IRQHandler
                0x08000298                VADC0_G1_3_IRQHandler
                0x08000298                VADC0_G0_3_IRQHandler
                0x08000298                PMU0_0_IRQHandler
                0x08000298                CAN0_7_IRQHandler
                0x08000298                CCU41_2_IRQHandler
                0x08000298                VADC0_C0_1_IRQHandler
                0x08000298                MemManage_Handler
                0x08000298                DAC0_0_IRQHandler
                0x08000298                SVC_Handler
                0x08000298                ERU1_2_IRQHandler
                0x08000298                VADC0_G1_2_IRQHandler
                0x08000298                CAN0_2_IRQHandler
                0x08000298                VADC0_G0_2_IRQHandler
                0x08000298                CAN0_3_IRQHandler
                0x08000298                ETH0_0_IRQHandler
                0x08000298                USIC0_3_IRQHandler
                0x08000298                VADC0_C0_2_IRQHandler
                0x08000298                FCE0_0_IRQHandler
                0x08000298                VADC0_G1_0_IRQHandler
                0x08000298                USB0_0_IRQHandler
                0x08000298                CAN0_5_IRQHandler
                0x08000298                CCU80_0_IRQHandler
                0x08000298                CCU40_1_IRQHandler
                0x08000298                USIC0_1_IRQHandler
                0x08000298                CCU40_3_IRQHandler
                0x08000298                BusFault_Handler
                0x08000298                LEDTS0_0_IRQHandler
                0x08000298                USIC0_4_IRQHandler
                0x08000298                ERU0_1_IRQHandler
                0x08000298                USIC1_2_IRQHandler
                0x08000298                SDMMC0_0_IRQHandler
                0x08000298                CAN0_1_IRQHandler
                0x08000298                USIC0_2_IRQHandler
                0x08000298                DAC0_1_IRQHandler
                0x08000300                . = ALIGN (0x100)
 *fill*         0x0800029c       0x64 ff

.text           0x08020000     0xb39c load address 0x0c020000
                0x08020000                sText = .
 *(.text .text.* .gnu.linkonce.t.*)
 .text.SystemInit
                0x08020000       0x20 ./Startup/system_XMC4300.o
                0x08020000                SystemInit
 .text.SystemCoreClockUpdate
                0x08020020       0xd4 ./Startup/system_XMC4300.o
                0x08020020                SystemCoreClockUpdate
 .text.HW_EscRead
                0x080200f4       0x2c ./SSC/Src/coeappl.o
 .text.Read0x10F8
                0x08020120       0x5c ./SSC/Src/coeappl.o
                0x08020120                Read0x10F8
 .text.COE_SyncTimeStamp
                0x0802017c       0x9c ./SSC/Src/coeappl.o
                0x0802017c                COE_SyncTimeStamp
 .text.COE_GetObjectDictionary
                0x08020218       0x18 ./SSC/Src/coeappl.o
                0x08020218                COE_GetObjectDictionary
 .text.COE_UpdateSyncErrorStatus
                0x08020230       0x64 ./SSC/Src/coeappl.o
                0x08020230                COE_UpdateSyncErrorStatus
 .text.COE_ObjInit
                0x08020294      0x158 ./SSC/Src/coeappl.o
                0x08020294                COE_ObjInit
 .text.COE_AddObjectToDic
                0x080203ec       0xe8 ./SSC/Src/coeappl.o
                0x080203ec                COE_AddObjectToDic
 .text.COE_RemoveDicEntry
                0x080204d4       0x80 ./SSC/Src/coeappl.o
                0x080204d4                COE_RemoveDicEntry
 .text.COE_ClearObjDictionary
                0x08020554       0x3c ./SSC/Src/coeappl.o
                0x08020554                COE_ClearObjDictionary
 .text.AddObjectsToObjDictionary
                0x08020590       0x44 ./SSC/Src/coeappl.o
                0x08020590                AddObjectsToObjDictionary
 .text.COE_ObjDictionaryInit
                0x080205d4       0x44 ./SSC/Src/coeappl.o
                0x080205d4                COE_ObjDictionaryInit
 .text.COE_Main
                0x08020618       0xe8 ./SSC/Src/coeappl.o
                0x08020618                COE_Main
 .text.XMC_ECAT_GetALEventRegister
                0x08020700       0x1c ./SSC/Src/ecatappl.o
 .text.HW_EscRead
                0x0802071c       0x2c ./SSC/Src/ecatappl.o
 .text.HW_EscReadIsr
                0x08020748       0x24 ./SSC/Src/ecatappl.o
 .text.HW_EscWrite
                0x0802076c       0x2c ./SSC/Src/ecatappl.o
 .text.HW_EscWriteIsr
                0x08020798       0x24 ./SSC/Src/ecatappl.o
 .text.HW_GetALEventRegister
                0x080207bc       0x10 ./SSC/Src/ecatappl.o
 .text.HW_GetALEventRegister_Isr
                0x080207cc       0x10 ./SSC/Src/ecatappl.o
 .text.PDO_InputMapping
                0x080207dc       0x94 ./SSC/Src/ecatappl.o
                0x080207dc                PDO_InputMapping
 .text.PDO_OutputMapping
                0x08020870       0xb0 ./SSC/Src/ecatappl.o
                0x08020870                PDO_OutputMapping
 .text.ECAT_CheckTimer
                0x08020920       0xf8 ./SSC/Src/ecatappl.o
                0x08020920                ECAT_CheckTimer
 .text.HandleCycleTimeMeasurement
                0x08020a18       0x80 ./SSC/Src/ecatappl.o
                0x08020a18                HandleCycleTimeMeasurement
 .text.GetSystemTimeDelay
                0x08020a98       0x70 ./SSC/Src/ecatappl.o
                0x08020a98                GetSystemTimeDelay
 .text.PDI_Isr  0x08020b08      0x198 ./SSC/Src/ecatappl.o
                0x08020b08                PDI_Isr
 .text.Sync0_Isr
                0x08020ca0      0x170 ./SSC/Src/ecatappl.o
                0x08020ca0                Sync0_Isr
 .text.Sync1_Isr
                0x08020e10       0x50 ./SSC/Src/ecatappl.o
                0x08020e10                Sync1_Isr
 .text.MainInit
                0x08020e60      0x134 ./SSC/Src/ecatappl.o
                0x08020e60                MainInit
 .text.MainLoop
                0x08020f94      0x104 ./SSC/Src/ecatappl.o
                0x08020f94                MainLoop
 .text.ECAT_Application
                0x08021098       0x3c ./SSC/Src/ecatappl.o
                0x08021098                ECAT_Application
 .text.EEPROM_CommandHandler
                0x080210d4      0x270 ./SSC/Src/ecatappl.o
                0x080210d4                EEPROM_CommandHandler
 .text.COE_Init
                0x08021344       0x20 ./SSC/Src/ecatcoe.o
                0x08021344                COE_Init
 .text.COE_ServiceInd
                0x08021364       0x70 ./SSC/Src/ecatcoe.o
                0x08021364                COE_ServiceInd
 .text.COE_ContinueInd
                0x080213d4       0x60 ./SSC/Src/ecatcoe.o
                0x080213d4                COE_ContinueInd
 .text.XMC_ECAT_GetALEventRegister
                0x08021434       0x1c ./SSC/Src/ecatslv.o
 .text.HW_EscRead
                0x08021450       0x2c ./SSC/Src/ecatslv.o
 .text.HW_GetALEventRegister
                0x0802147c       0x10 ./SSC/Src/ecatslv.o
 .text.ResetALEventMask
                0x0802148c       0x30 ./SSC/Src/ecatslv.o
                0x0802148c                ResetALEventMask
 .text.SetALEventMask
                0x080214bc       0x30 ./SSC/Src/ecatslv.o
                0x080214bc                SetALEventMask
 .text.UpdateEEPROMLoadedState
                0x080214ec       0x44 ./SSC/Src/ecatslv.o
                0x080214ec                UpdateEEPROMLoadedState
 .text.GetSyncMan
                0x08021530       0x30 ./SSC/Src/ecatslv.o
                0x08021530                GetSyncMan
 .text.DisableSyncManChannel
                0x08021560       0x54 ./SSC/Src/ecatslv.o
                0x08021560                DisableSyncManChannel
 .text.EnableSyncManChannel
                0x080215b4       0x54 ./SSC/Src/ecatslv.o
                0x080215b4                EnableSyncManChannel
 .text.CheckSmSettings
                0x08021608      0x3bc ./SSC/Src/ecatslv.o
                0x08021608                CheckSmSettings
 .text.StartInputHandler
                0x080219c4      0x7d4 ./SSC/Src/ecatslv.o
                0x080219c4                StartInputHandler
 .text.StartOutputHandler
                0x08022198       0x9c ./SSC/Src/ecatslv.o
                0x08022198                StartOutputHandler
 .text.StopOutputHandler
                0x08022234       0x20 ./SSC/Src/ecatslv.o
                0x08022234                StopOutputHandler
 .text.StopInputHandler
                0x08022254      0x12c ./SSC/Src/ecatslv.o
                0x08022254                StopInputHandler
 .text.BackToInitTransition
                0x08022380       0x18 ./SSC/Src/ecatslv.o
                0x08022380                BackToInitTransition
 .text.SetALStatus
                0x08022398       0xc8 ./SSC/Src/ecatslv.o
                0x08022398                SetALStatus
 .text.AL_ControlInd
                0x08022460      0x6f0 ./SSC/Src/ecatslv.o
                0x08022460                AL_ControlInd
 .text.AL_ControlRes
                0x08022b50      0x314 ./SSC/Src/ecatslv.o
                0x08022b50                AL_ControlRes
 .text.DC_CheckWatchdog
                0x08022e64      0x128 ./SSC/Src/ecatslv.o
                0x08022e64                DC_CheckWatchdog
 .text.CheckIfEcatError
                0x08022f8c       0xa8 ./SSC/Src/ecatslv.o
                0x08022f8c                CheckIfEcatError
 .text.ECAT_Init
                0x08023034      0x150 ./SSC/Src/ecatslv.o
                0x08023034                ECAT_Init
 .text.ECAT_Main
                0x08023184      0x1b4 ./SSC/Src/ecatslv.o
                0x08023184                ECAT_Main
 .text.HW_EscRead
                0x08023338       0x2c ./SSC/Src/mailbox.o
 .text.HW_EscReadMbxMem
                0x08023364       0x24 ./SSC/Src/mailbox.o
 .text.HW_EscWrite
                0x08023388       0x2c ./SSC/Src/mailbox.o
 .text.HW_EscWriteMbxMem
                0x080233b4       0x24 ./SSC/Src/mailbox.o
 .text.PutInMbxQueue
                0x080233d8       0x54 ./SSC/Src/mailbox.o
                0x080233d8                PutInMbxQueue
 .text.GetOutOfMbxQueue
                0x0802342c       0x5c ./SSC/Src/mailbox.o
                0x0802342c                GetOutOfMbxQueue
 .text.MBX_Init
                0x08023488       0xf4 ./SSC/Src/mailbox.o
                0x08023488                MBX_Init
 .text.MBX_StartMailboxHandler
                0x0802357c      0x100 ./SSC/Src/mailbox.o
                0x0802357c                MBX_StartMailboxHandler
 .text.MBX_StopMailboxHandler
                0x0802367c      0x13c ./SSC/Src/mailbox.o
                0x0802367c                MBX_StopMailboxHandler
 .text.MailboxServiceInd
                0x080237b8       0x30 ./SSC/Src/mailbox.o
                0x080237b8                MailboxServiceInd
 .text.MBX_MailboxWriteInd
                0x080237e8       0xb8 ./SSC/Src/mailbox.o
                0x080237e8                MBX_MailboxWriteInd
 .text.MBX_MailboxReadInd
                0x080238a0       0xdc ./SSC/Src/mailbox.o
                0x080238a0                MBX_MailboxReadInd
 .text.MBX_MailboxRepeatReq
                0x0802397c       0x84 ./SSC/Src/mailbox.o
                0x0802397c                MBX_MailboxRepeatReq
 .text.MBX_MailboxSendReq
                0x08023a00       0xd4 ./SSC/Src/mailbox.o
                0x08023a00                MBX_MailboxSendReq
 .text.MBX_CheckAndCopyMailbox
                0x08023ad4      0x148 ./SSC/Src/mailbox.o
                0x08023ad4                MBX_CheckAndCopyMailbox
 .text.MBX_CopyToSendMailbox
                0x08023c1c      0x11c ./SSC/Src/mailbox.o
                0x08023c1c                MBX_CopyToSendMailbox
 .text.MBX_Main
                0x08023d38       0x78 ./SSC/Src/mailbox.o
                0x08023d38                MBX_Main
 .text.OBJ_GetObjectHandle
                0x08023db0       0x38 ./SSC/Src/objdef.o
                0x08023db0                OBJ_GetObjectHandle
 .text.OBJ_GetObjectLength
                0x08023de8      0x11c ./SSC/Src/objdef.o
                0x08023de8                OBJ_GetObjectLength
 .text.OBJ_CopyNumberToString
                0x08023f04       0x94 ./SSC/Src/objdef.o
                0x08023f04                OBJ_CopyNumberToString
 .text.OBJ_GetNoOfObjects
                0x08023f98       0x98 ./SSC/Src/objdef.o
                0x08023f98                OBJ_GetNoOfObjects
 .text.OBJ_GetObjectList
                0x08024030       0xfc ./SSC/Src/objdef.o
                0x08024030                OBJ_GetObjectList
 .text.OBJ_GetDesc
                0x0802412c      0x120 ./SSC/Src/objdef.o
                0x0802412c                OBJ_GetDesc
 .text.OBJ_GetEntryDesc
                0x0802424c       0x58 ./SSC/Src/objdef.o
                0x0802424c                OBJ_GetEntryDesc
 .text.OBJ_GetObjDesc
                0x080242a4       0x18 ./SSC/Src/objdef.o
                0x080242a4                OBJ_GetObjDesc
 .text.OBJ_GetEntryOffset
                0x080242bc      0x194 ./SSC/Src/objdef.o
                0x080242bc                OBJ_GetEntryOffset
 .text.CheckSyncTypeValue
                0x08024450      0x1ac ./SSC/Src/objdef.o
                0x08024450                CheckSyncTypeValue
 .text.OBJ_Read
                0x080245fc      0x5d4 ./SSC/Src/objdef.o
                0x080245fc                OBJ_Read
 .text.OBJ_Write
                0x08024bd0      0x724 ./SSC/Src/objdef.o
                0x08024bd0                OBJ_Write
 .text.APPL_AckErrorInd
                0x080252f4       0x14 ./SSC/Src/ryhand.o
                0x080252f4                APPL_AckErrorInd
 .text.APPL_StartMailboxHandler
                0x08025308       0x10 ./SSC/Src/ryhand.o
                0x08025308                APPL_StartMailboxHandler
 .text.APPL_StopMailboxHandler
                0x08025318       0x10 ./SSC/Src/ryhand.o
                0x08025318                APPL_StopMailboxHandler
 .text.APPL_StartInputHandler
                0x08025328       0x18 ./SSC/Src/ryhand.o
                0x08025328                APPL_StartInputHandler
 .text.APPL_StopInputHandler
                0x08025340       0x10 ./SSC/Src/ryhand.o
                0x08025340                APPL_StopInputHandler
 .text.APPL_StartOutputHandler
                0x08025350       0x10 ./SSC/Src/ryhand.o
                0x08025350                APPL_StartOutputHandler
 .text.APPL_StopOutputHandler
                0x08025360       0x10 ./SSC/Src/ryhand.o
                0x08025360                APPL_StopOutputHandler
 .text.APPL_GenerateMapping
                0x08025370      0x16c ./SSC/Src/ryhand.o
                0x08025370                APPL_GenerateMapping
 .text.APPL_InputMapping
                0x080254dc       0x24 ./SSC/Src/ryhand.o
                0x080254dc                APPL_InputMapping
 .text.APPL_OutputMapping
                0x08025500       0x24 ./SSC/Src/ryhand.o
                0x08025500                APPL_OutputMapping
 .text.APPL_Application
                0x08025524       0x18 ./SSC/Src/ryhand.o
                0x08025524                APPL_Application
 .text.WriteSimulateCANFD
                0x0802553c       0x20 ./SSC/Src/ryhand.o
                0x0802553c                WriteSimulateCANFD
 .text.SdoDownloadSegmentInd
                0x0802555c      0x284 ./SSC/Src/sdoserv.o
 .text.SdoUploadSegmentInd
                0x080257e0      0x168 ./SSC/Src/sdoserv.o
 .text.SdoRes   0x08025948      0x170 ./SSC/Src/sdoserv.o
                0x08025948                SdoRes
 .text.SDOS_SdoInd
                0x08025ab8      0x5d8 ./SSC/Src/sdoserv.o
                0x08025ab8                SDOS_SdoInd
 .text.SDOS_SdoRes
                0x08026090      0x124 ./SSC/Src/sdoserv.o
                0x08026090                SDOS_SdoRes
 .text.SDOS_ClearPendingResponse
                0x080261b4       0xcc ./SSC/Src/sdoserv.o
                0x080261b4                SDOS_ClearPendingResponse
 .text.SDOS_SdoInfoInd
                0x08026280      0x3fc ./SSC/Src/sdoserv.o
                0x08026280                SDOS_SdoInfoInd
 .text.XMC_ERU_Enable
                0x0802667c       0x2c ./Libraries/XMCLib/src/xmc4_eru.o
                0x0802667c                XMC_ERU_Enable
 .text.XMC_FLASH_lEnterPageModeCommand
                0x080266a8       0x20 ./Libraries/XMCLib/src/xmc4_flash.o
                0x080266a8                XMC_FLASH_lEnterPageModeCommand
 .text.XMC_FLASH_lLoadPageCommand
                0x080266c8       0x30 ./Libraries/XMCLib/src/xmc4_flash.o
                0x080266c8                XMC_FLASH_lLoadPageCommand
 .text.XMC_FLASH_lWritePageCommand
                0x080266f8       0x44 ./Libraries/XMCLib/src/xmc4_flash.o
                0x080266f8                XMC_FLASH_lWritePageCommand
 .text.XMC_FLASH_lEraseSectorCommand
                0x0802673c       0x58 ./Libraries/XMCLib/src/xmc4_flash.o
                0x0802673c                XMC_FLASH_lEraseSectorCommand
 .text.XMC_FLASH_lClearStatusCommand
                0x08026794       0x20 ./Libraries/XMCLib/src/xmc4_flash.o
                0x08026794                XMC_FLASH_lClearStatusCommand
 .text.XMC_FLASH_ClearStatus
                0x080267b4        0xc ./Libraries/XMCLib/src/xmc4_flash.o
                0x080267b4                XMC_FLASH_ClearStatus
 .text.XMC_FLASH_GetStatus
                0x080267c0       0x1c ./Libraries/XMCLib/src/xmc4_flash.o
                0x080267c0                XMC_FLASH_GetStatus
 .text.XMC_FLASH_ProgramPage
                0x080267dc       0x68 ./Libraries/XMCLib/src/xmc4_flash.o
                0x080267dc                XMC_FLASH_ProgramPage
 .text.XMC_FLASH_EraseSector
                0x08026844       0x30 ./Libraries/XMCLib/src/xmc4_flash.o
                0x08026844                XMC_FLASH_EraseSector
 .text.XMC_GPIO_Init
                0x08026874      0x14c ./Libraries/XMCLib/src/xmc4_gpio.o
                0x08026874                XMC_GPIO_Init
 .text.XMC_SCU_CLOCK_GetCpuClockFrequency
                0x080269c0       0x18 ./Libraries/XMCLib/src/xmc4_scu.o
 .text.XMC_SCU_GetMirrorStatus
                0x080269d8       0x18 ./Libraries/XMCLib/src/xmc4_scu.o
 .text.XMC_SCU_lDelay
                0x080269f0       0x44 ./Libraries/XMCLib/src/xmc4_scu.o
 .text.XMC_SCU_INTERUPT_GetEventStatus
                0x08026a34       0x18 ./Libraries/XMCLib/src/xmc4_scu.o
                0x08026a34                XMC_SCU_INTERUPT_GetEventStatus
 .text.XMC_SCU_INTERRUPT_ClearEventStatus
                0x08026a4c       0x1c ./Libraries/XMCLib/src/xmc4_scu.o
                0x08026a4c                XMC_SCU_INTERRUPT_ClearEventStatus
 .text.XMC_SCU_CLOCK_Init
                0x08026a68       0xf8 ./Libraries/XMCLib/src/xmc4_scu.o
                0x08026a68                XMC_SCU_CLOCK_Init
 .text.XMC_SCU_INTERRUPT_EnableNmiRequest
                0x08026b60       0x24 ./Libraries/XMCLib/src/xmc4_scu.o
                0x08026b60                XMC_SCU_INTERRUPT_EnableNmiRequest
 .text.XMC_SCU_RESET_DeassertPeripheralReset
                0x08026b84       0x38 ./Libraries/XMCLib/src/xmc4_scu.o
                0x08026b84                XMC_SCU_RESET_DeassertPeripheralReset
 .text.XMC_SCU_RESET_IsPeripheralResetAsserted
                0x08026bbc       0x48 ./Libraries/XMCLib/src/xmc4_scu.o
                0x08026bbc                XMC_SCU_RESET_IsPeripheralResetAsserted
 .text.XMC_SCU_CLOCK_GetPeripheralClockFrequency
                0x08026c04       0x20 ./Libraries/XMCLib/src/xmc4_scu.o
                0x08026c04                XMC_SCU_CLOCK_GetPeripheralClockFrequency
 .text.XMC_SCU_CLOCK_SetSystemClockSource
                0x08026c24       0x28 ./Libraries/XMCLib/src/xmc4_scu.o
                0x08026c24                XMC_SCU_CLOCK_SetSystemClockSource
 .text.XMC_SCU_CLOCK_SetUsbClockSource
                0x08026c4c       0x28 ./Libraries/XMCLib/src/xmc4_scu.o
                0x08026c4c                XMC_SCU_CLOCK_SetUsbClockSource
 .text.XMC_SCU_CLOCK_SetWdtClockSource
                0x08026c74       0x28 ./Libraries/XMCLib/src/xmc4_scu.o
                0x08026c74                XMC_SCU_CLOCK_SetWdtClockSource
 .text.XMC_SCU_CLOCK_SetSystemPllClockSource
                0x08026c9c       0x40 ./Libraries/XMCLib/src/xmc4_scu.o
                0x08026c9c                XMC_SCU_CLOCK_SetSystemPllClockSource
 .text.XMC_SCU_HIB_SetRtcClockSource
                0x08026cdc       0x3c ./Libraries/XMCLib/src/xmc4_scu.o
                0x08026cdc                XMC_SCU_HIB_SetRtcClockSource
 .text.XMC_SCU_HIB_SetStandbyClockSource
                0x08026d18       0x3c ./Libraries/XMCLib/src/xmc4_scu.o
                0x08026d18                XMC_SCU_HIB_SetStandbyClockSource
 .text.XMC_SCU_CLOCK_SetSystemClockDivider
                0x08026d54       0x28 ./Libraries/XMCLib/src/xmc4_scu.o
                0x08026d54                XMC_SCU_CLOCK_SetSystemClockDivider
 .text.XMC_SCU_CLOCK_SetCcuClockDivider
                0x08026d7c       0x28 ./Libraries/XMCLib/src/xmc4_scu.o
                0x08026d7c                XMC_SCU_CLOCK_SetCcuClockDivider
 .text.XMC_SCU_CLOCK_SetCpuClockDivider
                0x08026da4       0x28 ./Libraries/XMCLib/src/xmc4_scu.o
                0x08026da4                XMC_SCU_CLOCK_SetCpuClockDivider
 .text.XMC_SCU_CLOCK_SetPeripheralClockDivider
                0x08026dcc       0x28 ./Libraries/XMCLib/src/xmc4_scu.o
                0x08026dcc                XMC_SCU_CLOCK_SetPeripheralClockDivider
 .text.XMC_SCU_CLOCK_SetUsbClockDivider
                0x08026df4       0x28 ./Libraries/XMCLib/src/xmc4_scu.o
                0x08026df4                XMC_SCU_CLOCK_SetUsbClockDivider
 .text.XMC_SCU_CLOCK_SetWdtClockDivider
                0x08026e1c       0x28 ./Libraries/XMCLib/src/xmc4_scu.o
                0x08026e1c                XMC_SCU_CLOCK_SetWdtClockDivider
 .text.XMC_SCU_CLOCK_SetECATClockDivider
                0x08026e44       0x28 ./Libraries/XMCLib/src/xmc4_scu.o
                0x08026e44                XMC_SCU_CLOCK_SetECATClockDivider
 .text.XMC_SCU_CLOCK_EnableClock
                0x08026e6c       0x20 ./Libraries/XMCLib/src/xmc4_scu.o
                0x08026e6c                XMC_SCU_CLOCK_EnableClock
 .text.XMC_SCU_CLOCK_UngatePeripheralClock
                0x08026e8c       0x38 ./Libraries/XMCLib/src/xmc4_scu.o
                0x08026e8c                XMC_SCU_CLOCK_UngatePeripheralClock
 .text.XMC_SCU_CLOCK_IsPeripheralClockGated
                0x08026ec4       0x48 ./Libraries/XMCLib/src/xmc4_scu.o
                0x08026ec4                XMC_SCU_CLOCK_IsPeripheralClockGated
 .text.XMC_SCU_CLOCK_EnableUsbPll
                0x08026f0c       0x20 ./Libraries/XMCLib/src/xmc4_scu.o
                0x08026f0c                XMC_SCU_CLOCK_EnableUsbPll
 .text.XMC_SCU_CLOCK_StartUsbPll
                0x08026f2c       0xb4 ./Libraries/XMCLib/src/xmc4_scu.o
                0x08026f2c                XMC_SCU_CLOCK_StartUsbPll
 .text.XMC_SCU_CLOCK_SetBackupClockCalibrationMode
                0x08026fe0       0x4c ./Libraries/XMCLib/src/xmc4_scu.o
                0x08026fe0                XMC_SCU_CLOCK_SetBackupClockCalibrationMode
 .text.XMC_SCU_HIB_EnableHibernateDomain
                0x0802702c       0x58 ./Libraries/XMCLib/src/xmc4_scu.o
                0x0802702c                XMC_SCU_HIB_EnableHibernateDomain
 .text.XMC_SCU_CLOCK_IsLowPowerOscillatorStable
                0x08027084       0x24 ./Libraries/XMCLib/src/xmc4_scu.o
                0x08027084                XMC_SCU_CLOCK_IsLowPowerOscillatorStable
 .text.XMC_SCU_CLOCK_EnableLowPowerOscillator
                0x080270a8       0x70 ./Libraries/XMCLib/src/xmc4_scu.o
                0x080270a8                XMC_SCU_CLOCK_EnableLowPowerOscillator
 .text.XMC_SCU_CLOCK_EnableHighPerformanceOscillator
                0x08027118       0x50 ./Libraries/XMCLib/src/xmc4_scu.o
                0x08027118                XMC_SCU_CLOCK_EnableHighPerformanceOscillator
 .text.XMC_SCU_CLOCK_IsHighPerformanceOscillatorStable
                0x08027168       0x28 ./Libraries/XMCLib/src/xmc4_scu.o
                0x08027168                XMC_SCU_CLOCK_IsHighPerformanceOscillatorStable
 .text.XMC_SCU_CLOCK_EnableSystemPll
                0x08027190       0x20 ./Libraries/XMCLib/src/xmc4_scu.o
                0x08027190                XMC_SCU_CLOCK_EnableSystemPll
 .text.XMC_SCU_CLOCK_DisableSystemPll
                0x080271b0       0x20 ./Libraries/XMCLib/src/xmc4_scu.o
                0x080271b0                XMC_SCU_CLOCK_DisableSystemPll
 .text.XMC_SCU_CLOCK_StartSystemPll
                0x080271d0      0x19c ./Libraries/XMCLib/src/xmc4_scu.o
                0x080271d0                XMC_SCU_CLOCK_StartSystemPll
 .text.XMC_SCU_CLOCK_StepSystemPllFrequency
                0x0802736c       0x3c ./Libraries/XMCLib/src/xmc4_scu.o
                0x0802736c                XMC_SCU_CLOCK_StepSystemPllFrequency
 .text.XMC_CCU4_StartPrescaler
                0x080273a8       0x1c ./Libraries/XMCLib/src/xmc_ccu4.o
 .text.XMC_CCU4_lDeassertReset
                0x080273c4       0x34 ./Libraries/XMCLib/src/xmc_ccu4.o
 .text.XMC_CCU4_lUngateClock
                0x080273f8       0x34 ./Libraries/XMCLib/src/xmc_ccu4.o
 .text.XMC_CCU4_EnableModule
                0x0802742c       0x20 ./Libraries/XMCLib/src/xmc_ccu4.o
                0x0802742c                XMC_CCU4_EnableModule
 .text.XMC_CCU4_Init
                0x0802744c       0x3c ./Libraries/XMCLib/src/xmc_ccu4.o
                0x0802744c                XMC_CCU4_Init
 .text.XMC_CCU4_SLICE_CompareInit
                0x08027488       0x6c ./Libraries/XMCLib/src/xmc_ccu4.o
                0x08027488                XMC_CCU4_SLICE_CompareInit
 .text.XMC_CCU4_SLICE_SetInterruptNode
                0x080274f4       0xc8 ./Libraries/XMCLib/src/xmc_ccu4.o
                0x080274f4                XMC_CCU4_SLICE_SetInterruptNode
 .text.XMC_DMA_GetEventStatus
                0x080275bc       0x1c ./Libraries/XMCLib/src/xmc_dma.o
 .text.XMC_DMA_GetChannelsTransferCompleteStatus
                0x080275d8       0x1c ./Libraries/XMCLib/src/xmc_dma.o
 .text.XMC_DMA_GetChannelsBlockCompleteStatus
                0x080275f4       0x1c ./Libraries/XMCLib/src/xmc_dma.o
 .text.XMC_DMA_GetChannelsSourceTransactionCompleteStatus
                0x08027610       0x1c ./Libraries/XMCLib/src/xmc_dma.o
 .text.XMC_DMA_GetChannelsDestinationTransactionCompleteStatus
                0x0802762c       0x1c ./Libraries/XMCLib/src/xmc_dma.o
 .text.XMC_DMA_GetChannelsErrorStatus
                0x08027648       0x1c ./Libraries/XMCLib/src/xmc_dma.o
 .text.XMC_DMA_Init
                0x08027664       0x14 ./Libraries/XMCLib/src/xmc_dma.o
                0x08027664                XMC_DMA_Init
 .text.XMC_DMA_Enable
                0x08027678       0x28 ./Libraries/XMCLib/src/xmc_dma.o
                0x08027678                XMC_DMA_Enable
 .text.XMC_DMA_IsEnabled
                0x080276a0       0x88 ./Libraries/XMCLib/src/xmc_dma.o
                0x080276a0                XMC_DMA_IsEnabled
 .text.XMC_DMA_EnableRequestLine
                0x08027728       0x54 ./Libraries/XMCLib/src/xmc_dma.o
                0x08027728                XMC_DMA_EnableRequestLine
 .text.XMC_DMA_CH_IsEnabled
                0x0802777c       0x34 ./Libraries/XMCLib/src/xmc_dma.o
                0x0802777c                XMC_DMA_CH_IsEnabled
 .text.XMC_DMA_CH_Init
                0x080277b0      0x3e0 ./Libraries/XMCLib/src/xmc_dma.o
                0x080277b0                XMC_DMA_CH_Init
 .text.XMC_DMA_CH_EnableEvent
                0x08027b90       0x50 ./Libraries/XMCLib/src/xmc_dma.o
                0x08027b90                XMC_DMA_CH_EnableEvent
 .text.XMC_DMA_CH_ClearEventStatus
                0x08027be0       0x4c ./Libraries/XMCLib/src/xmc_dma.o
                0x08027be0                XMC_DMA_CH_ClearEventStatus
 .text.XMC_DMA_CH_SetEventHandler
                0x08027c2c       0x28 ./Libraries/XMCLib/src/xmc_dma.o
                0x08027c2c                XMC_DMA_CH_SetEventHandler
 .text.XMC_DMA_IRQHandler
                0x08027c54      0x20c ./Libraries/XMCLib/src/xmc_dma.o
                0x08027c54                XMC_DMA_IRQHandler
 .text.XMC_ECAT_Enable
                0x08027e60       0x24 ./Libraries/XMCLib/src/xmc_ecat.o
                0x08027e60                XMC_ECAT_Enable
 .text.XMC_ECAT_Init
                0x08027e84       0x78 ./Libraries/XMCLib/src/xmc_ecat.o
                0x08027e84                XMC_ECAT_Init
 .text.XMC_ECAT_DisableEvent
                0x08027efc       0x28 ./Libraries/XMCLib/src/xmc_ecat.o
                0x08027efc                XMC_ECAT_DisableEvent
 .text.XMC_ECAT_DisableSyncManChannel
                0x08027f24       0x38 ./Libraries/XMCLib/src/xmc_ecat.o
                0x08027f24                XMC_ECAT_DisableSyncManChannel
 .text.XMC_ERU_ETL_Init
                0x08027f5c       0x4c ./Libraries/XMCLib/src/xmc_eru.o
                0x08027f5c                XMC_ERU_ETL_Init
 .text.XMC_ERU_OGU_Init
                0x08027fa8       0x28 ./Libraries/XMCLib/src/xmc_eru.o
                0x08027fa8                XMC_ERU_OGU_Init
 .text.XMC_FCE_Init
                0x08027fd0       0x2c ./Libraries/XMCLib/src/xmc_fce.o
                0x08027fd0                XMC_FCE_Init
 .text.XMC_FCE_Enable
                0x08027ffc       0x28 ./Libraries/XMCLib/src/xmc_fce.o
                0x08027ffc                XMC_FCE_Enable
 .text.XMC_FCE_CalculateCRC32
                0x08028024       0x60 ./Libraries/XMCLib/src/xmc_fce.o
                0x08028024                XMC_FCE_CalculateCRC32
 .text.XMC_GPIO_SetHardwareControl
                0x08028084       0x44 ./Libraries/XMCLib/src/xmc_gpio.o
                0x08028084                XMC_GPIO_SetHardwareControl
 .text.XMC_SPI_CH_InitEx
                0x080280c8       0x8c ./Libraries/XMCLib/src/xmc_spi.o
                0x080280c8                XMC_SPI_CH_InitEx
 .text.XMC_SPI_CH_GetReceivedData
                0x08028154       0x34 ./Libraries/XMCLib/src/xmc_spi.o
                0x08028154                XMC_SPI_CH_GetReceivedData
 .text.XMC_SPI_CH_EnableEvent
                0x08028188       0x34 ./Libraries/XMCLib/src/xmc_spi.o
                0x08028188                XMC_SPI_CH_EnableEvent
 .text.XMC_SPI_CH_DisableEvent
                0x080281bc       0x38 ./Libraries/XMCLib/src/xmc_spi.o
                0x080281bc                XMC_SPI_CH_DisableEvent
 .text.XMC_USIC_CH_Enable
                0x080281f4       0x74 ./Libraries/XMCLib/src/xmc_usic.o
                0x080281f4                XMC_USIC_CH_Enable
 .text.XMC_USIC_CH_SetBaudrate
                0x08028268       0xe4 ./Libraries/XMCLib/src/xmc_usic.o
                0x08028268                XMC_USIC_CH_SetBaudrate
 .text.XMC_USIC_CH_SetBaudrateEx
                0x0802834c      0x100 ./Libraries/XMCLib/src/xmc_usic.o
                0x0802834c                XMC_USIC_CH_SetBaudrateEx
 .text.XMC_USIC_CH_SetInterruptNodePointer
                0x0802844c       0x38 ./Libraries/XMCLib/src/xmc_usic.o
                0x0802844c                XMC_USIC_CH_SetInterruptNodePointer
 .text.XMC_USIC_Enable
                0x08028484       0x84 ./Libraries/XMCLib/src/xmc_usic.o
                0x08028484                XMC_USIC_Enable
 .text._sbrk    0x08028508       0x68 ./Libraries/Newlib/syscalls.o
                0x08028508                _sbrk
 .text._init    0x08028570        0xc ./Libraries/Newlib/syscalls.o
                0x08028570                _init
 .text.XMC_CCU4_EnableClock
                0x0802857c       0x20 ./Dave/Generated/TIMER/timer.o
 .text.XMC_CCU4_SLICE_StartTimer
                0x0802859c       0x18 ./Dave/Generated/TIMER/timer.o
 .text.XMC_CCU4_SLICE_ClearTimer
                0x080285b4       0x18 ./Dave/Generated/TIMER/timer.o
 .text.XMC_CCU4_SLICE_SetTimerPeriodMatch
                0x080285cc       0x1c ./Dave/Generated/TIMER/timer.o
 .text.XMC_CCU4_SLICE_SetTimerCompareMatch
                0x080285e8       0x1c ./Dave/Generated/TIMER/timer.o
 .text.XMC_CCU4_EnableShadowTransfer
                0x08028604       0x1c ./Dave/Generated/TIMER/timer.o
 .text.XMC_CCU4_SLICE_EnableEvent
                0x08028620       0x2c ./Dave/Generated/TIMER/timer.o
 .text.TIMER_Init
                0x0802864c       0x3c ./Dave/Generated/TIMER/timer.o
                0x0802864c                TIMER_Init
 .text.TIMER_Start
                0x08028688       0x3c ./Dave/Generated/TIMER/timer.o
                0x08028688                TIMER_Start
 .text.TIMER_CCU4_lInit
                0x080286c4       0x98 ./Dave/Generated/TIMER/timer.o
                0x080286c4                TIMER_CCU4_lInit
 .text.TIMER_CCU4_lShadowTransfer
                0x0802875c       0x3c ./Dave/Generated/TIMER/timer.o
                0x0802875c                TIMER_CCU4_lShadowTransfer
 .text.XMC_SPI_CH_SetTransmitMode
                0x08028798       0x2c ./Dave/Generated/SPI_MASTER/spi_master.o
 .text.XMC_DMA_CH_Enable
                0x080287c4       0x24 ./Dave/Generated/SPI_MASTER/spi_master.o
 .text.XMC_DMA_CH_SetSourceAddress
                0x080287e8       0x28 ./Dave/Generated/SPI_MASTER/spi_master.o
 .text.XMC_DMA_CH_SetDestinationAddress
                0x08028810       0x2c ./Dave/Generated/SPI_MASTER/spi_master.o
 .text.XMC_DMA_CH_SetBlockSize
                0x0802883c       0x2c ./Dave/Generated/SPI_MASTER/spi_master.o
 .text.SPI_MASTER_Init
                0x08028868       0x20 ./Dave/Generated/SPI_MASTER/spi_master.o
                0x08028868                SPI_MASTER_Init
 .text.SPI_MASTER_Transmit
                0x08028888       0x34 ./Dave/Generated/SPI_MASTER/spi_master.o
                0x08028888                SPI_MASTER_Transmit
 .text.SPI_MASTER_StartTransmitDMA
                0x080288bc      0x1a8 ./Dave/Generated/SPI_MASTER/spi_master.o
                0x080288bc                SPI_MASTER_StartTransmitDMA
 .text.SPI_MASTER_Transfer
                0x08028a64       0xb0 ./Dave/Generated/SPI_MASTER/spi_master.o
                0x08028a64                SPI_MASTER_Transfer
 .text.SPI_MASTER_lReceiveDMA
                0x08028b14       0xb4 ./Dave/Generated/SPI_MASTER/spi_master.o
 .text.SPI_MASTER_lStdRBUFFlush
                0x08028bc8       0x1c ./Dave/Generated/SPI_MASTER/spi_master.o
 .text.XMC_USIC_CH_SetInputSource
                0x08028be4       0x3c ./Dave/Generated/SPI_MASTER/spi_master_conf.o
 .text.XMC_USIC_CH_SetWordLength
                0x08028c20       0x2c ./Dave/Generated/SPI_MASTER/spi_master_conf.o
 .text.XMC_USIC_CH_SetFrameLength
                0x08028c4c       0x2c ./Dave/Generated/SPI_MASTER/spi_master_conf.o
 .text.XMC_USIC_CH_GetTransmitBufferStatus
                0x08028c78       0x20 ./Dave/Generated/SPI_MASTER/spi_master_conf.o
 .text.XMC_USIC_CH_TriggerServiceRequest
                0x08028c98       0x20 ./Dave/Generated/SPI_MASTER/spi_master_conf.o
 .text.XMC_USIC_CH_ConfigureShiftClockOutput
                0x08028cb8       0x2c ./Dave/Generated/SPI_MASTER/spi_master_conf.o
 .text.XMC_USIC_CH_SetMode
                0x08028ce4       0x28 ./Dave/Generated/SPI_MASTER/spi_master_conf.o
 .text.XMC_SPI_CH_Init
                0x08028d0c       0x1c ./Dave/Generated/SPI_MASTER/spi_master_conf.o
 .text.XMC_SPI_CH_Start
                0x08028d28       0x18 ./Dave/Generated/SPI_MASTER/spi_master_conf.o
 .text.XMC_SPI_CH_SetBitOrderMsbFirst
                0x08028d40       0x20 ./Dave/Generated/SPI_MASTER/spi_master_conf.o
 .text.XMC_SPI_CH_SetSlaveSelectDelay
                0x08028d60       0x2c ./Dave/Generated/SPI_MASTER/spi_master_conf.o
 .text.XMC_SPI_CH_ConfigureShiftClockOutput
                0x08028d8c       0x1c ./Dave/Generated/SPI_MASTER/spi_master_conf.o
 .text.XMC_SPI_CH_SetWordLength
                0x08028da8       0x1c ./Dave/Generated/SPI_MASTER/spi_master_conf.o
 .text.XMC_SPI_CH_SetFrameLength
                0x08028dc4       0x1c ./Dave/Generated/SPI_MASTER/spi_master_conf.o
 .text.XMC_SPI_CH_SetInputSource
                0x08028de0       0x44 ./Dave/Generated/SPI_MASTER/spi_master_conf.o
 .text.SPI_MASTER_0_lInit
                0x08028e24      0x120 ./Dave/Generated/SPI_MASTER/spi_master_conf.o
 .text.SPI_MASTER_0_DMA_tx_handler
                0x08028f44       0x38 ./Dave/Generated/SPI_MASTER/spi_master_conf.o
                0x08028f44                SPI_MASTER_0_DMA_tx_handler
 .text.SPI_MASTER_0_DMA_rx_handler
                0x08028f7c       0x44 ./Dave/Generated/SPI_MASTER/spi_master_conf.o
                0x08028f7c                SPI_MASTER_0_DMA_rx_handler
 .text.__NVIC_GetPriorityGrouping
                0x08028fc0       0x1c ./Dave/Generated/INTERRUPT/interrupt.o
 .text.__NVIC_EnableIRQ
                0x08028fdc       0x38 ./Dave/Generated/INTERRUPT/interrupt.o
 .text.__NVIC_SetPriority
                0x08029014       0x54 ./Dave/Generated/INTERRUPT/interrupt.o
 .text.NVIC_EncodePriority
                0x08029068       0x64 ./Dave/Generated/INTERRUPT/interrupt.o
 .text.INTERRUPT_Enable
                0x080290cc       0x1c ./Dave/Generated/INTERRUPT/interrupt.o
 .text.INTERRUPT_Init
                0x080290e8       0x4c ./Dave/Generated/INTERRUPT/interrupt.o
                0x080290e8                INTERRUPT_Init
 .text.__NVIC_GetPriorityGrouping
                0x08029134       0x1c ./Dave/Generated/GLOBAL_DMA/global_dma.o
 .text.__NVIC_EnableIRQ
                0x08029150       0x38 ./Dave/Generated/GLOBAL_DMA/global_dma.o
 .text.__NVIC_SetPriority
                0x08029188       0x54 ./Dave/Generated/GLOBAL_DMA/global_dma.o
 .text.NVIC_EncodePriority
                0x080291dc       0x64 ./Dave/Generated/GLOBAL_DMA/global_dma.o
 .text.GLOBAL_DMA_Init
                0x08029240       0x6c ./Dave/Generated/GLOBAL_DMA/global_dma.o
                0x08029240                GLOBAL_DMA_Init
 .text.GPDMA0_0_IRQHandler
                0x080292ac       0x10 ./Dave/Generated/GLOBAL_DMA/global_dma_conf.o
                0x080292ac                GPDMA0_0_IRQHandler
 .text.XMC_CCU4_StartPrescaler
                0x080292bc       0x1c ./Dave/Generated/GLOBAL_CCU4/global_ccu4.o
 .text.GLOBAL_CCU4_Init
                0x080292d8       0x40 ./Dave/Generated/GLOBAL_CCU4/global_ccu4.o
                0x080292d8                GLOBAL_CCU4_Init
 .text.XMC_FLASH_SetMargin
                0x08029318       0x34 ./Dave/Generated/E_EEPROM_XMC4/e_eeprom_xmc4.o
 .text.XMC_FLASH_EnableDoubleBitErrorTrap
                0x0802934c       0x28 ./Dave/Generated/E_EEPROM_XMC4/e_eeprom_xmc4.o
 .text.XMC_FLASH_DisableDoubleBitErrorTrap
                0x08029374       0x28 ./Dave/Generated/E_EEPROM_XMC4/e_eeprom_xmc4.o
 .text.XMC_FCE_InitializeSeedValue
                0x0802939c       0x1c ./Dave/Generated/E_EEPROM_XMC4/e_eeprom_xmc4.o
 .text.E_EEPROM_XMC4_Init
                0x080293b8       0xd4 ./Dave/Generated/E_EEPROM_XMC4/e_eeprom_xmc4.o
                0x080293b8                E_EEPROM_XMC4_Init
 .text.E_EEPROM_XMC4_WriteArray
                0x0802948c       0x64 ./Dave/Generated/E_EEPROM_XMC4/e_eeprom_xmc4.o
                0x0802948c                E_EEPROM_XMC4_WriteArray
 .text.E_EEPROM_XMC4_ReadArray
                0x080294f0       0x4c ./Dave/Generated/E_EEPROM_XMC4/e_eeprom_xmc4.o
                0x080294f0                E_EEPROM_XMC4_ReadArray
 .text.E_EEPROM_XMC4_UpdateFlashContents
                0x0802953c       0xa4 ./Dave/Generated/E_EEPROM_XMC4/e_eeprom_xmc4.o
                0x0802953c                E_EEPROM_XMC4_UpdateFlashContents
 .text.E_EEPROM_XMC4_IsFlashEmpty
                0x080295e0       0x28 ./Dave/Generated/E_EEPROM_XMC4/e_eeprom_xmc4.o
                0x080295e0                E_EEPROM_XMC4_IsFlashEmpty
 .text.E_EEPROM_XMC4_lWriteToFlash
                0x08029608       0x7c ./Dave/Generated/E_EEPROM_XMC4/e_eeprom_xmc4.o
 .text.E_EEPROM_XMC4_lInitReadSectorInfo
                0x08029684       0xac ./Dave/Generated/E_EEPROM_XMC4/e_eeprom_xmc4.o
 .text.E_EEPROM_XMC4_lInitEraseStateMachine
                0x08029730       0x80 ./Dave/Generated/E_EEPROM_XMC4/e_eeprom_xmc4.o
 .text.E_EEPROM_XMC4_lCalculateCRC
                0x080297b0       0x30 ./Dave/Generated/E_EEPROM_XMC4/e_eeprom_xmc4.o
 .text.E_EEPROM_XMC4_lCopyFlashToRam
                0x080297e0       0x4c ./Dave/Generated/E_EEPROM_XMC4/e_eeprom_xmc4.o
 .text.EVENT_GENERATOR_Init
                0x0802982c       0x48 ./Dave/Generated/EVENT_GENERATOR/event_generator.o
                0x0802982c                EVENT_GENERATOR_Init
 .text.EVENT_DETECTOR_Init
                0x08029874       0x3c ./Dave/Generated/EVENT_DETECTOR/event_detector.o
                0x08029874                EVENT_DETECTOR_Init
 .text.ECAT_SSC_Init
                0x080298b0       0xd0 ./Dave/Generated/ECAT_SSC/ecat_ssc.o
                0x080298b0                ECAT_SSC_Init
 .text.ENABLE_ESC_INT_USER
                0x08029980        0xc ./Dave/Generated/ECAT_SSC/ecat_ssc.o
                0x08029980                ENABLE_ESC_INT_USER
 .text.DISABLE_ESC_INT_USER
                0x0802998c        0xc ./Dave/Generated/ECAT_SSC/ecat_ssc.o
                0x0802998c                DISABLE_ESC_INT_USER
 .text.__NVIC_GetPriorityGrouping
                0x08029998       0x1c ./Dave/Generated/ECAT_SSC/xmc_eschw.o
 .text.__NVIC_EnableIRQ
                0x080299b4       0x38 ./Dave/Generated/ECAT_SSC/xmc_eschw.o
 .text.__NVIC_DisableIRQ
                0x080299ec       0x44 ./Dave/Generated/ECAT_SSC/xmc_eschw.o
 .text.__NVIC_SetPriority
                0x08029a30       0x54 ./Dave/Generated/ECAT_SSC/xmc_eschw.o
 .text.NVIC_EncodePriority
                0x08029a84       0x64 ./Dave/Generated/ECAT_SSC/xmc_eschw.o
 .text.XMC_ECAT_SetPortControl
                0x08029ae8       0x2c ./Dave/Generated/ECAT_SSC/xmc_eschw.o
 .text.HW_EscRead
                0x08029b14       0x2c ./Dave/Generated/ECAT_SSC/xmc_eschw.o
 .text.HW_EscWrite
                0x08029b40       0x2c ./Dave/Generated/ECAT_SSC/xmc_eschw.o
 .text.INTERRUPT_Enable
                0x08029b6c       0x1c ./Dave/Generated/ECAT_SSC/xmc_eschw.o
 .text.INTERRUPT_Disable
                0x08029b88       0x1c ./Dave/Generated/ECAT_SSC/xmc_eschw.o
 .text.HW_Init  0x08029ba4      0x25c ./Dave/Generated/ECAT_SSC/xmc_eschw.o
                0x08029ba4                HW_Init
 .text.HW_EepromWrite
                0x08029e00       0x94 ./Dave/Generated/ECAT_SSC/xmc_eschw.o
                0x08029e00                HW_EepromWrite
 .text.HW_EepromReload
                0x08029e94       0x8c ./Dave/Generated/ECAT_SSC/xmc_eschw.o
                0x08029e94                HW_EepromReload
 .text.ECAT0_0_IRQHandler
                0x08029f20        0xc ./Dave/Generated/ECAT_SSC/xmc_eschw.o
                0x08029f20                ECAT0_0_IRQHandler
 .text.CCU41_1_IRQHandler
                0x08029f2c       0x18 ./Dave/Generated/ECAT_SSC/xmc_eschw.o
                0x08029f2c                CCU41_1_IRQHandler
 .text.ENABLE_ESC_INT
                0x08029f44       0x1c ./Dave/Generated/ECAT_SSC/xmc_eschw.o
                0x08029f44                ENABLE_ESC_INT
 .text.DISABLE_ESC_INT
                0x08029f60       0x40 ./Dave/Generated/ECAT_SSC/xmc_eschw.o
                0x08029f60                DISABLE_ESC_INT
 .text.DIGITAL_IO_Init
                0x08029fa0       0x40 ./Dave/Generated/DIGITAL_IO/digital_io.o
                0x08029fa0                DIGITAL_IO_Init
 .text.__NVIC_SetPriorityGrouping
                0x08029fe0       0x48 ./Dave/Generated/CPU_CTRL_XMC4/cpu_ctrl_xmc4_conf.o
 .text.SystemCoreSetup
                0x0802a028       0xa0 ./Dave/Generated/CPU_CTRL_XMC4/cpu_ctrl_xmc4_conf.o
                0x0802a028                SystemCoreSetup
 .text.CLOCK_XMC4_Init
                0x0802a0c8       0x20 ./Dave/Generated/CLOCK_XMC4/clock_xmc4.o
                0x0802a0c8                CLOCK_XMC4_Init
 .text.OSCHP_GetFrequency
                0x0802a0e8       0x14 ./Dave/Generated/CLOCK_XMC4/clock_xmc4.o
                0x0802a0e8                OSCHP_GetFrequency
 .text.XMC_SCU_CLOCK_SetECATClockSource
                0x0802a0fc       0x28 ./Dave/Generated/CLOCK_XMC4/clock_xmc4_conf.o
 .text.SystemCoreClockSetup
                0x0802a124       0x60 ./Dave/Generated/CLOCK_XMC4/clock_xmc4_conf.o
                0x0802a124                SystemCoreClockSetup
 .text.DAVE_Init
                0x0802a184      0x100 ./Dave/Generated/DAVE.o
                0x0802a184                DAVE_Init
 .text.XMC_GPIO_SetOutputLevel
                0x0802a284       0x24 ./main.o
 .text.XMC_GPIO_SetOutputHigh
                0x0802a2a8       0x20 ./main.o
 .text.XMC_GPIO_SetOutputLow
                0x0802a2c8       0x24 ./main.o
 .text.DIGITAL_IO_SetOutputHigh
                0x0802a2ec       0x20 ./main.o
 .text.DIGITAL_IO_SetOutputLow
                0x0802a30c       0x20 ./main.o
 .text.SPI_MASTER_IsTxBusy
                0x0802a32c       0x20 ./main.o
 .text.SPI_MASTER_IsRxBusy
                0x0802a34c       0x1c ./main.o
 .text.Delay_us
                0x0802a368       0x28 ./main.o
                0x0802a368                Delay_us
 .text.process_app
                0x0802a390       0x30 ./main.o
                0x0802a390                process_app
 .text.SPI_DMA_GenericTransfer
                0x0802a3c0       0x78 ./main.o
                0x0802a3c0                SPI_DMA_GenericTransfer
 .text.SPI_TMC6460_ReadRegister
                0x0802a438       0xc0 ./main.o
                0x0802a438                SPI_TMC6460_ReadRegister
 .text.main     0x0802a4f8       0x90 ./main.o
                0x0802a4f8                main
 .text.ERU1_0_IRQHandler
                0x0802a588        0xc ./main.o
                0x0802a588                ERU1_0_IRQHandler
 .text.ERU1_3_IRQHandler
                0x0802a594        0xc ./main.o
                0x0802a594                ERU1_3_IRQHandler
 .text.__errno  0x0802a5a0        0xc d:/infineon/tools/dave ide/4.5.0.202105191637/eclipse/arm-gcc-49/bin/../lib/gcc/arm-none-eabi/4.9.3/../../../../arm-none-eabi/lib/armv7e-m/softfp\libg_nano.a(lib_a-errno.o)
                0x0802a5a0                __errno
 .text.__libc_init_array
                0x0802a5ac       0x4c d:/infineon/tools/dave ide/4.5.0.202105191637/eclipse/arm-gcc-49/bin/../lib/gcc/arm-none-eabi/4.9.3/../../../../arm-none-eabi/lib/armv7e-m/softfp\libg_nano.a(lib_a-init.o)
                0x0802a5ac                __libc_init_array
 .text.malloc   0x0802a5f8       0x10 d:/infineon/tools/dave ide/4.5.0.202105191637/eclipse/arm-gcc-49/bin/../lib/gcc/arm-none-eabi/4.9.3/../../../../arm-none-eabi/lib/armv7e-m/softfp\libg_nano.a(lib_a-malloc.o)
                0x0802a5f8                malloc
 .text.free     0x0802a608       0x10 d:/infineon/tools/dave ide/4.5.0.202105191637/eclipse/arm-gcc-49/bin/../lib/gcc/arm-none-eabi/4.9.3/../../../../arm-none-eabi/lib/armv7e-m/softfp\libg_nano.a(lib_a-malloc.o)
                0x0802a608                free
 .text.memcmp   0x0802a618       0x20 d:/infineon/tools/dave ide/4.5.0.202105191637/eclipse/arm-gcc-49/bin/../lib/gcc/arm-none-eabi/4.9.3/../../../../arm-none-eabi/lib/armv7e-m/softfp\libg_nano.a(lib_a-memcmp.o)
                0x0802a618                memcmp
 .text.memcpy   0x0802a638       0x16 d:/infineon/tools/dave ide/4.5.0.202105191637/eclipse/arm-gcc-49/bin/../lib/gcc/arm-none-eabi/4.9.3/../../../../arm-none-eabi/lib/armv7e-m/softfp\libg_nano.a(lib_a-memcpy.o)
                0x0802a638                memcpy
 .text.memset   0x0802a64e       0x10 d:/infineon/tools/dave ide/4.5.0.202105191637/eclipse/arm-gcc-49/bin/../lib/gcc/arm-none-eabi/4.9.3/../../../../arm-none-eabi/lib/armv7e-m/softfp\libg_nano.a(lib_a-memset.o)
                0x0802a64e                memset
 *fill*         0x0802a65e        0x2 
 .text._free_r  0x0802a660       0x88 d:/infineon/tools/dave ide/4.5.0.202105191637/eclipse/arm-gcc-49/bin/../lib/gcc/arm-none-eabi/4.9.3/../../../../arm-none-eabi/lib/armv7e-m/softfp\libg_nano.a(lib_a-nano-freer.o)
                0x0802a660                _free_r
 .text._malloc_r
                0x0802a6e8       0xac d:/infineon/tools/dave ide/4.5.0.202105191637/eclipse/arm-gcc-49/bin/../lib/gcc/arm-none-eabi/4.9.3/../../../../arm-none-eabi/lib/armv7e-m/softfp\libg_nano.a(lib_a-nano-mallocr.o)
                0x0802a6e8                _malloc_r
 .text._sbrk_r  0x0802a794       0x20 d:/infineon/tools/dave ide/4.5.0.202105191637/eclipse/arm-gcc-49/bin/../lib/gcc/arm-none-eabi/4.9.3/../../../../arm-none-eabi/lib/armv7e-m/softfp\libg_nano.a(lib_a-sbrkr.o)
                0x0802a794                _sbrk_r
 .text.strlen   0x0802a7b4       0x10 d:/infineon/tools/dave ide/4.5.0.202105191637/eclipse/arm-gcc-49/bin/../lib/gcc/arm-none-eabi/4.9.3/../../../../arm-none-eabi/lib/armv7e-m/softfp\libg_nano.a(lib_a-strlen.o)
                0x0802a7b4                strlen
 *(.init)
 *(.fini)
 *crtbegin.o(.ctors)
 *crtbegin?.o(.ctors)
 *(EXCLUDE_FILE(*crtend.o *crtend?.o) .ctors)
 *(SORT(.ctors.*))
 *(.ctors)
 *crtbegin.o(.dtors)
 *crtbegin?.o(.dtors)
 *(EXCLUDE_FILE(*crtend.o *crtend?.o) .dtors)
 *(SORT(.dtors.*))
 *(.dtors)
 *(.rodata .rodata.*)
 .rodata.asEntryDesc0x1600
                0x0802a7c4       0x50 ./SSC/Src/coeappl.o
                0x0802a7c4                asEntryDesc0x1600
 .rodata.aName0x1600
                0x0802a814       0xbc ./SSC/Src/coeappl.o
                0x0802a814                aName0x1600
 .rodata.asEntryDesc0x1A00
                0x0802a8d0       0x50 ./SSC/Src/coeappl.o
                0x0802a8d0                asEntryDesc0x1A00
 .rodata.aName0x1A00
                0x0802a920       0xbc ./SSC/Src/coeappl.o
                0x0802a920                aName0x1A00
 .rodata.asEntryDesc0x1C12
                0x0802a9dc        0xc ./SSC/Src/coeappl.o
                0x0802a9dc                asEntryDesc0x1C12
 .rodata.aName0x1C12
                0x0802a9e8       0x1c ./SSC/Src/coeappl.o
                0x0802a9e8                aName0x1C12
 .rodata.asEntryDesc0x1C13
                0x0802aa04        0xc ./SSC/Src/coeappl.o
                0x0802aa04                asEntryDesc0x1C13
 .rodata.aName0x1C13
                0x0802aa10       0x1c ./SSC/Src/coeappl.o
                0x0802aa10                aName0x1C13
 .rodata.asEntryDesc0x6000
                0x0802aa2c       0x50 ./SSC/Src/coeappl.o
                0x0802aa2c                asEntryDesc0x6000
 .rodata.aName0x6000
                0x0802aa7c       0x70 ./SSC/Src/coeappl.o
                0x0802aa7c                aName0x6000
 .rodata.asEntryDesc0x7000
                0x0802aaec       0x50 ./SSC/Src/coeappl.o
                0x0802aaec                asEntryDesc0x7000
 .rodata.aName0x7000
                0x0802ab3c       0x70 ./SSC/Src/coeappl.o
                0x0802ab3c                aName0x7000
 .rodata.asEntryDesc0x8000
                0x0802abac       0x54 ./SSC/Src/coeappl.o
                0x0802abac                asEntryDesc0x8000
 .rodata.aName0x8000
                0x0802ac00       0x70 ./SSC/Src/coeappl.o
                0x0802ac00                aName0x8000
 .rodata.asEntryDesc0x9000
                0x0802ac70       0x38 ./SSC/Src/coeappl.o
                0x0802ac70                asEntryDesc0x9000
 .rodata.aName0x9000
                0x0802aca8       0x44 ./SSC/Src/coeappl.o
                0x0802aca8                aName0x9000
 .rodata.sEntryDesc0x9001
                0x0802acec        0x8 ./SSC/Src/coeappl.o
                0x0802acec                sEntryDesc0x9001
 .rodata.aName0x9001
                0x0802acf4       0x10 ./SSC/Src/coeappl.o
                0x0802acf4                aName0x9001
 .rodata.asEntryDesc0xF000
                0x0802ad04       0x14 ./SSC/Src/coeappl.o
                0x0802ad04                asEntryDesc0xF000
 .rodata.aName0xF000
                0x0802ad18       0x44 ./SSC/Src/coeappl.o
                0x0802ad18                aName0xF000
 .rodata.sEntryDesc0x1000
                0x0802ad5c        0x8 ./SSC/Src/coeappl.o
                0x0802ad5c                sEntryDesc0x1000
 .rodata.aName0x1000
                0x0802ad64        0xc ./SSC/Src/coeappl.o
                0x0802ad64                aName0x1000
 .rodata.sEntryDesc0x1001
                0x0802ad70        0x8 ./SSC/Src/coeappl.o
                0x0802ad70                sEntryDesc0x1001
 .rodata.aName0x1001
                0x0802ad78       0x10 ./SSC/Src/coeappl.o
                0x0802ad78                aName0x1001
 .rodata.sEntryDesc0x1008
                0x0802ad88        0x8 ./SSC/Src/coeappl.o
                0x0802ad88                sEntryDesc0x1008
 .rodata.aName0x1008
                0x0802ad90        0xc ./SSC/Src/coeappl.o
                0x0802ad90                aName0x1008
 .rodata.sEntryDesc0x1009
                0x0802ad9c        0x8 ./SSC/Src/coeappl.o
                0x0802ad9c                sEntryDesc0x1009
 .rodata.aName0x1009
                0x0802ada4       0x20 ./SSC/Src/coeappl.o
                0x0802ada4                aName0x1009
 .rodata.sEntryDesc0x100A
                0x0802adc4        0x8 ./SSC/Src/coeappl.o
                0x0802adc4                sEntryDesc0x100A
 .rodata.aName0x100A
                0x0802adcc       0x20 ./SSC/Src/coeappl.o
                0x0802adcc                aName0x100A
 .rodata.asEntryDesc0x1018
                0x0802adec       0x20 ./SSC/Src/coeappl.o
                0x0802adec                asEntryDesc0x1018
 .rodata.aName0x1018
                0x0802ae0c       0x48 ./SSC/Src/coeappl.o
                0x0802ae0c                aName0x1018
 .rodata.asEntryDesc0x10F1
                0x0802ae54       0x14 ./SSC/Src/coeappl.o
                0x0802ae54                asEntryDesc0x10F1
 .rodata.aName0x10F1
                0x0802ae68       0x40 ./SSC/Src/coeappl.o
                0x0802ae68                aName0x10F1
 .rodata.sEntryDesc0x10F8
                0x0802aea8        0x8 ./SSC/Src/coeappl.o
                0x0802aea8                sEntryDesc0x10F8
 .rodata.aName0x10F8
                0x0802aeb0       0x14 ./SSC/Src/coeappl.o
                0x0802aeb0                aName0x10F8
 .rodata.asEntryDesc0x1C00
                0x0802aec4        0xc ./SSC/Src/coeappl.o
                0x0802aec4                asEntryDesc0x1C00
 .rodata.aName0x1C00
                0x0802aed0       0x14 ./SSC/Src/coeappl.o
                0x0802aed0                aName0x1C00
 .rodata.asEntryDesc0x1C3x
                0x0802aee4       0xc8 ./SSC/Src/coeappl.o
                0x0802aee4                asEntryDesc0x1C3x
 .rodata.aName0x1C32
                0x0802afac      0x108 ./SSC/Src/coeappl.o
                0x0802afac                aName0x1C32
 .rodata.aName0x1C33
                0x0802b0b4      0x108 ./SSC/Src/coeappl.o
                0x0802b0b4                aName0x1C33
 .rodata.cBitMask
                0x0802b1bc       0x20 ./SSC/Src/objdef.o
                0x0802b1bc                cBitMask
 .rodata.cAbortCode
                0x0802b1dc       0x78 ./SSC/Src/sdoserv.o
                0x0802b1dc                cAbortCode
 .rodata.SPI_MASTER_0_MOSI
                0x0802b254        0x8 ./Dave/Generated/SPI_MASTER/spi_master_conf.o
                0x0802b254                SPI_MASTER_0_MOSI
 .rodata.SPI_MASTER_0_MISO
                0x0802b25c        0x8 ./Dave/Generated/SPI_MASTER/spi_master_conf.o
                0x0802b25c                SPI_MASTER_0_MISO
 .rodata.SPI_MASTER_0_SCLKOUT
                0x0802b264        0x8 ./Dave/Generated/SPI_MASTER/spi_master_conf.o
                0x0802b264                SPI_MASTER_0_SCLKOUT
 .rodata.SPI_MASTER_0_SCLKOUT_Config
                0x0802b26c       0x14 ./Dave/Generated/SPI_MASTER/spi_master_conf.o
                0x0802b26c                SPI_MASTER_0_SCLKOUT_Config
 .rodata.SPI_MASTER_0_Config
                0x0802b280       0x8c ./Dave/Generated/SPI_MASTER/spi_master_conf.o
                0x0802b280                SPI_MASTER_0_Config
 .rodata.INT_SYNC_1
                0x0802b30c        0x4 ./Dave/Generated/INTERRUPT/interrupt_conf.o
                0x0802b30c                INT_SYNC_1
 .rodata.INT_SYNC_0
                0x0802b310        0x4 ./Dave/Generated/INTERRUPT/interrupt_conf.o
                0x0802b310                INT_SYNC_0
 .rodata.INTERRUPT_0
                0x0802b314        0x4 ./Dave/Generated/INTERRUPT/interrupt_conf.o
                0x0802b314                INTERRUPT_0
 .rodata.e_eeprom_xmc4_fce
                0x0802b318        0xc ./Dave/Generated/E_EEPROM_XMC4/e_eeprom_xmc4.o
 .rodata.EG_SYNC_0_OGU_Config
                0x0802b324        0x4 ./Dave/Generated/EVENT_GENERATOR/event_generator_conf.o
                0x0802b324                EG_SYNC_0_OGU_Config
 .rodata.EG_SYNC_1_OGU_Config
                0x0802b328        0x4 ./Dave/Generated/EVENT_GENERATOR/event_generator_conf.o
                0x0802b328                EG_SYNC_1_OGU_Config
 .rodata.ED_SYNC_1_ETL_Config
                0x0802b32c        0x8 ./Dave/Generated/EVENT_DETECTOR/event_detector_conf.o
                0x0802b32c                ED_SYNC_1_ETL_Config
 .rodata.ED_SYNC_0_ETL_Config
                0x0802b334        0x8 ./Dave/Generated/EVENT_DETECTOR/event_detector_conf.o
                0x0802b334                ED_SYNC_0_ETL_Config
 .rodata.ECAT_SSC_0
                0x0802b33c        0xc ./Dave/Generated/ECAT_SSC/ecat_ssc_conf.o
                0x0802b33c                ECAT_SSC_0
 .rodata.LED    0x0802b348       0x14 ./Dave/Generated/DIGITAL_IO/digital_io_conf.o
                0x0802b348                LED
 .rodata.SLEEPN5
                0x0802b35c       0x14 ./Dave/Generated/DIGITAL_IO/digital_io_conf.o
                0x0802b35c                SLEEPN5
 .rodata.CS_5   0x0802b370       0x14 ./Dave/Generated/DIGITAL_IO/digital_io_conf.o
                0x0802b370                CS_5
 .rodata        0x0802b384       0x14 ./Dave/Generated/CLOCK_XMC4/clock_xmc4_conf.o
 .rodata.str1.1
                0x0802b398        0x2 d:/infineon/tools/dave ide/4.5.0.202105191637/eclipse/arm-gcc-49/bin/../lib/gcc/arm-none-eabi/4.9.3/../../../../arm-none-eabi/lib/armv7e-m/softfp\libg_nano.a(lib_a-impure.o)
 *(.gnu.linkonce.r*)
 *(vtable)
                0x0802b39c                . = ALIGN (0x4)
 *fill*         0x0802b39a        0x2 

.glue_7         0x0802b39c        0x0 load address 0x0c02b39c
 .glue_7        0x00000000        0x0 linker stubs

.glue_7t        0x0802b39c        0x0 load address 0x0c02b39c
 .glue_7t       0x00000000        0x0 linker stubs

.vfp11_veneer   0x0802b39c        0x0 load address 0x0c02b39c
 .vfp11_veneer  0x00000000        0x0 linker stubs

.v4_bx          0x0802b39c        0x0 load address 0x0c02b39c
 .v4_bx         0x00000000        0x0 linker stubs

.iplt           0x0802b39c        0x0 load address 0x0c02b39c
 .iplt          0x00000000        0x0 ./Startup/startup_XMC4300.o

.rel.dyn        0x0802b39c        0x0 load address 0x0c02b39c
 .rel.iplt      0x00000000        0x0 ./Startup/startup_XMC4300.o

.eh_frame_hdr
 *(.eh_frame_hdr)

.eh_frame
 *(.eh_frame)

.ARM.extab
 *(.ARM.extab* .gnu.linkonce.armextab.*)
                0x0802b39c                . = ALIGN (0x4)
                0x0802b39c                __exidx_start = .

.ARM.exidx
 *(.ARM.exidx* .gnu.linkonce.armexidx.*)
                0x0802b39c                __exidx_end = .
                0x0802b39c                . = ALIGN (0x4)

Stack           0x1fff0000      0x800
                0x1fff0000                __stack_start = .
                0x1fff0800                . = (. + stack_size)
 *fill*         0x1fff0000      0x800 
                0x1fff0800                __stack_end = .
                0x1fff0800                __initial_sp = .

.ram_code       0x1fff0800        0x0 load address 0x0c02b39c
                0x1fff0800                . = ALIGN (0x4)
                0x1fff0800                __ram_code_start = .
 *(.ram_code)
                0x1fff0800                . = ALIGN (0x4)
                0x1fff0800                __ram_code_end = .
                0x0c02b39c                __ram_code_load = LOADADDR (.ram_code)
                0x00000000                __ram_code_size = (__ram_code_end - __ram_code_start)

.data           0x1fff0800     0x109c load address 0x0c02b39c
                0x1fff0800                . = ALIGN (0x4)
                0x1fff0800                __data_start = .
 *(.data)
 *(.data*)
 .data.ApplicationObjDic
                0x1fff0800      0x1b8 ./SSC/Src/coeappl.o
                0x1fff0800                ApplicationObjDic
 .data.u32Devicetype
                0x1fff09b8        0x4 ./SSC/Src/coeappl.o
                0x1fff09b8                u32Devicetype
 .data.acDevicename
                0x1fff09bc        0xc ./SSC/Src/coeappl.o
                0x1fff09bc                acDevicename
 .data.acHardwareversion
                0x1fff09c8        0x8 ./SSC/Src/coeappl.o
                0x1fff09c8                acHardwareversion
 .data.acSoftwareversion
                0x1fff09d0        0x8 ./SSC/Src/coeappl.o
                0x1fff09d0                acSoftwareversion
 .data.sIdentity
                0x1fff09d8       0x14 ./SSC/Src/coeappl.o
                0x1fff09d8                sIdentity
 .data.sSyncmanagertype
                0x1fff09ec        0x8 ./SSC/Src/coeappl.o
                0x1fff09ec                sSyncmanagertype
 .data.GenObjDic
                0x1fff09f4      0x1e0 ./SSC/Src/coeappl.o
                0x1fff09f4                GenObjDic
 .data.aEepromData
                0x1fff0bd4      0x800 ./SSC/Src/ecatappl.o
                0x1fff0bd4                aEepromData
 .data.sErrorSettings
                0x1fff13d4        0xc ./SSC/Src/objdef.o
                0x1fff13d4                sErrorSettings
 .data.aSubindexDesc
                0x1fff13e0       0x10 ./SSC/Src/objdef.o
                0x1fff13e0                aSubindexDesc
 .data.RxpdoProcessDataMapping0x1600
                0x1fff13f0       0x34 ./SSC/Src/ryhand.o
                0x1fff13f0                RxpdoProcessDataMapping0x1600
 .data.TxpdoProcessDataMapping0x1A00
                0x1fff1424       0x34 ./SSC/Src/ryhand.o
                0x1fff1424                TxpdoProcessDataMapping0x1A00
 .data.sRxPDOassign
                0x1fff1458        0x4 ./SSC/Src/ryhand.o
                0x1fff1458                sRxPDOassign
 .data.sTxPDOassign
                0x1fff145c        0x4 ./SSC/Src/ryhand.o
                0x1fff145c                sTxPDOassign
 .data.Txpdo0x6000
                0x1fff1460       0xa0 ./SSC/Src/ryhand.o
                0x1fff1460                Txpdo0x6000
 .data.Rxpdo0x7000
                0x1fff1500       0xa0 ./SSC/Src/ryhand.o
                0x1fff1500                Rxpdo0x7000
 .data.DevInfo0x8000
                0x1fff15a0       0xa0 ./SSC/Src/ryhand.o
                0x1fff15a0                DevInfo0x8000
 .data.SimulateCANFD0x9000
                0x1fff1640       0x90 ./SSC/Src/ryhand.o
                0x1fff1640                SimulateCANFD0x9000
 .data.ModularDeviceProfile0xF000
                0x1fff16d0        0x8 ./SSC/Src/ryhand.o
                0x1fff16d0                ModularDeviceProfile0xF000
 .data.TIMER_1_config
                0x1fff16d8        0x8 ./Dave/Generated/TIMER/timer_conf.o
                0x1fff16d8                TIMER_1_config
 .data.TIMER_1  0x1fff16e0       0x28 ./Dave/Generated/TIMER/timer_conf.o
                0x1fff16e0                TIMER_1
 .data.SPI_MASTER_0_MOSI_Config
                0x1fff1708       0x14 ./Dave/Generated/SPI_MASTER/spi_master_conf.o
                0x1fff1708                SPI_MASTER_0_MOSI_Config
 .data.SPI_MASTER_0_MISO_Config
                0x1fff171c       0x14 ./Dave/Generated/SPI_MASTER/spi_master_conf.o
                0x1fff171c                SPI_MASTER_0_MISO_Config
 .data.SPI_MASTER_0_Channel_Config
                0x1fff1730        0xc ./Dave/Generated/SPI_MASTER/spi_master_conf.o
                0x1fff1730                SPI_MASTER_0_Channel_Config
 .data.SPI_MASTER_0_dma_ch_tx_config
                0x1fff173c       0x24 ./Dave/Generated/SPI_MASTER/spi_master_conf.o
                0x1fff173c                SPI_MASTER_0_dma_ch_tx_config
 .data.SPI_MASTER_0_dma_ch_rx_config
                0x1fff1760       0x24 ./Dave/Generated/SPI_MASTER/spi_master_conf.o
                0x1fff1760                SPI_MASTER_0_dma_ch_rx_config
 .data.SPI_MASTER_0_runtime
                0x1fff1784       0x24 ./Dave/Generated/SPI_MASTER/spi_master_conf.o
                0x1fff1784                SPI_MASTER_0_runtime
 .data.SPI_MASTER_0
                0x1fff17a8       0x20 ./Dave/Generated/SPI_MASTER/spi_master_conf.o
                0x1fff17a8                SPI_MASTER_0
 .data.GLOBAL_DMA_0_CONFIG
                0x1fff17c8        0x4 ./Dave/Generated/GLOBAL_DMA/global_dma_conf.o
                0x1fff17c8                GLOBAL_DMA_0_CONFIG
 .data.GLOBAL_DMA_0
                0x1fff17cc        0xc ./Dave/Generated/GLOBAL_DMA/global_dma_conf.o
                0x1fff17cc                GLOBAL_DMA_0
 .data.GLOBAL_CCU4_0
                0x1fff17d8       0x10 ./Dave/Generated/GLOBAL_CCU4/global_ccu4_conf.o
                0x1fff17d8                GLOBAL_CCU4_0
 .data.e_eeprom_xmc4_sector_info
                0x1fff17e8       0x10 ./Dave/Generated/E_EEPROM_XMC4/e_eeprom_xmc4.o
 .data.EG_SYNC_0
                0x1fff17f8       0x10 ./Dave/Generated/EVENT_GENERATOR/event_generator_conf.o
                0x1fff17f8                EG_SYNC_0
 .data.EG_SYNC_1
                0x1fff1808       0x10 ./Dave/Generated/EVENT_GENERATOR/event_generator_conf.o
                0x1fff1808                EG_SYNC_1
 .data.ED_SYNC_1
                0x1fff1818       0x10 ./Dave/Generated/EVENT_DETECTOR/event_detector_conf.o
                0x1fff1818                ED_SYNC_1
 .data.ED_SYNC_0
                0x1fff1828       0x10 ./Dave/Generated/EVENT_DETECTOR/event_detector_conf.o
                0x1fff1828                ED_SYNC_0
 .data.impure_data
                0x1fff1838       0x60 d:/infineon/tools/dave ide/4.5.0.202105191637/eclipse/arm-gcc-49/bin/../lib/gcc/arm-none-eabi/4.9.3/../../../../arm-none-eabi/lib/armv7e-m/softfp\libg_nano.a(lib_a-impure.o)
 .data._impure_ptr
                0x1fff1898        0x4 d:/infineon/tools/dave ide/4.5.0.202105191637/eclipse/arm-gcc-49/bin/../lib/gcc/arm-none-eabi/4.9.3/../../../../arm-none-eabi/lib/armv7e-m/softfp\libg_nano.a(lib_a-impure.o)
                0x1fff1898                _impure_ptr
 *(*.data)
 *(.gnu.linkonce.d*)
                0x1fff189c                . = ALIGN (0x4)
                0x1fff189c                PROVIDE (__preinit_array_start, .)
 *(.preinit_array)
                0x1fff189c                PROVIDE (__preinit_array_end, .)
                0x1fff189c                . = ALIGN (0x4)
                0x1fff189c                PROVIDE (__init_array_start, .)
 *(SORT(.init_array.*))
 *(.init_array)
                0x1fff189c                PROVIDE (__init_array_end, .)
                0x1fff189c                . = ALIGN (0x4)
                0x1fff189c                PROVIDE (__fini_array_start, .)
 *(SORT(.fini_array.*))
 *(.fini_array)
                0x1fff189c                PROVIDE (__fini_array_end, .)
                0x1fff189c                . = ALIGN (0x4)
                0x1fff189c                __data_end = .
                0x0c02b39c                __data_load = LOADADDR (.data)
                0x0000109c                __data_size = (__data_end - __data_start)
                0x0000c438                __text_size = (((__exidx_end - sText) + __data_size) + __ram_code_size)
                0x0802c438                eText = (sText + __text_size)

.igot.plt       0x1fff189c        0x0 load address 0x0c02c438
 .igot.plt      0x00000000        0x0 ./Startup/startup_XMC4300.o

.bss            0x1fff18a0     0x13a4 load address 0x0c02c438
                0x1fff18a0                . = ALIGN (0x4)
                0x1fff18a0                __bss_start = .
 *(.bss)
 *(.bss*)
 .bss.u64Timestamp
                0x1fff18a0        0x8 ./SSC/Src/coeappl.o
                0x1fff18a0                u64Timestamp
 .bss.u16ErrorRegister
                0x1fff18a8        0x2 ./SSC/Src/coeappl.o
                0x1fff18a8                u16ErrorRegister
 *fill*         0x1fff18aa        0x2 
 .bss.ObjDicList
                0x1fff18ac        0x4 ./SSC/Src/coeappl.o
                0x1fff18ac                ObjDicList
 .bss.bInitFinished
                0x1fff18b0        0x1 ./SSC/Src/ecatappl.o
                0x1fff18b0                bInitFinished
 .bss.SMActivate
                0x1fff18b1        0x1 ./SSC/Src/ecatslv.o
                0x1fff18b1                SMActivate
 .bss.EepromLoaded
                0x1fff18b2        0x1 ./SSC/Src/ecatslv.o
                0x1fff18b2                EepromLoaded
 *fill*         0x1fff18b3        0x1 
 .bss.ParamAction0x9001
                0x1fff18b4        0x2 ./SSC/Src/ryhand.o
                0x1fff18b4                ParamAction0x9001
 .bss.bSdoInWork
                0x1fff18b6        0x1 ./SSC/Src/sdoserv.o
                0x1fff18b6                bSdoInWork
 *fill*         0x1fff18b7        0x1 
 .bss.dma0_event_handlers
                0x1fff18b8       0x20 ./Libraries/XMCLib/src/xmc_dma.o
 .bss.heap_ptr.4331
                0x1fff18d8        0x4 ./Libraries/Newlib/syscalls.o
 .bss.e_eeprom_xmc4_data_buffer
                0x1fff18dc     0x1000 ./Dave/Generated/E_EEPROM_XMC4/e_eeprom_xmc4.o
 .bss.E_EEPROM_XMC4_0
                0x1fff28dc        0x4 ./Dave/Generated/E_EEPROM_XMC4/e_eeprom_xmc4_conf.o
                0x1fff28dc                E_EEPROM_XMC4_0
 .bss.ticks     0x1fff28e0        0x4 ./Dave/Generated/ECAT_SSC/xmc_eschw.o
 .bss.CLOCK_XMC4_0
                0x1fff28e4        0x4 ./Dave/Generated/CLOCK_XMC4/clock_xmc4_conf.o
                0x1fff28e4                CLOCK_XMC4_0
 .bss.__malloc_sbrk_start
                0x1fff28e8        0x4 d:/infineon/tools/dave ide/4.5.0.202105191637/eclipse/arm-gcc-49/bin/../lib/gcc/arm-none-eabi/4.9.3/../../../../arm-none-eabi/lib/armv7e-m/softfp\libg_nano.a(lib_a-nano-mallocr.o)
                0x1fff28e8                __malloc_sbrk_start
 .bss.__malloc_free_list
                0x1fff28ec        0x4 d:/infineon/tools/dave ide/4.5.0.202105191637/eclipse/arm-gcc-49/bin/../lib/gcc/arm-none-eabi/4.9.3/../../../../arm-none-eabi/lib/armv7e-m/softfp\libg_nano.a(lib_a-nano-mallocr.o)
                0x1fff28ec                __malloc_free_list
 *(COMMON)
 COMMON         0x1fff28f0        0x8 ./SSC/Src/coeappl.o
                0x1fff28f0                u32LastDc32Value
                0x1fff28f4                u32CheckForDcOverrunCnt
 COMMON         0x1fff28f8      0x182 ./SSC/Src/ecatappl.o
                0x1fff28f8                pAPPL_EEPROM_Store
                0x1fff28fc                pAPPL_CoeReadInd
                0x1fff2900                bMinCycleTimeMeasurementStarted
                0x1fff2904                u32CycleTimeStartValue
                0x1fff2908                pAPPL_EEPROM_Read
                0x1fff290c                pAPPL_EEPROM_Write
                0x1fff2910                bRunApplication
                0x1fff2914                u32SystemTimeReadFailure
                0x1fff2918                bEcatWaitForInputUpdate
                0x1fff291c                u32MinCycleTimeValue
                0x1fff2920                aPdOutputData
                0x1fff29bc                u16EepromStoreTimeoutCounter
                0x1fff29be                EepromReadSize
                0x1fff29c0                pAPPL_CoeWriteInd
                0x1fff29c4                pAPPL_MainLoop
                0x1fff29c8                bEtherCATErrorLed
                0x1fff29cc                u32MinCycleTimeStartValue
                0x1fff29d0                aPdInputData
                0x1fff2a6c                pEEPROM
                0x1fff2a70                bEtherCATRunLed
                0x1fff2a74                pAPPL_EEPROM_Reload
                0x1fff2a78                u16EepromStoreTimeoutValue
 *fill*         0x1fff2a7a        0x2 
 COMMON         0x1fff2a7c        0x4 ./SSC/Src/ecatcoe.o
                0x1fff2a7c                pCoeSendStored
 COMMON         0x1fff2a80       0x4c ./SSC/Src/ecatslv.o
                0x1fff2a80                b3BufferMode
                0x1fff2a82                nEcatStateTrans
                0x1fff2a84                bApplEsmPending
                0x1fff2a85                nAlStatus
                0x1fff2a86                nPdOutputSize
                0x1fff2a88                u16LocalErrorCode
                0x1fff2a8a                u8LocalErrorState
                0x1fff2a8c                Sync0WdCounter
                0x1fff2a8e                LatchInputSync0Counter
                0x1fff2a90                i16WaitForPllRunningCnt
                0x1fff2a92                nEscAddrOutputData
                0x1fff2a94                Sync0WdValue
                0x1fff2a96                u8EcatRunLed
                0x1fff2a98                i16WaitForPllRunningTimeout
                0x1fff2a9a                Sync1WdValue
                0x1fff2a9c                u8dummy
                0x1fff2a9e                u16ALEventMask
                0x1fff2aa0                bDcRunning
                0x1fff2aa4                SyncManInfo
                0x1fff2aac                b32BitDc
                0x1fff2aae                LatchInputSync0Value
                0x1fff2ab0                bEcatWaitForAlControlRes
                0x1fff2ab2                nPdInputSize
                0x1fff2ab4                u16SmSync0Value
                0x1fff2ab6                nMaxEscAddress
                0x1fff2ab8                bEcatFirstOutputsReceived
                0x1fff2ab9                bSmSyncSequenceValid
                0x1fff2aba                EsmTimeoutCounter
                0x1fff2abc                bDcSyncActive
                0x1fff2abd                bEcatOutputUpdateRunning
                0x1fff2abe                Sync1WdCounter
                0x1fff2ac0                EcatWdValue
                0x1fff2ac2                bEcatInputUpdateRunning
                0x1fff2ac3                bEscIntEnabled
                0x1fff2ac4                bWdTrigger
                0x1fff2ac6                u16SmSync0Counter
                0x1fff2ac8                nMaxSyncMan
                0x1fff2ac9                u8EcatErrorLed
                0x1fff2aca                nEscAddrInputData
 COMMON         0x1fff2acc       0x94 ./SSC/Src/mailbox.o
                0x1fff2acc                u8MbxReadCounter
                0x1fff2ad0                sMbxSendQueue
                0x1fff2b04                sMbxReceiveQueue
                0x1fff2b38                bNoMbxMemoryAvailable
                0x1fff2b39                bSendMbxIsFull
                0x1fff2b3a                bMbxRunning
                0x1fff2b3c                u16EscAddrReceiveMbx
                0x1fff2b40                psStoreMbx
                0x1fff2b44                u16SendMbxSize
                0x1fff2b48                psReadMbx
                0x1fff2b4c                bReceiveMbxIsLocked
                0x1fff2b4e                u16EscAddrSendMbx
                0x1fff2b50                psWriteMbx
                0x1fff2b54                u8MbxWriteCounter
                0x1fff2b55                u8MailboxSendReqStored
                0x1fff2b56                u16ReceiveMbxSize
                0x1fff2b58                bMbxRepeatToggle
                0x1fff2b5c                psRepeatMbx
 COMMON         0x1fff2b60       0x8e ./SSC/Src/objdef.o
                0x1fff2b60                sSyncManInPar
                0x1fff2ba4                sSyncManOutPar
                0x1fff2be8                bSyncSetByUser
                0x1fff2bec                sCycleDiag
 *fill*         0x1fff2bee        0x2 
 COMMON         0x1fff2bf0       0x4d ./SSC/Src/sdoserv.o
                0x1fff2bf0                nSdoInfoIndex
                0x1fff2bf4                pStoreData
                0x1fff2bf8                nSdoSegBytesToHandle
                0x1fff2bfc                bSdoSegAccess
                0x1fff2bfd                bSdoSegFollows
                0x1fff2c00                nSdoSegCompleteSize
                0x1fff2c04                pSdoPendFunc
                0x1fff2c08                u8PendingSdo
                0x1fff2c09                bStoreCompleteAccess
                0x1fff2c0a                bSdoSegLastToggle
                0x1fff2c0b                nSdoSegService
                0x1fff2c0c                pSdoInfoObjEntry
                0x1fff2c10                nSdoInfoFragmentsLeft
                0x1fff2c14                pSdoResStored
                0x1fff2c18                u32StoreDataSize
                0x1fff2c1c                pSdoSegData
                0x1fff2c20                nSdoSegIndex
                0x1fff2c24                aSdoInfoHeader
                0x1fff2c34                pSdoSegObjEntry
                0x1fff2c38                nSdoSegSubindex
                0x1fff2c3a                u16StoreIndex
                0x1fff2c3c                u8StoreSubindex
 *fill*         0x1fff2c3d        0x3 
 COMMON         0x1fff2c40        0x4 d:/infineon/tools/dave ide/4.5.0.202105191637/eclipse/arm-gcc-49/bin/../lib/gcc/arm-none-eabi/4.9.3/../../../../arm-none-eabi/lib/armv7e-m/softfp\libg_nano.a(lib_a-reent.o)
                0x1fff2c40                errno
 *(.gnu.linkonce.b*)
                0x1fff2c44                . = ALIGN (0x4)
                0x1fff2c44                __bss_end = .
                0x000013a4                __bss_size = (__bss_end - __bss_start)
                0x0000d3bc                __shift_loc = (__bss_end >= ORIGIN (DSRAM_1_system))?0x0:(ORIGIN (DSRAM_1_system) - __bss_end)

USB_RAM         0x20000000        0x0
                0x20000000                . = ALIGN (0x4)
                0x20000000                USB_RAM_start = .
 *(USB_RAM)
                0x20000000                . = ALIGN (0x4)
                0x20000000                USB_RAM_end = .
                0x00000000                USB_RAM_size = (USB_RAM_end - USB_RAM_start)

ETH_RAM         0x20000000        0x0
                0x20000000                . = ALIGN (0x4)
                0x20000000                ETH_RAM_start = .
 *(ETH_RAM)
                0x20000000                . = ALIGN (0x4)
                0x20000000                ETH_RAM_end = .
                0x20000000                . = ALIGN (0x8)
                0x20000000                Heap_Bank1_Start = .
                0x00000000                ETH_RAM_size = (ETH_RAM_end - ETH_RAM_start)

.no_init        0x2000ffc0       0x14
                0x2000ffc0                Heap_Bank1_End = .
 *(.no_init)
 .no_init       0x2000ffc0       0x14 ./Startup/system_XMC4300.o
                0x2000ffc0                SystemCoreClock
                0x2000ffc4                g_chipid
                0x0000ffc0                Heap_Bank1_Size = (Heap_Bank1_End - Heap_Bank1_Start)
                0x00000001                ASSERT ((Heap_Bank1_Start <= Heap_Bank1_End), region SRAM_combined overflowed no_init section)

/DISCARD/
 *(.comment)

.stab
 *(.stab)

.stabstr
 *(.stabstr)

.debug
 *(.debug)

.line
 *(.line)

.debug_srcinfo
 *(.debug_srcinfo)

.debug_sfnames
 *(.debug_sfnames)

.debug_aranges  0x00000000     0x16a0
 *(.debug_aranges)
 .debug_aranges
                0x00000000       0x20 ./Startup/startup_XMC4300.o
 .debug_aranges
                0x00000020       0x48 ./Startup/system_XMC4300.o
 .debug_aranges
                0x00000068       0x78 ./SSC/Src/coeappl.o
 .debug_aranges
                0x000000e0       0xb0 ./SSC/Src/ecatappl.o
 .debug_aranges
                0x00000190       0x30 ./SSC/Src/ecatcoe.o
 .debug_aranges
                0x000001c0       0xd0 ./SSC/Src/ecatslv.o
 .debug_aranges
                0x00000290       0xa0 ./SSC/Src/mailbox.o
 .debug_aranges
                0x00000330       0x78 ./SSC/Src/objdef.o
 .debug_aranges
                0x000003a8       0x78 ./SSC/Src/ryhand.o
 .debug_aranges
                0x00000420       0x50 ./SSC/Src/sdoserv.o
 .debug_aranges
                0x00000470       0x28 ./Libraries/XMCLib/src/xmc4_eru.o
 .debug_aranges
                0x00000498       0xe8 ./Libraries/XMCLib/src/xmc4_flash.o
 .debug_aranges
                0x00000580       0x28 ./Libraries/XMCLib/src/xmc4_gpio.o
 .debug_aranges
                0x000005a8      0x3e8 ./Libraries/XMCLib/src/xmc4_scu.o
 .debug_aranges
                0x00000990      0x138 ./Libraries/XMCLib/src/xmc_ccu4.o
 .debug_aranges
                0x00000ac8      0x158 ./Libraries/XMCLib/src/xmc_dma.o
 .debug_aranges
                0x00000c20       0x78 ./Libraries/XMCLib/src/xmc_ecat.o
 .debug_aranges
                0x00000c98       0x88 ./Libraries/XMCLib/src/xmc_eru.o
 .debug_aranges
                0x00000d20       0x70 ./Libraries/XMCLib/src/xmc_fce.o
 .debug_aranges
                0x00000d90       0x28 ./Libraries/XMCLib/src/xmc_gpio.o
 .debug_aranges
                0x00000db8       0x88 ./Libraries/XMCLib/src/xmc_spi.o
 .debug_aranges
                0x00000e40       0xb8 ./Libraries/XMCLib/src/xmc_usic.o
 .debug_aranges
                0x00000ef8       0x28 ./Libraries/Newlib/syscalls.o
 .debug_aranges
                0x00000f20       0xd8 ./Dave/Generated/TIMER/timer.o
 .debug_aranges
                0x00000ff8       0x18 ./Dave/Generated/TIMER/timer_conf.o
 .debug_aranges
                0x00001010      0x118 ./Dave/Generated/SPI_MASTER/spi_master.o
 .debug_aranges
                0x00001128       0xa8 ./Dave/Generated/SPI_MASTER/spi_master_conf.o
 .debug_aranges
                0x000011d0       0x50 ./Dave/Generated/INTERRUPT/interrupt.o
 .debug_aranges
                0x00001220       0x18 ./Dave/Generated/INTERRUPT/interrupt_conf.o
 .debug_aranges
                0x00001238       0x48 ./Dave/Generated/GLOBAL_DMA/global_dma.o
 .debug_aranges
                0x00001280       0x20 ./Dave/Generated/GLOBAL_DMA/global_dma_conf.o
 .debug_aranges
                0x000012a0       0x30 ./Dave/Generated/GLOBAL_CCU4/global_ccu4.o
 .debug_aranges
                0x000012d0       0x18 ./Dave/Generated/GLOBAL_CCU4/global_ccu4_conf.o
 .debug_aranges
                0x000012e8       0xa0 ./Dave/Generated/E_EEPROM_XMC4/e_eeprom_xmc4.o
 .debug_aranges
                0x00001388       0x18 ./Dave/Generated/E_EEPROM_XMC4/e_eeprom_xmc4_conf.o
 .debug_aranges
                0x000013a0       0x28 ./Dave/Generated/EVENT_GENERATOR/event_generator.o
 .debug_aranges
                0x000013c8       0x18 ./Dave/Generated/EVENT_GENERATOR/event_generator_conf.o
 .debug_aranges
                0x000013e0       0x28 ./Dave/Generated/EVENT_DETECTOR/event_detector.o
 .debug_aranges
                0x00001408       0x18 ./Dave/Generated/EVENT_DETECTOR/event_detector_conf.o
 .debug_aranges
                0x00001420       0x38 ./Dave/Generated/ECAT_SSC/ecat_ssc.o
 .debug_aranges
                0x00001458       0x18 ./Dave/Generated/ECAT_SSC/ecat_ssc_conf.o
 .debug_aranges
                0x00001470       0xc0 ./Dave/Generated/ECAT_SSC/xmc_eschw.o
 .debug_aranges
                0x00001530       0x28 ./Dave/Generated/DIGITAL_IO/digital_io.o
 .debug_aranges
                0x00001558       0x18 ./Dave/Generated/DIGITAL_IO/digital_io_conf.o
 .debug_aranges
                0x00001570       0x28 ./Dave/Generated/CPU_CTRL_XMC4/cpu_ctrl_xmc4_conf.o
 .debug_aranges
                0x00001598       0x38 ./Dave/Generated/CLOCK_XMC4/clock_xmc4.o
 .debug_aranges
                0x000015d0       0x28 ./Dave/Generated/CLOCK_XMC4/clock_xmc4_conf.o
 .debug_aranges
                0x000015f8       0x20 ./Dave/Generated/DAVE.o
 .debug_aranges
                0x00001618       0x88 ./main.o

.debug_pubnames
 *(.debug_pubnames)

.debug_pubtypes
 *(.debug_pubtypes)

.debug_info     0x00000000    0x28961
 *(.debug_info .gnu.linkonce.wi.*)
 .debug_info    0x00000000       0x94 ./Startup/startup_XMC4300.o
 .debug_info    0x00000094      0x9e8 ./Startup/system_XMC4300.o
 .debug_info    0x00000a7c     0x1fe6 ./SSC/Src/coeappl.o
 .debug_info    0x00002a62     0x15fc ./SSC/Src/ecatappl.o
 .debug_info    0x0000405e      0x5d5 ./SSC/Src/ecatcoe.o
 .debug_info    0x00004633     0x1857 ./SSC/Src/ecatslv.o
 .debug_info    0x00005e8a     0x1449 ./SSC/Src/mailbox.o
 .debug_info    0x000072d3      0xe33 ./SSC/Src/objdef.o
 .debug_info    0x00008106      0xc14 ./SSC/Src/ryhand.o
 .debug_info    0x00008d1a      0xf38 ./SSC/Src/sdoserv.o
 .debug_info    0x00009c52      0x5da ./Libraries/XMCLib/src/xmc4_eru.o
 .debug_info    0x0000a22c      0xa27 ./Libraries/XMCLib/src/xmc4_flash.o
 .debug_info    0x0000ac53      0x4dd ./Libraries/XMCLib/src/xmc4_gpio.o
 .debug_info    0x0000b130     0x2366 ./Libraries/XMCLib/src/xmc4_scu.o
 .debug_info    0x0000d496     0x1713 ./Libraries/XMCLib/src/xmc_ccu4.o
 .debug_info    0x0000eba9     0x1729 ./Libraries/XMCLib/src/xmc_dma.o
 .debug_info    0x000102d2     0x10fb ./Libraries/XMCLib/src/xmc_ecat.o
 .debug_info    0x000113cd      0xb70 ./Libraries/XMCLib/src/xmc_eru.o
 .debug_info    0x00011f3d      0x957 ./Libraries/XMCLib/src/xmc_fce.o
 .debug_info    0x00012894      0x458 ./Libraries/XMCLib/src/xmc_gpio.o
 .debug_info    0x00012cec      0xb61 ./Libraries/XMCLib/src/xmc_spi.o
 .debug_info    0x0001384d      0xf1c ./Libraries/XMCLib/src/xmc_usic.o
 .debug_info    0x00014769      0x11f ./Libraries/Newlib/syscalls.o
 .debug_info    0x00014888      0xe2c ./Dave/Generated/TIMER/timer.o
 .debug_info    0x000156b4      0x8d5 ./Dave/Generated/TIMER/timer_conf.o
 .debug_info    0x00015f89     0x252a ./Dave/Generated/SPI_MASTER/spi_master.o
 .debug_info    0x000184b3     0x214e ./Dave/Generated/SPI_MASTER/spi_master_conf.o
 .debug_info    0x0001a601      0x8d7 ./Dave/Generated/INTERRUPT/interrupt.o
 .debug_info    0x0001aed8      0x406 ./Dave/Generated/INTERRUPT/interrupt_conf.o
 .debug_info    0x0001b2de      0xc64 ./Dave/Generated/GLOBAL_DMA/global_dma.o
 .debug_info    0x0001bf42      0x7d5 ./Dave/Generated/GLOBAL_DMA/global_dma_conf.o
 .debug_info    0x0001c717      0x427 ./Dave/Generated/GLOBAL_CCU4/global_ccu4.o
 .debug_info    0x0001cb3e      0x327 ./Dave/Generated/GLOBAL_CCU4/global_ccu4_conf.o
 .debug_info    0x0001ce65      0xb13 ./Dave/Generated/E_EEPROM_XMC4/e_eeprom_xmc4.o
 .debug_info    0x0001d978      0x1a9 ./Dave/Generated/E_EEPROM_XMC4/e_eeprom_xmc4_conf.o
 .debug_info    0x0001db21      0x5fd ./Dave/Generated/EVENT_GENERATOR/event_generator.o
 .debug_info    0x0001e11e      0x594 ./Dave/Generated/EVENT_GENERATOR/event_generator_conf.o
 .debug_info    0x0001e6b2      0x657 ./Dave/Generated/EVENT_DETECTOR/event_detector.o
 .debug_info    0x0001ed09      0x6d5 ./Dave/Generated/EVENT_DETECTOR/event_detector_conf.o
 .debug_info    0x0001f3de      0xbfc ./Dave/Generated/ECAT_SSC/ecat_ssc.o
 .debug_info    0x0001ffda      0xad5 ./Dave/Generated/ECAT_SSC/ecat_ssc_conf.o
 .debug_info    0x00020aaf     0x1f18 ./Dave/Generated/ECAT_SSC/xmc_eschw.o
 .debug_info    0x000229c7      0x597 ./Dave/Generated/DIGITAL_IO/digital_io.o
 .debug_info    0x00022f5e      0x4f6 ./Dave/Generated/DIGITAL_IO/digital_io_conf.o
 .debug_info    0x00023454      0x52e ./Dave/Generated/CPU_CTRL_XMC4/cpu_ctrl_xmc4_conf.o
 .debug_info    0x00023982      0x2dd ./Dave/Generated/CLOCK_XMC4/clock_xmc4.o
 .debug_info    0x00023c5f      0x62c ./Dave/Generated/CLOCK_XMC4/clock_xmc4_conf.o
 .debug_info    0x0002428b     0x26a7 ./Dave/Generated/DAVE.o
 .debug_info    0x00026932     0x202f ./main.o

.debug_abbrev   0x00000000     0x5df1
 *(.debug_abbrev)
 .debug_abbrev  0x00000000       0x14 ./Startup/startup_XMC4300.o
 .debug_abbrev  0x00000014      0x1f1 ./Startup/system_XMC4300.o
 .debug_abbrev  0x00000205      0x27b ./SSC/Src/coeappl.o
 .debug_abbrev  0x00000480      0x2a7 ./SSC/Src/ecatappl.o
 .debug_abbrev  0x00000727      0x17c ./SSC/Src/ecatcoe.o
 .debug_abbrev  0x000008a3      0x262 ./SSC/Src/ecatslv.o
 .debug_abbrev  0x00000b05      0x209 ./SSC/Src/mailbox.o
 .debug_abbrev  0x00000d0e      0x21f ./SSC/Src/objdef.o
 .debug_abbrev  0x00000f2d      0x221 ./SSC/Src/ryhand.o
 .debug_abbrev  0x0000114e      0x24b ./SSC/Src/sdoserv.o
 .debug_abbrev  0x00001399      0x180 ./Libraries/XMCLib/src/xmc4_eru.o
 .debug_abbrev  0x00001519      0x235 ./Libraries/XMCLib/src/xmc4_flash.o
 .debug_abbrev  0x0000174e      0x144 ./Libraries/XMCLib/src/xmc4_gpio.o
 .debug_abbrev  0x00001892      0x2a3 ./Libraries/XMCLib/src/xmc4_scu.o
 .debug_abbrev  0x00001b35      0x232 ./Libraries/XMCLib/src/xmc_ccu4.o
 .debug_abbrev  0x00001d67      0x2b6 ./Libraries/XMCLib/src/xmc_dma.o
 .debug_abbrev  0x0000201d      0x237 ./Libraries/XMCLib/src/xmc_ecat.o
 .debug_abbrev  0x00002254      0x22f ./Libraries/XMCLib/src/xmc_eru.o
 .debug_abbrev  0x00002483      0x263 ./Libraries/XMCLib/src/xmc_fce.o
 .debug_abbrev  0x000026e6      0x144 ./Libraries/XMCLib/src/xmc_gpio.o
 .debug_abbrev  0x0000282a      0x279 ./Libraries/XMCLib/src/xmc_spi.o
 .debug_abbrev  0x00002aa3      0x24c ./Libraries/XMCLib/src/xmc_usic.o
 .debug_abbrev  0x00002cef       0xbd ./Libraries/Newlib/syscalls.o
 .debug_abbrev  0x00002dac      0x252 ./Dave/Generated/TIMER/timer.o
 .debug_abbrev  0x00002ffe      0x181 ./Dave/Generated/TIMER/timer_conf.o
 .debug_abbrev  0x0000317f      0x2b2 ./Dave/Generated/SPI_MASTER/spi_master.o
 .debug_abbrev  0x00003431      0x26d ./Dave/Generated/SPI_MASTER/spi_master_conf.o
 .debug_abbrev  0x0000369e      0x212 ./Dave/Generated/INTERRUPT/interrupt.o
 .debug_abbrev  0x000038b0       0xd8 ./Dave/Generated/INTERRUPT/interrupt_conf.o
 .debug_abbrev  0x00003988      0x218 ./Dave/Generated/GLOBAL_DMA/global_dma.o
 .debug_abbrev  0x00003ba0      0x151 ./Dave/Generated/GLOBAL_DMA/global_dma_conf.o
 .debug_abbrev  0x00003cf1      0x196 ./Dave/Generated/GLOBAL_CCU4/global_ccu4.o
 .debug_abbrev  0x00003e87      0x124 ./Dave/Generated/GLOBAL_CCU4/global_ccu4_conf.o
 .debug_abbrev  0x00003fab      0x2a9 ./Dave/Generated/E_EEPROM_XMC4/e_eeprom_xmc4.o
 .debug_abbrev  0x00004254       0xc2 ./Dave/Generated/E_EEPROM_XMC4/e_eeprom_xmc4_conf.o
 .debug_abbrev  0x00004316      0x1df ./Dave/Generated/EVENT_GENERATOR/event_generator.o
 .debug_abbrev  0x000044f5      0x194 ./Dave/Generated/EVENT_GENERATOR/event_generator_conf.o
 .debug_abbrev  0x00004689      0x1d0 ./Dave/Generated/EVENT_DETECTOR/event_detector.o
 .debug_abbrev  0x00004859      0x185 ./Dave/Generated/EVENT_DETECTOR/event_detector_conf.o
 .debug_abbrev  0x000049de      0x211 ./Dave/Generated/ECAT_SSC/ecat_ssc.o
 .debug_abbrev  0x00004bef      0x18e ./Dave/Generated/ECAT_SSC/ecat_ssc_conf.o
 .debug_abbrev  0x00004d7d      0x466 ./Dave/Generated/ECAT_SSC/xmc_eschw.o
 .debug_abbrev  0x000051e3      0x171 ./Dave/Generated/DIGITAL_IO/digital_io.o
 .debug_abbrev  0x00005354      0x137 ./Dave/Generated/DIGITAL_IO/digital_io_conf.o
 .debug_abbrev  0x0000548b      0x1b4 ./Dave/Generated/CPU_CTRL_XMC4/cpu_ctrl_xmc4_conf.o
 .debug_abbrev  0x0000563f      0x13d ./Dave/Generated/CLOCK_XMC4/clock_xmc4.o
 .debug_abbrev  0x0000577c      0x168 ./Dave/Generated/CLOCK_XMC4/clock_xmc4_conf.o
 .debug_abbrev  0x000058e4      0x20f ./Dave/Generated/DAVE.o
 .debug_abbrev  0x00005af3      0x2fe ./main.o

.debug_line     0x00000000     0xd07b
 *(.debug_line)
 .debug_line    0x00000000       0x87 ./Startup/startup_XMC4300.o
 .debug_line    0x00000087      0x376 ./Startup/system_XMC4300.o
 .debug_line    0x000003fd      0x465 ./SSC/Src/coeappl.o
 .debug_line    0x00000862      0x69e ./SSC/Src/ecatappl.o
 .debug_line    0x00000f00      0x1fc ./SSC/Src/ecatcoe.o
 .debug_line    0x000010fc      0xa44 ./SSC/Src/ecatslv.o
 .debug_line    0x00001b40      0x517 ./SSC/Src/mailbox.o
 .debug_line    0x00002057      0x607 ./SSC/Src/objdef.o
 .debug_line    0x0000265e      0x2fb ./SSC/Src/ryhand.o
 .debug_line    0x00002959      0x441 ./SSC/Src/sdoserv.o
 .debug_line    0x00002d9a      0x2c4 ./Libraries/XMCLib/src/xmc4_eru.o
 .debug_line    0x0000305e      0x587 ./Libraries/XMCLib/src/xmc4_flash.o
 .debug_line    0x000035e5      0x24d ./Libraries/XMCLib/src/xmc4_gpio.o
 .debug_line    0x00003832      0xe6e ./Libraries/XMCLib/src/xmc4_scu.o
 .debug_line    0x000046a0      0x660 ./Libraries/XMCLib/src/xmc_ccu4.o
 .debug_line    0x00004d00      0x725 ./Libraries/XMCLib/src/xmc_dma.o
 .debug_line    0x00005425      0x3db ./Libraries/XMCLib/src/xmc_ecat.o
 .debug_line    0x00005800      0x30f ./Libraries/XMCLib/src/xmc_eru.o
 .debug_line    0x00005b0f      0x424 ./Libraries/XMCLib/src/xmc_fce.o
 .debug_line    0x00005f33      0x23a ./Libraries/XMCLib/src/xmc_gpio.o
 .debug_line    0x0000616d      0x41d ./Libraries/XMCLib/src/xmc_spi.o
 .debug_line    0x0000658a      0x563 ./Libraries/XMCLib/src/xmc_usic.o
 .debug_line    0x00006aed       0xd0 ./Libraries/Newlib/syscalls.o
 .debug_line    0x00006bbd      0x5c0 ./Dave/Generated/TIMER/timer.o
 .debug_line    0x0000717d      0x345 ./Dave/Generated/TIMER/timer_conf.o
 .debug_line    0x000074c2      0x80e ./Dave/Generated/SPI_MASTER/spi_master.o
 .debug_line    0x00007cd0      0x508 ./Dave/Generated/SPI_MASTER/spi_master_conf.o
 .debug_line    0x000081d8      0x356 ./Dave/Generated/INTERRUPT/interrupt.o
 .debug_line    0x0000852e      0x236 ./Dave/Generated/INTERRUPT/interrupt_conf.o
 .debug_line    0x00008764      0x3b0 ./Dave/Generated/GLOBAL_DMA/global_dma.o
 .debug_line    0x00008b14      0x2b6 ./Dave/Generated/GLOBAL_DMA/global_dma_conf.o
 .debug_line    0x00008dca      0x370 ./Dave/Generated/GLOBAL_CCU4/global_ccu4.o
 .debug_line    0x0000913a      0x2ca ./Dave/Generated/GLOBAL_CCU4/global_ccu4_conf.o
 .debug_line    0x00009404      0x53e ./Dave/Generated/E_EEPROM_XMC4/e_eeprom_xmc4.o
 .debug_line    0x00009942      0x1bc ./Dave/Generated/E_EEPROM_XMC4/e_eeprom_xmc4_conf.o
 .debug_line    0x00009afe      0x34a ./Dave/Generated/EVENT_GENERATOR/event_generator.o
 .debug_line    0x00009e48      0x2ba ./Dave/Generated/EVENT_GENERATOR/event_generator_conf.o
 .debug_line    0x0000a102      0x2b9 ./Dave/Generated/EVENT_DETECTOR/event_detector.o
 .debug_line    0x0000a3bb      0x22a ./Dave/Generated/EVENT_DETECTOR/event_detector_conf.o
 .debug_line    0x0000a5e5      0x61e ./Dave/Generated/ECAT_SSC/ecat_ssc.o
 .debug_line    0x0000ac03      0x4cb ./Dave/Generated/ECAT_SSC/ecat_ssc_conf.o
 .debug_line    0x0000b0ce      0x605 ./Dave/Generated/ECAT_SSC/xmc_eschw.o
 .debug_line    0x0000b6d3      0x2bc ./Dave/Generated/DIGITAL_IO/digital_io.o
 .debug_line    0x0000b98f      0x22e ./Dave/Generated/DIGITAL_IO/digital_io_conf.o
 .debug_line    0x0000bbbd      0x2a7 ./Dave/Generated/CPU_CTRL_XMC4/cpu_ctrl_xmc4_conf.o
 .debug_line    0x0000be64      0x2f2 ./Dave/Generated/CLOCK_XMC4/clock_xmc4.o
 .debug_line    0x0000c156      0x2eb ./Dave/Generated/CLOCK_XMC4/clock_xmc4_conf.o
 .debug_line    0x0000c441      0x5c7 ./Dave/Generated/DAVE.o
 .debug_line    0x0000ca08      0x673 ./main.o

.debug_frame    0x00000000     0x5c68
 *(.debug_frame)
 .debug_frame   0x00000000       0xec ./Startup/system_XMC4300.o
 .debug_frame   0x000000ec      0x1f0 ./SSC/Src/coeappl.o
 .debug_frame   0x000002dc      0x2bc ./SSC/Src/ecatappl.o
 .debug_frame   0x00000598       0x84 ./SSC/Src/ecatcoe.o
 .debug_frame   0x0000061c      0x38c ./SSC/Src/ecatslv.o
 .debug_frame   0x000009a8      0x2b8 ./SSC/Src/mailbox.o
 .debug_frame   0x00000c60      0x200 ./SSC/Src/objdef.o
 .debug_frame   0x00000e60      0x1d4 ./SSC/Src/ryhand.o
 .debug_frame   0x00001034      0x138 ./SSC/Src/sdoserv.o
 .debug_frame   0x0000116c       0x60 ./Libraries/XMCLib/src/xmc4_eru.o
 .debug_frame   0x000011cc      0x404 ./Libraries/XMCLib/src/xmc4_flash.o
 .debug_frame   0x000015d0       0x60 ./Libraries/XMCLib/src/xmc4_gpio.o
 .debug_frame   0x00001630     0x125c ./Libraries/XMCLib/src/xmc4_scu.o
 .debug_frame   0x0000288c      0x5b0 ./Libraries/XMCLib/src/xmc_ccu4.o
 .debug_frame   0x00002e3c      0x650 ./Libraries/XMCLib/src/xmc_dma.o
 .debug_frame   0x0000348c      0x1cc ./Libraries/XMCLib/src/xmc_ecat.o
 .debug_frame   0x00003658      0x240 ./Libraries/XMCLib/src/xmc_eru.o
 .debug_frame   0x00003898      0x1b0 ./Libraries/XMCLib/src/xmc_fce.o
 .debug_frame   0x00003a48       0x60 ./Libraries/XMCLib/src/xmc_gpio.o
 .debug_frame   0x00003aa8      0x240 ./Libraries/XMCLib/src/xmc_spi.o
 .debug_frame   0x00003ce8      0x330 ./Libraries/XMCLib/src/xmc_usic.o
 .debug_frame   0x00004018       0x5c ./Libraries/Newlib/syscalls.o
 .debug_frame   0x00004074      0x3e0 ./Dave/Generated/TIMER/timer.o
 .debug_frame   0x00004454      0x510 ./Dave/Generated/SPI_MASTER/spi_master.o
 .debug_frame   0x00004964      0x2e0 ./Dave/Generated/SPI_MASTER/spi_master_conf.o
 .debug_frame   0x00004c44      0x124 ./Dave/Generated/INTERRUPT/interrupt.o
 .debug_frame   0x00004d68       0xfc ./Dave/Generated/GLOBAL_DMA/global_dma.o
 .debug_frame   0x00004e64       0x2c ./Dave/Generated/GLOBAL_DMA/global_dma_conf.o
 .debug_frame   0x00004e90       0x88 ./Dave/Generated/GLOBAL_CCU4/global_ccu4.o
 .debug_frame   0x00004f18      0x2b0 ./Dave/Generated/E_EEPROM_XMC4/e_eeprom_xmc4.o
 .debug_frame   0x000051c8       0x60 ./Dave/Generated/EVENT_GENERATOR/event_generator.o
 .debug_frame   0x00005228       0x60 ./Dave/Generated/EVENT_DETECTOR/event_detector.o
 .debug_frame   0x00005288       0xa8 ./Dave/Generated/ECAT_SSC/ecat_ssc.o
 .debug_frame   0x00005330      0x320 ./Dave/Generated/ECAT_SSC/xmc_eschw.o
 .debug_frame   0x00005650       0x60 ./Dave/Generated/DIGITAL_IO/digital_io.o
 .debug_frame   0x000056b0       0x60 ./Dave/Generated/CPU_CTRL_XMC4/cpu_ctrl_xmc4_conf.o
 .debug_frame   0x00005710       0xac ./Dave/Generated/CLOCK_XMC4/clock_xmc4.o
 .debug_frame   0x000057bc       0x64 ./Dave/Generated/CLOCK_XMC4/clock_xmc4_conf.o
 .debug_frame   0x00005820       0x38 ./Dave/Generated/DAVE.o
 .debug_frame   0x00005858      0x224 ./main.o
 .debug_frame   0x00005a7c       0x20 d:/infineon/tools/dave ide/4.5.0.202105191637/eclipse/arm-gcc-49/bin/../lib/gcc/arm-none-eabi/4.9.3/../../../../arm-none-eabi/lib/armv7e-m/softfp\libg_nano.a(lib_a-errno.o)
 .debug_frame   0x00005a9c       0x2c d:/infineon/tools/dave ide/4.5.0.202105191637/eclipse/arm-gcc-49/bin/../lib/gcc/arm-none-eabi/4.9.3/../../../../arm-none-eabi/lib/armv7e-m/softfp\libg_nano.a(lib_a-init.o)
 .debug_frame   0x00005ac8       0x30 d:/infineon/tools/dave ide/4.5.0.202105191637/eclipse/arm-gcc-49/bin/../lib/gcc/arm-none-eabi/4.9.3/../../../../arm-none-eabi/lib/armv7e-m/softfp\libg_nano.a(lib_a-malloc.o)
 .debug_frame   0x00005af8       0x28 d:/infineon/tools/dave ide/4.5.0.202105191637/eclipse/arm-gcc-49/bin/../lib/gcc/arm-none-eabi/4.9.3/../../../../arm-none-eabi/lib/armv7e-m/softfp\libg_nano.a(lib_a-memcmp.o)
 .debug_frame   0x00005b20       0x28 d:/infineon/tools/dave ide/4.5.0.202105191637/eclipse/arm-gcc-49/bin/../lib/gcc/arm-none-eabi/4.9.3/../../../../arm-none-eabi/lib/armv7e-m/softfp\libg_nano.a(lib_a-memcpy.o)
 .debug_frame   0x00005b48       0x20 d:/infineon/tools/dave ide/4.5.0.202105191637/eclipse/arm-gcc-49/bin/../lib/gcc/arm-none-eabi/4.9.3/../../../../arm-none-eabi/lib/armv7e-m/softfp\libg_nano.a(lib_a-memset.o)
 .debug_frame   0x00005b68       0x2c d:/infineon/tools/dave ide/4.5.0.202105191637/eclipse/arm-gcc-49/bin/../lib/gcc/arm-none-eabi/4.9.3/../../../../arm-none-eabi/lib/armv7e-m/softfp\libg_nano.a(lib_a-nano-freer.o)
 .debug_frame   0x00005b94       0x2c d:/infineon/tools/dave ide/4.5.0.202105191637/eclipse/arm-gcc-49/bin/../lib/gcc/arm-none-eabi/4.9.3/../../../../arm-none-eabi/lib/armv7e-m/softfp\libg_nano.a(lib_a-nano-mallocr.o)
 .debug_frame   0x00005bc0       0x2c d:/infineon/tools/dave ide/4.5.0.202105191637/eclipse/arm-gcc-49/bin/../lib/gcc/arm-none-eabi/4.9.3/../../../../arm-none-eabi/lib/armv7e-m/softfp\libg_nano.a(lib_a-sbrkr.o)
 .debug_frame   0x00005bec       0x20 d:/infineon/tools/dave ide/4.5.0.202105191637/eclipse/arm-gcc-49/bin/../lib/gcc/arm-none-eabi/4.9.3/../../../../arm-none-eabi/lib/armv7e-m/softfp\libg_nano.a(lib_a-strlen.o)
 .debug_frame   0x00005c0c       0x5c d:/infineon/tools/dave ide/4.5.0.202105191637/eclipse/arm-gcc-49/bin/../lib/gcc/arm-none-eabi/4.9.3/../../../../arm-none-eabi/lib/armv7e-m/softfp\libg_nano.a(lib_a-reent.o)

.debug_str      0x00000000     0xe4c9
 *(.debug_str)
 .debug_str     0x00000000      0x5d1 ./Startup/system_XMC4300.o
                                0x648 (size before relaxing)
 .debug_str     0x000005d1     0x110d ./SSC/Src/coeappl.o
                               0x1419 (size before relaxing)
 .debug_str     0x000016de      0x4e9 ./SSC/Src/ecatappl.o
                               0x1095 (size before relaxing)
 .debug_str     0x00001bc7      0x140 ./SSC/Src/ecatcoe.o
                                0x468 (size before relaxing)
 .debug_str     0x00001d07      0x458 ./SSC/Src/ecatslv.o
                               0x122f (size before relaxing)
 .debug_str     0x0000215f      0x25f ./SSC/Src/mailbox.o
                                0xd21 (size before relaxing)
 .debug_str     0x000023be      0x213 ./SSC/Src/objdef.o
                                0x7ee (size before relaxing)
 .debug_str     0x000025d1      0x176 ./SSC/Src/ryhand.o
                                0x7ba (size before relaxing)
 .debug_str     0x00002747      0x2ae ./SSC/Src/sdoserv.o
                                0x86f (size before relaxing)
 .debug_str     0x000029f5      0x53a ./Libraries/XMCLib/src/xmc4_eru.o
                                0x7d3 (size before relaxing)
 .debug_str     0x00002f2f      0x91c ./Libraries/XMCLib/src/xmc4_flash.o
                                0xc2b (size before relaxing)
 .debug_str     0x0000384b      0x530 ./Libraries/XMCLib/src/xmc4_gpio.o
                                0x7f3 (size before relaxing)
 .debug_str     0x00003d7b     0x1cbf ./Libraries/XMCLib/src/xmc4_scu.o
                               0x26de (size before relaxing)
 .debug_str     0x00005a3a     0x150d ./Libraries/XMCLib/src/xmc_ccu4.o
                               0x1ce0 (size before relaxing)
 .debug_str     0x00006f47      0xf73 ./Libraries/XMCLib/src/xmc_dma.o
                               0x17f2 (size before relaxing)
 .debug_str     0x00007eba      0x290 ./Libraries/XMCLib/src/xmc_ecat.o
                               0x10cc (size before relaxing)
 .debug_str     0x0000814a      0x9c5 ./Libraries/XMCLib/src/xmc_eru.o
                                0xcff (size before relaxing)
 .debug_str     0x00008b0f      0x2cc ./Libraries/XMCLib/src/xmc_fce.o
                                0xa27 (size before relaxing)
 .debug_str     0x00008ddb       0xca ./Libraries/XMCLib/src/xmc_gpio.o
                                0x6a1 (size before relaxing)
 .debug_str     0x00008ea5      0xae8 ./Libraries/XMCLib/src/xmc_spi.o
                                0xde0 (size before relaxing)
 .debug_str     0x0000998d      0xaeb ./Libraries/XMCLib/src/xmc_usic.o
                               0x13f6 (size before relaxing)
 .debug_str     0x0000a478       0x6f ./Libraries/Newlib/syscalls.o
                                0x22f (size before relaxing)
 .debug_str     0x0000a4e7      0x538 ./Dave/Generated/TIMER/timer.o
                                0xc60 (size before relaxing)
 .debug_str     0x0000aa1f      0x29a ./Dave/Generated/TIMER/timer_conf.o
                                0xba5 (size before relaxing)
 .debug_str     0x0000acb9     0x1695 ./Dave/Generated/SPI_MASTER/spi_master.o
                               0x2e8c (size before relaxing)
 .debug_str     0x0000c34e      0x34d ./Dave/Generated/SPI_MASTER/spi_master_conf.o
                               0x3046 (size before relaxing)
 .debug_str     0x0000c69b      0x1b7 ./Dave/Generated/INTERRUPT/interrupt.o
                                0x90c (size before relaxing)
 .debug_str     0x0000c852       0x4f ./Dave/Generated/INTERRUPT/interrupt_conf.o
                                0x6f0 (size before relaxing)
 .debug_str     0x0000c8a1       0xad ./Dave/Generated/GLOBAL_DMA/global_dma.o
                                0xab4 (size before relaxing)
 .debug_str     0x0000c94e       0x57 ./Dave/Generated/GLOBAL_DMA/global_dma_conf.o
                                0x8fa (size before relaxing)
 .debug_str     0x0000c9a5       0xb5 ./Dave/Generated/GLOBAL_CCU4/global_ccu4.o
                                0x5a3 (size before relaxing)
 .debug_str     0x0000ca5a       0x31 ./Dave/Generated/GLOBAL_CCU4/global_ccu4_conf.o
                                0x4b7 (size before relaxing)
 .debug_str     0x0000ca8b      0x531 ./Dave/Generated/E_EEPROM_XMC4/e_eeprom_xmc4.o
                                0xc52 (size before relaxing)
 .debug_str     0x0000cfbc       0x45 ./Dave/Generated/E_EEPROM_XMC4/e_eeprom_xmc4_conf.o
                                0x2da (size before relaxing)
 .debug_str     0x0000d001      0x10f ./Dave/Generated/EVENT_GENERATOR/event_generator.o
                                0x506 (size before relaxing)
 .debug_str     0x0000d110       0x77 ./Dave/Generated/EVENT_GENERATOR/event_generator_conf.o
                                0x540 (size before relaxing)
 .debug_str     0x0000d187       0xed ./Dave/Generated/EVENT_DETECTOR/event_detector.o
                                0x4f6 (size before relaxing)
 .debug_str     0x0000d274       0x75 ./Dave/Generated/EVENT_DETECTOR/event_detector_conf.o
                                0x867 (size before relaxing)
 .debug_str     0x0000d2e9       0xf8 ./Dave/Generated/ECAT_SSC/ecat_ssc.o
                                0xd78 (size before relaxing)
 .debug_str     0x0000d3e1       0x36 ./Dave/Generated/ECAT_SSC/ecat_ssc_conf.o
                                0xc8d (size before relaxing)
 .debug_str     0x0000d417      0xb9a ./Dave/Generated/ECAT_SSC/xmc_eschw.o
                               0x20ac (size before relaxing)
 .debug_str     0x0000dfb1       0xd3 ./Dave/Generated/DIGITAL_IO/digital_io.o
                                0x930 (size before relaxing)
 .debug_str     0x0000e084       0x3c ./Dave/Generated/DIGITAL_IO/digital_io_conf.o
                                0x87e (size before relaxing)
 .debug_str     0x0000e0c0       0x88 ./Dave/Generated/CPU_CTRL_XMC4/cpu_ctrl_xmc4_conf.o
                                0x433 (size before relaxing)
 .debug_str     0x0000e148       0xe7 ./Dave/Generated/CLOCK_XMC4/clock_xmc4.o
                                0x3e4 (size before relaxing)
 .debug_str     0x0000e22f       0xe5 ./Dave/Generated/CLOCK_XMC4/clock_xmc4_conf.o
                                0x951 (size before relaxing)
 .debug_str     0x0000e314       0x65 ./Dave/Generated/DAVE.o
                               0x2a55 (size before relaxing)
 .debug_str     0x0000e379      0x150 ./main.o
                               0x277a (size before relaxing)

.debug_loc      0x00000000     0xb9b1
 *(.debug_loc)
 .debug_loc     0x00000000      0x1a4 ./Startup/system_XMC4300.o
 .debug_loc     0x000001a4      0x3c0 ./SSC/Src/coeappl.o
 .debug_loc     0x00000564      0x518 ./SSC/Src/ecatappl.o
 .debug_loc     0x00000a7c       0xe4 ./SSC/Src/ecatcoe.o
 .debug_loc     0x00000b60      0x71a ./SSC/Src/ecatslv.o
 .debug_loc     0x0000127a      0x574 ./SSC/Src/mailbox.o
 .debug_loc     0x000017ee      0x40e ./SSC/Src/objdef.o
 .debug_loc     0x00001bfc      0x384 ./SSC/Src/ryhand.o
 .debug_loc     0x00001f80      0x210 ./SSC/Src/sdoserv.o
 .debug_loc     0x00002190       0xa0 ./Libraries/XMCLib/src/xmc4_eru.o
 .debug_loc     0x00002230      0x880 ./Libraries/XMCLib/src/xmc4_flash.o
 .debug_loc     0x00002ab0       0xb8 ./Libraries/XMCLib/src/xmc4_gpio.o
 .debug_loc     0x00002b68     0x265c ./Libraries/XMCLib/src/xmc4_scu.o
 .debug_loc     0x000051c4      0xc90 ./Libraries/XMCLib/src/xmc_ccu4.o
 .debug_loc     0x00005e54      0xe00 ./Libraries/XMCLib/src/xmc_dma.o
 .debug_loc     0x00006c54      0x384 ./Libraries/XMCLib/src/xmc_ecat.o
 .debug_loc     0x00006fd8      0x4f0 ./Libraries/XMCLib/src/xmc_eru.o
 .debug_loc     0x000074c8      0x394 ./Libraries/XMCLib/src/xmc_fce.o
 .debug_loc     0x0000785c       0xb8 ./Libraries/XMCLib/src/xmc_gpio.o
 .debug_loc     0x00007914      0x4b6 ./Libraries/XMCLib/src/xmc_spi.o
 .debug_loc     0x00007dca      0x6c6 ./Libraries/XMCLib/src/xmc_usic.o
 .debug_loc     0x00008490       0x94 ./Libraries/Newlib/syscalls.o
 .debug_loc     0x00008524      0x81c ./Dave/Generated/TIMER/timer.o
 .debug_loc     0x00008d40      0xaa8 ./Dave/Generated/SPI_MASTER/spi_master.o
 .debug_loc     0x000097e8      0x60c ./Dave/Generated/SPI_MASTER/spi_master_conf.o
 .debug_loc     0x00009df4      0x254 ./Dave/Generated/INTERRUPT/interrupt.o
 .debug_loc     0x0000a048      0x204 ./Dave/Generated/GLOBAL_DMA/global_dma.o
 .debug_loc     0x0000a24c       0x2c ./Dave/Generated/GLOBAL_DMA/global_dma_conf.o
 .debug_loc     0x0000a278      0x108 ./Dave/Generated/GLOBAL_CCU4/global_ccu4.o
 .debug_loc     0x0000a380      0x598 ./Dave/Generated/E_EEPROM_XMC4/e_eeprom_xmc4.o
 .debug_loc     0x0000a918       0xac ./Dave/Generated/EVENT_GENERATOR/event_generator.o
 .debug_loc     0x0000a9c4       0xac ./Dave/Generated/EVENT_DETECTOR/event_detector.o
 .debug_loc     0x0000aa70      0x134 ./Dave/Generated/ECAT_SSC/ecat_ssc.o
 .debug_loc     0x0000aba4      0x624 ./Dave/Generated/ECAT_SSC/xmc_eschw.o
 .debug_loc     0x0000b1c8       0xac ./Dave/Generated/DIGITAL_IO/digital_io.o
 .debug_loc     0x0000b274       0xac ./Dave/Generated/CPU_CTRL_XMC4/cpu_ctrl_xmc4_conf.o
 .debug_loc     0x0000b320      0x14c ./Dave/Generated/CLOCK_XMC4/clock_xmc4.o
 .debug_loc     0x0000b46c       0xac ./Dave/Generated/CLOCK_XMC4/clock_xmc4_conf.o
 .debug_loc     0x0000b518       0x50 ./Dave/Generated/DAVE.o
 .debug_loc     0x0000b568      0x449 ./main.o

.debug_macinfo
 *(.debug_macinfo)

.debug_ranges   0x00000000     0x1370
 *(.debug_ranges)
 .debug_ranges  0x00000000       0x38 ./Startup/system_XMC4300.o
 .debug_ranges  0x00000038       0x68 ./SSC/Src/coeappl.o
 .debug_ranges  0x000000a0       0xb8 ./SSC/Src/ecatappl.o
 .debug_ranges  0x00000158       0x20 ./SSC/Src/ecatcoe.o
 .debug_ranges  0x00000178       0xc0 ./SSC/Src/ecatslv.o
 .debug_ranges  0x00000238       0x90 ./SSC/Src/mailbox.o
 .debug_ranges  0x000002c8       0x68 ./SSC/Src/objdef.o
 .debug_ranges  0x00000330       0x68 ./SSC/Src/ryhand.o
 .debug_ranges  0x00000398       0x58 ./SSC/Src/sdoserv.o
 .debug_ranges  0x000003f0       0x18 ./Libraries/XMCLib/src/xmc4_eru.o
 .debug_ranges  0x00000408       0xd8 ./Libraries/XMCLib/src/xmc4_flash.o
 .debug_ranges  0x000004e0       0x18 ./Libraries/XMCLib/src/xmc4_gpio.o
 .debug_ranges  0x000004f8      0x3d8 ./Libraries/XMCLib/src/xmc4_scu.o
 .debug_ranges  0x000008d0      0x128 ./Libraries/XMCLib/src/xmc_ccu4.o
 .debug_ranges  0x000009f8      0x148 ./Libraries/XMCLib/src/xmc_dma.o
 .debug_ranges  0x00000b40       0x68 ./Libraries/XMCLib/src/xmc_ecat.o
 .debug_ranges  0x00000ba8       0x78 ./Libraries/XMCLib/src/xmc_eru.o
 .debug_ranges  0x00000c20       0x60 ./Libraries/XMCLib/src/xmc_fce.o
 .debug_ranges  0x00000c80       0x18 ./Libraries/XMCLib/src/xmc_gpio.o
 .debug_ranges  0x00000c98       0x78 ./Libraries/XMCLib/src/xmc_spi.o
 .debug_ranges  0x00000d10       0xa8 ./Libraries/XMCLib/src/xmc_usic.o
 .debug_ranges  0x00000db8       0x18 ./Libraries/Newlib/syscalls.o
 .debug_ranges  0x00000dd0       0xc8 ./Dave/Generated/TIMER/timer.o
 .debug_ranges  0x00000e98      0x108 ./Dave/Generated/SPI_MASTER/spi_master.o
 .debug_ranges  0x00000fa0       0x98 ./Dave/Generated/SPI_MASTER/spi_master_conf.o
 .debug_ranges  0x00001038       0x40 ./Dave/Generated/INTERRUPT/interrupt.o
 .debug_ranges  0x00001078       0x38 ./Dave/Generated/GLOBAL_DMA/global_dma.o
 .debug_ranges  0x000010b0       0x10 ./Dave/Generated/GLOBAL_DMA/global_dma_conf.o
 .debug_ranges  0x000010c0       0x20 ./Dave/Generated/GLOBAL_CCU4/global_ccu4.o
 .debug_ranges  0x000010e0       0x90 ./Dave/Generated/E_EEPROM_XMC4/e_eeprom_xmc4.o
 .debug_ranges  0x00001170       0x18 ./Dave/Generated/EVENT_GENERATOR/event_generator.o
 .debug_ranges  0x00001188       0x18 ./Dave/Generated/EVENT_DETECTOR/event_detector.o
 .debug_ranges  0x000011a0       0x28 ./Dave/Generated/ECAT_SSC/ecat_ssc.o
 .debug_ranges  0x000011c8       0xb0 ./Dave/Generated/ECAT_SSC/xmc_eschw.o
 .debug_ranges  0x00001278       0x18 ./Dave/Generated/DIGITAL_IO/digital_io.o
 .debug_ranges  0x00001290       0x18 ./Dave/Generated/CPU_CTRL_XMC4/cpu_ctrl_xmc4_conf.o
 .debug_ranges  0x000012a8       0x28 ./Dave/Generated/CLOCK_XMC4/clock_xmc4.o
 .debug_ranges  0x000012d0       0x18 ./Dave/Generated/CLOCK_XMC4/clock_xmc4_conf.o
 .debug_ranges  0x000012e8       0x10 ./Dave/Generated/DAVE.o
 .debug_ranges  0x000012f8       0x78 ./main.o

.debug_weaknames
 *(.debug_weaknames)

.debug_funcnames
 *(.debug_funcnames)

.debug_typenames
 *(.debug_typenames)

.debug_varnames
 *(.debug_varnames)

.build_attributes
                0x00000000      0xccd
 *(.ARM.attributes)
 .ARM.attributes
                0x00000000       0x25 ./Startup/startup_XMC4300.o
 .ARM.attributes
                0x00000025       0x37 ./Startup/system_XMC4300.o
 .ARM.attributes
                0x0000005c       0x37 ./SSC/Src/coeappl.o
 .ARM.attributes
                0x00000093       0x37 ./SSC/Src/ecatappl.o
 .ARM.attributes
                0x000000ca       0x37 ./SSC/Src/ecatcoe.o
 .ARM.attributes
                0x00000101       0x37 ./SSC/Src/ecatslv.o
 .ARM.attributes
                0x00000138       0x37 ./SSC/Src/mailbox.o
 .ARM.attributes
                0x0000016f       0x37 ./SSC/Src/objdef.o
 .ARM.attributes
                0x000001a6       0x37 ./SSC/Src/ryhand.o
 .ARM.attributes
                0x000001dd       0x37 ./SSC/Src/sdoserv.o
 .ARM.attributes
                0x00000214       0x37 ./Libraries/XMCLib/src/xmc4_eru.o
 .ARM.attributes
                0x0000024b       0x37 ./Libraries/XMCLib/src/xmc4_flash.o
 .ARM.attributes
                0x00000282       0x37 ./Libraries/XMCLib/src/xmc4_gpio.o
 .ARM.attributes
                0x000002b9       0x37 ./Libraries/XMCLib/src/xmc4_scu.o
 .ARM.attributes
                0x000002f0       0x37 ./Libraries/XMCLib/src/xmc_ccu4.o
 .ARM.attributes
                0x00000327       0x37 ./Libraries/XMCLib/src/xmc_dma.o
 .ARM.attributes
                0x0000035e       0x37 ./Libraries/XMCLib/src/xmc_ecat.o
 .ARM.attributes
                0x00000395       0x37 ./Libraries/XMCLib/src/xmc_eru.o
 .ARM.attributes
                0x000003cc       0x37 ./Libraries/XMCLib/src/xmc_fce.o
 .ARM.attributes
                0x00000403       0x37 ./Libraries/XMCLib/src/xmc_gpio.o
 .ARM.attributes
                0x0000043a       0x37 ./Libraries/XMCLib/src/xmc_spi.o
 .ARM.attributes
                0x00000471       0x37 ./Libraries/XMCLib/src/xmc_usic.o
 .ARM.attributes
                0x000004a8       0x37 ./Libraries/Newlib/syscalls.o
 .ARM.attributes
                0x000004df       0x37 ./Dave/Generated/TIMER/timer.o
 .ARM.attributes
                0x00000516       0x37 ./Dave/Generated/TIMER/timer_conf.o
 .ARM.attributes
                0x0000054d       0x37 ./Dave/Generated/SPI_MASTER/spi_master.o
 .ARM.attributes
                0x00000584       0x37 ./Dave/Generated/SPI_MASTER/spi_master_conf.o
 .ARM.attributes
                0x000005bb       0x37 ./Dave/Generated/INTERRUPT/interrupt.o
 .ARM.attributes
                0x000005f2       0x37 ./Dave/Generated/INTERRUPT/interrupt_conf.o
 .ARM.attributes
                0x00000629       0x37 ./Dave/Generated/GLOBAL_DMA/global_dma.o
 .ARM.attributes
                0x00000660       0x37 ./Dave/Generated/GLOBAL_DMA/global_dma_conf.o
 .ARM.attributes
                0x00000697       0x37 ./Dave/Generated/GLOBAL_CCU4/global_ccu4.o
 .ARM.attributes
                0x000006ce       0x37 ./Dave/Generated/GLOBAL_CCU4/global_ccu4_conf.o
 .ARM.attributes
                0x00000705       0x37 ./Dave/Generated/E_EEPROM_XMC4/e_eeprom_xmc4.o
 .ARM.attributes
                0x0000073c       0x37 ./Dave/Generated/E_EEPROM_XMC4/e_eeprom_xmc4_conf.o
 .ARM.attributes
                0x00000773       0x37 ./Dave/Generated/EVENT_GENERATOR/event_generator.o
 .ARM.attributes
                0x000007aa       0x37 ./Dave/Generated/EVENT_GENERATOR/event_generator_conf.o
 .ARM.attributes
                0x000007e1       0x37 ./Dave/Generated/EVENT_DETECTOR/event_detector.o
 .ARM.attributes
                0x00000818       0x37 ./Dave/Generated/EVENT_DETECTOR/event_detector_conf.o
 .ARM.attributes
                0x0000084f       0x37 ./Dave/Generated/ECAT_SSC/ecat_ssc.o
 .ARM.attributes
                0x00000886       0x37 ./Dave/Generated/ECAT_SSC/ecat_ssc_conf.o
 .ARM.attributes
                0x000008bd       0x37 ./Dave/Generated/ECAT_SSC/xmc_eschw.o
 .ARM.attributes
                0x000008f4       0x37 ./Dave/Generated/DIGITAL_IO/digital_io.o
 .ARM.attributes
                0x0000092b       0x37 ./Dave/Generated/DIGITAL_IO/digital_io_conf.o
 .ARM.attributes
                0x00000962       0x37 ./Dave/Generated/CPU_CTRL_XMC4/cpu_ctrl_xmc4_conf.o
 .ARM.attributes
                0x00000999       0x37 ./Dave/Generated/CLOCK_XMC4/clock_xmc4.o
 .ARM.attributes
                0x000009d0       0x37 ./Dave/Generated/CLOCK_XMC4/clock_xmc4_conf.o
 .ARM.attributes
                0x00000a07       0x37 ./Dave/Generated/DAVE.o
 .ARM.attributes
                0x00000a3e       0x37 ./main.o
 .ARM.attributes
                0x00000a75       0x32 d:/infineon/tools/dave ide/4.5.0.202105191637/eclipse/arm-gcc-49/bin/../lib/gcc/arm-none-eabi/4.9.3/../../../../arm-none-eabi/lib/armv7e-m/softfp\libg_nano.a(lib_a-errno.o)
 .ARM.attributes
                0x00000aa7       0x32 d:/infineon/tools/dave ide/4.5.0.202105191637/eclipse/arm-gcc-49/bin/../lib/gcc/arm-none-eabi/4.9.3/../../../../arm-none-eabi/lib/armv7e-m/softfp\libg_nano.a(lib_a-impure.o)
 .ARM.attributes
                0x00000ad9       0x32 d:/infineon/tools/dave ide/4.5.0.202105191637/eclipse/arm-gcc-49/bin/../lib/gcc/arm-none-eabi/4.9.3/../../../../arm-none-eabi/lib/armv7e-m/softfp\libg_nano.a(lib_a-init.o)
 .ARM.attributes
                0x00000b0b       0x32 d:/infineon/tools/dave ide/4.5.0.202105191637/eclipse/arm-gcc-49/bin/../lib/gcc/arm-none-eabi/4.9.3/../../../../arm-none-eabi/lib/armv7e-m/softfp\libg_nano.a(lib_a-malloc.o)
 .ARM.attributes
                0x00000b3d       0x32 d:/infineon/tools/dave ide/4.5.0.202105191637/eclipse/arm-gcc-49/bin/../lib/gcc/arm-none-eabi/4.9.3/../../../../arm-none-eabi/lib/armv7e-m/softfp\libg_nano.a(lib_a-memcmp.o)
 .ARM.attributes
                0x00000b6f       0x32 d:/infineon/tools/dave ide/4.5.0.202105191637/eclipse/arm-gcc-49/bin/../lib/gcc/arm-none-eabi/4.9.3/../../../../arm-none-eabi/lib/armv7e-m/softfp\libg_nano.a(lib_a-memcpy.o)
 .ARM.attributes
                0x00000ba1       0x32 d:/infineon/tools/dave ide/4.5.0.202105191637/eclipse/arm-gcc-49/bin/../lib/gcc/arm-none-eabi/4.9.3/../../../../arm-none-eabi/lib/armv7e-m/softfp\libg_nano.a(lib_a-memset.o)
 .ARM.attributes
                0x00000bd3       0x32 d:/infineon/tools/dave ide/4.5.0.202105191637/eclipse/arm-gcc-49/bin/../lib/gcc/arm-none-eabi/4.9.3/../../../../arm-none-eabi/lib/armv7e-m/softfp\libg_nano.a(lib_a-nano-freer.o)
 .ARM.attributes
                0x00000c05       0x32 d:/infineon/tools/dave ide/4.5.0.202105191637/eclipse/arm-gcc-49/bin/../lib/gcc/arm-none-eabi/4.9.3/../../../../arm-none-eabi/lib/armv7e-m/softfp\libg_nano.a(lib_a-nano-mallocr.o)
 .ARM.attributes
                0x00000c37       0x32 d:/infineon/tools/dave ide/4.5.0.202105191637/eclipse/arm-gcc-49/bin/../lib/gcc/arm-none-eabi/4.9.3/../../../../arm-none-eabi/lib/armv7e-m/softfp\libg_nano.a(lib_a-sbrkr.o)
 .ARM.attributes
                0x00000c69       0x32 d:/infineon/tools/dave ide/4.5.0.202105191637/eclipse/arm-gcc-49/bin/../lib/gcc/arm-none-eabi/4.9.3/../../../../arm-none-eabi/lib/armv7e-m/softfp\libg_nano.a(lib_a-strlen.o)
 .ARM.attributes
                0x00000c9b       0x32 d:/infineon/tools/dave ide/4.5.0.202105191637/eclipse/arm-gcc-49/bin/../lib/gcc/arm-none-eabi/4.9.3/../../../../arm-none-eabi/lib/armv7e-m/softfp\libg_nano.a(lib_a-reent.o)
OUTPUT(LED_test.elf elf32-littlearm)
