   1              	 .syntax unified
   2              	 .cpu cortex-m4
   3              	 .eabi_attribute 27,3
   4              	 .fpu fpv4-sp-d16
   5              	 .eabi_attribute 20,1
   6              	 .eabi_attribute 21,1
   7              	 .eabi_attribute 23,3
   8              	 .eabi_attribute 24,1
   9              	 .eabi_attribute 25,1
  10              	 .eabi_attribute 26,1
  11              	 .eabi_attribute 30,6
  12              	 .eabi_attribute 34,1
  13              	 .eabi_attribute 18,4
  14              	 .thumb
  15              	 .file "system_XMC4300.c"
  16              	 .text
  17              	.Ltext0:
  18              	 .cfi_sections .debug_frame
  19              	 .global SystemCoreClock
  20              	 .section .no_init,"aw",%progbits
  21              	 .align 2
  24              	SystemCoreClock:
  25 0000 00000000 	 .space 4
  26              	 .global g_chipid
  27              	 .align 2
  30              	g_chipid:
  31 0004 00000000 	 .space 16
  31      00000000 
  31      00000000 
  31      00000000 
  32              	 .section .text.delay,"ax",%progbits
  33              	 .align 2
  34              	 .thumb
  35              	 .thumb_func
  37              	delay:
  38              	.LFB133:
  39              	 .file 1 "../Startup/system_XMC4300.c"
   1:../Startup/system_XMC4300.c **** /**************************************************************************************************
   2:../Startup/system_XMC4300.c ****  * @file     system_XMC4300.c
   3:../Startup/system_XMC4300.c ****  * @brief    CMSIS Cortex-M4 Device Peripheral Access Layer Header File for the Infineon XMC4300 De
   4:../Startup/system_XMC4300.c ****  * @version  V1.0.8
   5:../Startup/system_XMC4300.c ****  * @date     27. Aug 2020
   6:../Startup/system_XMC4300.c ****  *
   7:../Startup/system_XMC4300.c ****  * @cond
   8:../Startup/system_XMC4300.c ****  **************************************************************************************************
   9:../Startup/system_XMC4300.c ****  * Copyright (c) 2015-2020, Infineon Technologies AG
  10:../Startup/system_XMC4300.c ****  * All rights reserved.                        
  11:../Startup/system_XMC4300.c ****  *                                             
  12:../Startup/system_XMC4300.c ****  * Boost Software License - Version 1.0 - August 17th, 2003
  13:../Startup/system_XMC4300.c ****  * 
  14:../Startup/system_XMC4300.c ****  * Permission is hereby granted, free of charge, to any person or organization
  15:../Startup/system_XMC4300.c ****  * obtaining a copy of the software and accompanying documentation covered by
  16:../Startup/system_XMC4300.c ****  * this license (the "Software") to use, reproduce, display, distribute,
  17:../Startup/system_XMC4300.c ****  * execute, and transmit the Software, and to prepare derivative works of the
  18:../Startup/system_XMC4300.c ****  * Software, and to permit third-parties to whom the Software is furnished to
  19:../Startup/system_XMC4300.c ****  * do so, all subject to the following:
  20:../Startup/system_XMC4300.c ****  * 
  21:../Startup/system_XMC4300.c ****  * The copyright notices in the Software and this entire statement, including
  22:../Startup/system_XMC4300.c ****  * the above license grant, this restriction and the following disclaimer,
  23:../Startup/system_XMC4300.c ****  * must be included in all copies of the Software, in whole or in part, and
  24:../Startup/system_XMC4300.c ****  * all derivative works of the Software, unless such copies or derivative
  25:../Startup/system_XMC4300.c ****  * works are solely in the form of machine-executable object code generated by
  26:../Startup/system_XMC4300.c ****  * a source language processor.
  27:../Startup/system_XMC4300.c ****  * 
  28:../Startup/system_XMC4300.c ****  * THE SOFTWARE IS PROVIDED "AS IS", WITHOUT WARRANTY OF ANY KIND, EXPRESS OR
  29:../Startup/system_XMC4300.c ****  * IMPLIED, INCLUDING BUT NOT LIMITED TO THE WARRANTIES OF MERCHANTABILITY,
  30:../Startup/system_XMC4300.c ****  * FITNESS FOR A PARTICULAR PURPOSE, TITLE AND NON-INFRINGEMENT. IN NO EVENT
  31:../Startup/system_XMC4300.c ****  * SHALL THE COPYRIGHT HOLDERS OR ANYONE DISTRIBUTING THE SOFTWARE BE LIABLE
  32:../Startup/system_XMC4300.c ****  * FOR ANY DAMAGES OR OTHER LIABILITY, WHETHER IN CONTRACT, TORT OR OTHERWISE,
  33:../Startup/system_XMC4300.c ****  * ARISING FROM, OUT OF OR IN CONNECTION WITH THE SOFTWARE OR THE USE OR OTHER
  34:../Startup/system_XMC4300.c ****  * DEALINGS IN THE SOFTWARE.
  35:../Startup/system_XMC4300.c ****  *                                                                              
  36:../Startup/system_XMC4300.c ****  * To improve the quality of the software, users are encouraged to share 
  37:../Startup/system_XMC4300.c ****  * modifications, enhancements or bug fixes with Infineon Technologies AG 
  38:../Startup/system_XMC4300.c ****  * at XMCSupport@infineon.com.
  39:../Startup/system_XMC4300.c ****  **************************************************************************************************
  40:../Startup/system_XMC4300.c ****  *
  41:../Startup/system_XMC4300.c ****  ********************** Version History ***************************************
  42:../Startup/system_XMC4300.c ****  * V1.0.0, 19. November 2015, Initial version
  43:../Startup/system_XMC4300.c ****  * V1.0.1, 26. February 2016, EBU clock removed
  44:../Startup/system_XMC4300.c ****  * V1.0.2, 01. Jun 2016, Fix masking of OSCHPCTRL value 
  45:../Startup/system_XMC4300.c ****  * V1.0.3, 09. Feb 2017, Fix activation of USBPLL when SDMMC clock is enabled 
  46:../Startup/system_XMC4300.c ****  * V1.0.4, 19. Jun 2017, Rely on cmsis_compiler.h instead of defining __WEAK 
  47:../Startup/system_XMC4300.c ****  *                       Added support for ARM Compiler 6 (armclang) 
  48:../Startup/system_XMC4300.c ****  * V1.0.5, 26. Sep 2017, Disable FPU if FPU_USED is zero  
  49:../Startup/system_XMC4300.c ****  * V1.0.6, 29. Oct 2018, Fix variable location of SystemCoreClock and g_chipid for ARMCC compiler
  50:../Startup/system_XMC4300.c ****  * V1.0.7, 02. Dec 2019, Fix including device header file following the convention: angle brackets 
  51:../Startup/system_XMC4300.c ****  *                       Fix external clock monitoring pin settings
  52:../Startup/system_XMC4300.c ****  * V1.0.8, 27. Aug 2020. Fix K1 divider input clock for PLL in prescaler mode
  53:../Startup/system_XMC4300.c ****  *                       Added compiler checks for input VCO and VCO frequencies
  54:../Startup/system_XMC4300.c ****  *                       Added wait for K2 divider ready after updating the K2 divider in the PLL r
  55:../Startup/system_XMC4300.c ****  ******************************************************************************
  56:../Startup/system_XMC4300.c ****  * @endcond
  57:../Startup/system_XMC4300.c ****  */
  58:../Startup/system_XMC4300.c **** 
  59:../Startup/system_XMC4300.c **** /*******************************************************************************
  60:../Startup/system_XMC4300.c ****  * Default clock initialization
  61:../Startup/system_XMC4300.c ****  * fPLL = 288MHz => fSYS = 144MHz => fCPU = 144MHz
  62:../Startup/system_XMC4300.c ****  *                                => fPB  = 144MHz
  63:../Startup/system_XMC4300.c ****  *                                => fCCU = 144MHz
  64:../Startup/system_XMC4300.c ****  *                                => fETH = 72MHz
  65:../Startup/system_XMC4300.c ****  *               => fUSB = 48MHz
  66:../Startup/system_XMC4300.c ****  *               => fEBU = 72MHz
  67:../Startup/system_XMC4300.c ****  *
  68:../Startup/system_XMC4300.c ****  * fUSBPLL = 200MHz => fECAT = 100MHz
  69:../Startup/system_XMC4300.c ****  *
  70:../Startup/system_XMC4300.c ****  * fOFI = 24MHz => fWDT = 24MHz
  71:../Startup/system_XMC4300.c ****  *******************************************************************************/
  72:../Startup/system_XMC4300.c **** 
  73:../Startup/system_XMC4300.c **** /*******************************************************************************
  74:../Startup/system_XMC4300.c ****  * HEADER FILES
  75:../Startup/system_XMC4300.c ****  *******************************************************************************/
  76:../Startup/system_XMC4300.c **** #include <string.h>
  77:../Startup/system_XMC4300.c **** 
  78:../Startup/system_XMC4300.c **** #include "XMC4300.h"
  79:../Startup/system_XMC4300.c **** #include "system_XMC4300.h"
  80:../Startup/system_XMC4300.c **** 
  81:../Startup/system_XMC4300.c **** /*******************************************************************************
  82:../Startup/system_XMC4300.c ****  * MACROS
  83:../Startup/system_XMC4300.c ****  *******************************************************************************/
  84:../Startup/system_XMC4300.c **** #define CHIPID_LOC ((uint8_t *)0x20000000UL)
  85:../Startup/system_XMC4300.c **** 
  86:../Startup/system_XMC4300.c **** #define PMU_FLASH_WS          (0x4U)
  87:../Startup/system_XMC4300.c **** 
  88:../Startup/system_XMC4300.c **** #define FOSCREF               (2500000U)
  89:../Startup/system_XMC4300.c **** 
  90:../Startup/system_XMC4300.c **** #define DELAY_CNT_50US_50MHZ  (2500UL)
  91:../Startup/system_XMC4300.c **** #define DELAY_CNT_150US_50MHZ (7500UL)
  92:../Startup/system_XMC4300.c **** #define DELAY_CNT_50US_48MHZ  (2400UL)
  93:../Startup/system_XMC4300.c **** #define DELAY_CNT_50US_72MHZ  (3600UL)
  94:../Startup/system_XMC4300.c **** #define DELAY_CNT_50US_96MHZ  (4800UL)
  95:../Startup/system_XMC4300.c **** #define DELAY_CNT_50US_120MHZ (6000UL)
  96:../Startup/system_XMC4300.c **** #define DELAY_CNT_50US_144MHZ (7200UL)
  97:../Startup/system_XMC4300.c **** 
  98:../Startup/system_XMC4300.c **** #define VCO_INPUT_MIN         (4000000UL)
  99:../Startup/system_XMC4300.c **** #define VCO_INPUT_MAX         (16000000UL)
 100:../Startup/system_XMC4300.c **** #define VCO_MIN               (260000000UL)
 101:../Startup/system_XMC4300.c **** #define VCO_MAX               (520000000UL)
 102:../Startup/system_XMC4300.c **** 
 103:../Startup/system_XMC4300.c **** #define SCU_PLL_PLLSTAT_OSC_USABLE  (SCU_PLL_PLLSTAT_PLLHV_Msk | \
 104:../Startup/system_XMC4300.c ****                                      SCU_PLL_PLLSTAT_PLLLV_Msk | \
 105:../Startup/system_XMC4300.c ****                                      SCU_PLL_PLLSTAT_PLLSP_Msk)
 106:../Startup/system_XMC4300.c **** 
 107:../Startup/system_XMC4300.c **** /*
 108:../Startup/system_XMC4300.c **** //-------- <<< Use Configuration Wizard in Context Menu >>> ------------------
 109:../Startup/system_XMC4300.c **** */
 110:../Startup/system_XMC4300.c **** 
 111:../Startup/system_XMC4300.c **** /*
 112:../Startup/system_XMC4300.c **** // <h> Clock configuration
 113:../Startup/system_XMC4300.c **** */
 114:../Startup/system_XMC4300.c **** 
 115:../Startup/system_XMC4300.c **** /*
 116:../Startup/system_XMC4300.c **** //    <o> External crystal frequency [Hz]
 117:../Startup/system_XMC4300.c **** //       <8000000=> 8MHz
 118:../Startup/system_XMC4300.c **** //       <12000000=> 12MHz
 119:../Startup/system_XMC4300.c **** //       <16000000=> 16MHz
 120:../Startup/system_XMC4300.c **** //    <i> Defines external crystal frequency
 121:../Startup/system_XMC4300.c **** //    <i> Default: 8MHz
 122:../Startup/system_XMC4300.c **** */
 123:../Startup/system_XMC4300.c **** #define OSCHP_FREQUENCY (12000000U)
 124:../Startup/system_XMC4300.c **** 
 125:../Startup/system_XMC4300.c **** /* USB PLL settings, fUSBPLL = 200MHz */
 126:../Startup/system_XMC4300.c **** /* Note: Implicit divider of 2, fUSBPLLVCO = 400MHz */
 127:../Startup/system_XMC4300.c **** #if OSCHP_FREQUENCY == 8000000U
 128:../Startup/system_XMC4300.c **** #define USB_PDIV (1U)
 129:../Startup/system_XMC4300.c **** #define USB_NDIV (99U)
 130:../Startup/system_XMC4300.c **** 
 131:../Startup/system_XMC4300.c **** #elif OSCHP_FREQUENCY == 12000000U
 132:../Startup/system_XMC4300.c **** #define USB_PDIV (2U)
 133:../Startup/system_XMC4300.c **** #define USB_NDIV (99U)
 134:../Startup/system_XMC4300.c **** 
 135:../Startup/system_XMC4300.c **** #elif OSCHP_FREQUENCY == 16000000U
 136:../Startup/system_XMC4300.c **** #define USB_PDIV (3U)
 137:../Startup/system_XMC4300.c **** #define USB_NDIV (99U)
 138:../Startup/system_XMC4300.c **** 
 139:../Startup/system_XMC4300.c **** #else
 140:../Startup/system_XMC4300.c **** #error "External crystal frequency not supported"
 141:../Startup/system_XMC4300.c **** 
 142:../Startup/system_XMC4300.c **** #endif
 143:../Startup/system_XMC4300.c **** 
 144:../Startup/system_XMC4300.c **** #define USB_VCO ((OSCHP_FREQUENCY / (USB_PDIV + 1UL)) * (USB_NDIV + 1UL))
 145:../Startup/system_XMC4300.c **** #define USB_VCO_INPUT (OSCHP_FREQUENCY / (USB_PDIV + 1UL))
 146:../Startup/system_XMC4300.c **** 
 147:../Startup/system_XMC4300.c **** /*
 148:../Startup/system_XMC4300.c **** //    <o> Backup clock calibration mode
 149:../Startup/system_XMC4300.c **** //       <0=> Factory calibration
 150:../Startup/system_XMC4300.c **** //       <1=> Automatic calibration
 151:../Startup/system_XMC4300.c **** //    <i> Default: Automatic calibration
 152:../Startup/system_XMC4300.c **** */
 153:../Startup/system_XMC4300.c **** #define FOFI_CALIBRATION_MODE 1
 154:../Startup/system_XMC4300.c **** #define FOFI_CALIBRATION_MODE_FACTORY 0
 155:../Startup/system_XMC4300.c **** #define FOFI_CALIBRATION_MODE_AUTOMATIC 1
 156:../Startup/system_XMC4300.c **** 
 157:../Startup/system_XMC4300.c **** /*
 158:../Startup/system_XMC4300.c **** //    <o> Standby clock (fSTDBY) source selection
 159:../Startup/system_XMC4300.c **** //       <0=> Internal slow oscillator (32768Hz)
 160:../Startup/system_XMC4300.c **** //       <1=> External crystal (32768Hz)
 161:../Startup/system_XMC4300.c **** //    <i> Default: Internal slow oscillator (32768Hz)
 162:../Startup/system_XMC4300.c **** */
 163:../Startup/system_XMC4300.c **** #define STDBY_CLOCK_SRC 0
 164:../Startup/system_XMC4300.c **** #define STDBY_CLOCK_SRC_OSI 0
 165:../Startup/system_XMC4300.c **** #define STDBY_CLOCK_SRC_OSCULP 1
 166:../Startup/system_XMC4300.c **** 
 167:../Startup/system_XMC4300.c **** /*
 168:../Startup/system_XMC4300.c **** //    <o> PLL clock source selection
 169:../Startup/system_XMC4300.c **** //       <0=> External crystal
 170:../Startup/system_XMC4300.c **** //       <1=> Internal fast oscillator
 171:../Startup/system_XMC4300.c **** //    <i> Default: External crystal
 172:../Startup/system_XMC4300.c **** */
 173:../Startup/system_XMC4300.c **** #define PLL_CLOCK_SRC 0
 174:../Startup/system_XMC4300.c **** #define PLL_CLOCK_SRC_EXT_XTAL 0
 175:../Startup/system_XMC4300.c **** #define PLL_CLOCK_SRC_OFI 1
 176:../Startup/system_XMC4300.c **** 
 177:../Startup/system_XMC4300.c **** /* PLL settings, fPLL = 288MHz */
 178:../Startup/system_XMC4300.c **** #if PLL_CLOCK_SRC == PLL_CLOCK_SRC_EXT_XTAL
 179:../Startup/system_XMC4300.c **** #if OSCHP_FREQUENCY == 8000000U
 180:../Startup/system_XMC4300.c **** #define PLL_PDIV (1U)
 181:../Startup/system_XMC4300.c **** #define PLL_NDIV (71U)
 182:../Startup/system_XMC4300.c **** #define PLL_K2DIV (0U)
 183:../Startup/system_XMC4300.c **** 
 184:../Startup/system_XMC4300.c **** #elif OSCHP_FREQUENCY == 12000000U
 185:../Startup/system_XMC4300.c **** #define PLL_PDIV (1U)
 186:../Startup/system_XMC4300.c **** #define PLL_NDIV (47U)
 187:../Startup/system_XMC4300.c **** #define PLL_K2DIV (0U)
 188:../Startup/system_XMC4300.c **** 
 189:../Startup/system_XMC4300.c **** #elif OSCHP_FREQUENCY == 16000000U
 190:../Startup/system_XMC4300.c **** #define PLL_PDIV (1U)
 191:../Startup/system_XMC4300.c **** #define PLL_NDIV (35U)
 192:../Startup/system_XMC4300.c **** #define PLL_K2DIV (0U)
 193:../Startup/system_XMC4300.c **** 
 194:../Startup/system_XMC4300.c **** #else
 195:../Startup/system_XMC4300.c **** #error "External crystal frequency not supported"
 196:../Startup/system_XMC4300.c **** 
 197:../Startup/system_XMC4300.c **** #endif
 198:../Startup/system_XMC4300.c **** 
 199:../Startup/system_XMC4300.c **** #define VCO ((OSCHP_FREQUENCY / (PLL_PDIV + 1UL)) * (PLL_NDIV + 1UL))
 200:../Startup/system_XMC4300.c **** #define VCO_INPUT (OSCHP_FREQUENCY / (PLL_PDIV + 1UL))
 201:../Startup/system_XMC4300.c **** 
 202:../Startup/system_XMC4300.c **** #else /* PLL_CLOCK_SRC == PLL_CLOCK_SRC_EXT_XTAL */
 203:../Startup/system_XMC4300.c **** #define PLL_PDIV (1U)
 204:../Startup/system_XMC4300.c **** #define PLL_NDIV (23U)
 205:../Startup/system_XMC4300.c **** #define PLL_K2DIV (0U)
 206:../Startup/system_XMC4300.c **** 
 207:../Startup/system_XMC4300.c **** #define VCO ((OFI_FREQUENCY / (PLL_PDIV + 1UL)) * (PLL_NDIV + 1UL))
 208:../Startup/system_XMC4300.c **** #define VCO_INPUT (OFI_FREQUENCY / (PLL_PDIV + 1UL))
 209:../Startup/system_XMC4300.c **** 
 210:../Startup/system_XMC4300.c **** #endif /* PLL_CLOCK_SRC == PLL_CLOCK_SRC_OFI */
 211:../Startup/system_XMC4300.c **** 
 212:../Startup/system_XMC4300.c **** #if (VCO_INPUT < VCO_INPUT_MIN) || (VCO_INPUT > VCO_INPUT_MAX)
 213:../Startup/system_XMC4300.c **** #error VCO_INPUT frequency out of range.
 214:../Startup/system_XMC4300.c **** #endif
 215:../Startup/system_XMC4300.c **** 
 216:../Startup/system_XMC4300.c **** #if (VCO < VCO_MIN) || (VCO > VCO_MAX)
 217:../Startup/system_XMC4300.c **** #error VCO frequency out of range.
 218:../Startup/system_XMC4300.c **** #endif
 219:../Startup/system_XMC4300.c **** 
 220:../Startup/system_XMC4300.c **** #if (USB_VCO_INPUT < VCO_INPUT_MIN) || (USB_VCO_INPUT > VCO_INPUT_MAX)
 221:../Startup/system_XMC4300.c **** #error USB_VCO_INPUT frequency out of range.
 222:../Startup/system_XMC4300.c **** #endif
 223:../Startup/system_XMC4300.c **** 
 224:../Startup/system_XMC4300.c **** #if (USB_VCO < VCO_MIN) || (USB_VCO > VCO_MAX)
 225:../Startup/system_XMC4300.c **** #error USB_VCO frequency out of range.
 226:../Startup/system_XMC4300.c **** #endif
 227:../Startup/system_XMC4300.c **** 
 228:../Startup/system_XMC4300.c **** #define PLL_K2DIV_24MHZ  ((VCO / OFI_FREQUENCY) - 1UL)
 229:../Startup/system_XMC4300.c **** #define PLL_K2DIV_48MHZ  ((VCO / 48000000U) - 1UL)
 230:../Startup/system_XMC4300.c **** #define PLL_K2DIV_72MHZ  ((VCO / 72000000U) - 1UL)
 231:../Startup/system_XMC4300.c **** #define PLL_K2DIV_96MHZ  ((VCO / 96000000U) - 1UL)
 232:../Startup/system_XMC4300.c **** #define PLL_K2DIV_120MHZ ((VCO / 120000000U) - 1UL)
 233:../Startup/system_XMC4300.c **** 
 234:../Startup/system_XMC4300.c **** #define SCU_CLK_CLKCLR_ENABLE_USBCLK SCU_CLK_CLKCLR_USBCDI_Msk
 235:../Startup/system_XMC4300.c **** #define SCU_CLK_CLKCLR_ENABLE_MMCCLK SCU_CLK_CLKCLR_MMCCDI_Msk
 236:../Startup/system_XMC4300.c **** #define SCU_CLK_CLKCLR_ENABLE_ETHCLK SCU_CLK_CLKCLR_ETH0CDI_Msk
 237:../Startup/system_XMC4300.c **** #define SCU_CLK_CLKCLR_ENABLE_EBUCLK SCU_CLK_CLKCLR_EBUCDI_Msk
 238:../Startup/system_XMC4300.c **** #define SCU_CLK_CLKCLR_ENABLE_CCUCLK SCU_CLK_CLKCLR_CCUCDI_Msk
 239:../Startup/system_XMC4300.c **** 
 240:../Startup/system_XMC4300.c **** #define SCU_CLK_SYSCLKCR_SYSSEL_OFI      (0U << SCU_CLK_SYSCLKCR_SYSSEL_Pos)
 241:../Startup/system_XMC4300.c **** #define SCU_CLK_SYSCLKCR_SYSSEL_PLL      (1U << SCU_CLK_SYSCLKCR_SYSSEL_Pos)
 242:../Startup/system_XMC4300.c **** 
 243:../Startup/system_XMC4300.c **** #define SCU_CLK_USBCLKCR_USBSEL_USBPLL   (0U << SCU_CLK_USBCLKCR_USBSEL_Pos)
 244:../Startup/system_XMC4300.c **** #define SCU_CLK_USBCLKCR_USBSEL_PLL      (1U << SCU_CLK_USBCLKCR_USBSEL_Pos)
 245:../Startup/system_XMC4300.c **** 
 246:../Startup/system_XMC4300.c **** #define SCU_CLK_ECATCLKCR_ECATSEL_USBPLL (0U << SCU_CLK_ECATCLKCR_ECATSEL_Pos)
 247:../Startup/system_XMC4300.c **** #define SCU_CLK_ECATCLKCR_ECATSEL_PLL    (1U << SCU_CLK_ECATCLKCR_ECATSEL_Pos)
 248:../Startup/system_XMC4300.c **** 
 249:../Startup/system_XMC4300.c **** #define SCU_CLK_WDTCLKCR_WDTSEL_OFI      (0U << SCU_CLK_WDTCLKCR_WDTSEL_Pos)
 250:../Startup/system_XMC4300.c **** #define SCU_CLK_WDTCLKCR_WDTSEL_STANDBY  (1U << SCU_CLK_WDTCLKCR_WDTSEL_Pos)
 251:../Startup/system_XMC4300.c **** #define SCU_CLK_WDTCLKCR_WDTSEL_PLL      (2U << SCU_CLK_WDTCLKCR_WDTSEL_Pos)
 252:../Startup/system_XMC4300.c **** 
 253:../Startup/system_XMC4300.c **** #define SCU_CLK_EXTCLKCR_ECKSEL_SYS      (0U << SCU_CLK_EXTCLKCR_ECKSEL_Pos)
 254:../Startup/system_XMC4300.c **** #define SCU_CLK_EXTCLKCR_ECKSEL_USBPLL   (2U << SCU_CLK_EXTCLKCR_ECKSEL_Pos)
 255:../Startup/system_XMC4300.c **** #define SCU_CLK_EXTCLKCR_ECKSEL_PLL      (3U << SCU_CLK_EXTCLKCR_ECKSEL_Pos)
 256:../Startup/system_XMC4300.c **** 
 257:../Startup/system_XMC4300.c **** #define EXTCLK_PIN_P0_8  (1)
 258:../Startup/system_XMC4300.c **** #define EXTCLK_PIN_P1_15 (2)
 259:../Startup/system_XMC4300.c **** 
 260:../Startup/system_XMC4300.c **** /*
 261:../Startup/system_XMC4300.c **** //    <h> Clock tree
 262:../Startup/system_XMC4300.c **** //        <o1.16> System clock source selection
 263:../Startup/system_XMC4300.c **** //                      <0=> fOFI
 264:../Startup/system_XMC4300.c **** //                      <1=> fPLL
 265:../Startup/system_XMC4300.c **** //                      <i> Default: fPLL
 266:../Startup/system_XMC4300.c **** //        <o1.0..7> System clock divider <1-256><#-1>
 267:../Startup/system_XMC4300.c **** //                      <i> Default: 2
 268:../Startup/system_XMC4300.c **** //        <o2.0> CPU clock divider
 269:../Startup/system_XMC4300.c **** //                      <0=> fCPU = fSYS
 270:../Startup/system_XMC4300.c **** //                      <1=> fCPU = fSYS / 2
 271:../Startup/system_XMC4300.c **** //                      <i> Default: fCPU = fSYS
 272:../Startup/system_XMC4300.c **** //        <o3.0>  Peripheral clock divider
 273:../Startup/system_XMC4300.c **** //                      <0=> fPB = fCPU
 274:../Startup/system_XMC4300.c **** //                      <1=> fPB = fCPU / 2
 275:../Startup/system_XMC4300.c **** //                      <i> Default: fPB = fCPU
 276:../Startup/system_XMC4300.c **** //        <o4.0>  CCU clock divider
 277:../Startup/system_XMC4300.c **** //                      <0=> fCCU = fCPU
 278:../Startup/system_XMC4300.c **** //                      <1=> fCCU = fCPU / 2
 279:../Startup/system_XMC4300.c **** //                      <i> Default: fCCU = fCPU
 280:../Startup/system_XMC4300.c **** //        <e.5> Enable WDT clock
 281:../Startup/system_XMC4300.c **** //             <o5.16..17> WDT clock source <0=> fOFI
 282:../Startup/system_XMC4300.c **** //                                          <1=> fSTDBY
 283:../Startup/system_XMC4300.c **** //                                          <2=> fPLL
 284:../Startup/system_XMC4300.c **** //                      <i> Default: fOFI
 285:../Startup/system_XMC4300.c **** //             <o5.0..7> WDT clock divider <1-256><#-1>
 286:../Startup/system_XMC4300.c **** //                      <i> Default: 1
 287:../Startup/system_XMC4300.c **** //        </e>
 288:../Startup/system_XMC4300.c **** //        <e.2> Enable ETH clock
 289:../Startup/system_XMC4300.c **** //        </e>
 290:../Startup/system_XMC4300.c **** //        <e.1> Enable MMC clock
 291:../Startup/system_XMC4300.c **** //        </e>
 292:../Startup/system_XMC4300.c **** //        <e.0> Enable USB clock
 293:../Startup/system_XMC4300.c **** //             <o6.16> USB clock source <0=> fUSBPLL
 294:../Startup/system_XMC4300.c **** //                                      <1=> fPLL
 295:../Startup/system_XMC4300.c **** //             <i> Default: fPLL
 296:../Startup/system_XMC4300.c **** //             <o6.0..2> USB clock source divider <1-8><#-1>
 297:../Startup/system_XMC4300.c **** //             <i> Default: 6
 298:../Startup/system_XMC4300.c **** //        </e>
 299:../Startup/system_XMC4300.c **** //        <o7.16..17> ECAT clock source <0=> fUSBPLL
 300:../Startup/system_XMC4300.c **** //                                      <1=> fPLL
 301:../Startup/system_XMC4300.c **** //             <i> Default: fUSBPLL
 302:../Startup/system_XMC4300.c **** //        <o7.0..1> ECAT clock divider <1-4><#-1>
 303:../Startup/system_XMC4300.c **** //             <i> Default: 2
 304:../Startup/system_XMC4300.c **** //        <h> External Clock Control
 305:../Startup/system_XMC4300.c **** //             <o8.0..1> External Clock Source Selection
 306:../Startup/system_XMC4300.c **** //                  <0=> fSYS
 307:../Startup/system_XMC4300.c **** //                  <2=> fUSB
 308:../Startup/system_XMC4300.c **** //                  <3=> fPLL
 309:../Startup/system_XMC4300.c **** //                  <i> Default: fPLL
 310:../Startup/system_XMC4300.c **** //             <o8.16..24> External Clock divider <1-512><#-1>
 311:../Startup/system_XMC4300.c **** //                  <i> Default: 288
 312:../Startup/system_XMC4300.c **** //                  <i> Only valid for USB PLL and PLL clocks
 313:../Startup/system_XMC4300.c **** //             <o9.0> External Clock Pin Selection
 314:../Startup/system_XMC4300.c **** //                  <0=> Disabled
 315:../Startup/system_XMC4300.c **** //                  <1=> P0.8
 316:../Startup/system_XMC4300.c **** //                  <2=> P1.15
 317:../Startup/system_XMC4300.c **** //                  <i> Default: Disabled
 318:../Startup/system_XMC4300.c **** //        </h>
 319:../Startup/system_XMC4300.c **** //    </h>
 320:../Startup/system_XMC4300.c **** */
 321:../Startup/system_XMC4300.c **** #define __CLKSET    (0x00000000UL)
 322:../Startup/system_XMC4300.c **** #define __SYSCLKCR  (0x00010001UL)
 323:../Startup/system_XMC4300.c **** #define __CPUCLKCR  (0x00000000UL)
 324:../Startup/system_XMC4300.c **** #define __PBCLKCR   (0x00000000UL)
 325:../Startup/system_XMC4300.c **** #define __CCUCLKCR  (0x00000000UL)
 326:../Startup/system_XMC4300.c **** #define __WDTCLKCR  (0x00000000UL)
 327:../Startup/system_XMC4300.c **** #define __USBCLKCR  (0x00010005UL)
 328:../Startup/system_XMC4300.c **** #define __ECATCLKCR (0x00000001UL)
 329:../Startup/system_XMC4300.c **** #define __EXTCLKCR  (0x01200003UL)
 330:../Startup/system_XMC4300.c **** #define __EXTCLKPIN (0U)
 331:../Startup/system_XMC4300.c **** 
 332:../Startup/system_XMC4300.c **** /*
 333:../Startup/system_XMC4300.c **** // </h>
 334:../Startup/system_XMC4300.c **** */
 335:../Startup/system_XMC4300.c **** 
 336:../Startup/system_XMC4300.c **** /*
 337:../Startup/system_XMC4300.c **** //-------- <<< end of configuration section >>> ------------------
 338:../Startup/system_XMC4300.c **** */
 339:../Startup/system_XMC4300.c **** 
 340:../Startup/system_XMC4300.c **** #define ENABLE_PLL \
 341:../Startup/system_XMC4300.c ****     (((__SYSCLKCR & SCU_CLK_SYSCLKCR_SYSSEL_Msk) == SCU_CLK_SYSCLKCR_SYSSEL_PLL) || \
 342:../Startup/system_XMC4300.c ****      ((__ECATCLKCR & SCU_CLK_ECATCLKCR_ECATSEL_Msk) == SCU_CLK_ECATCLKCR_ECATSEL_PLL) || \
 343:../Startup/system_XMC4300.c ****      (((__CLKSET & SCU_CLK_CLKSET_USBCEN_Msk) != 0) && ((__USBCLKCR & SCU_CLK_USBCLKCR_USBSEL_Msk) 
 344:../Startup/system_XMC4300.c ****      (((__CLKSET & SCU_CLK_CLKSET_WDTCEN_Msk) != 0) && ((__WDTCLKCR & SCU_CLK_WDTCLKCR_WDTSEL_Msk) 
 345:../Startup/system_XMC4300.c **** 
 346:../Startup/system_XMC4300.c **** #define ENABLE_USBPLL \
 347:../Startup/system_XMC4300.c ****     (((__ECATCLKCR & SCU_CLK_ECATCLKCR_ECATSEL_Msk) == SCU_CLK_ECATCLKCR_ECATSEL_USBPLL) || \
 348:../Startup/system_XMC4300.c ****      (((__CLKSET & SCU_CLK_CLKSET_USBCEN_Msk) != 0) && ((__USBCLKCR & SCU_CLK_USBCLKCR_USBSEL_Msk) 
 349:../Startup/system_XMC4300.c ****      (((__CLKSET & SCU_CLK_CLKSET_MMCCEN_Msk) != 0) && ((__USBCLKCR & SCU_CLK_USBCLKCR_USBSEL_Msk) 
 350:../Startup/system_XMC4300.c **** 
 351:../Startup/system_XMC4300.c **** /*******************************************************************************
 352:../Startup/system_XMC4300.c ****  * GLOBAL VARIABLES
 353:../Startup/system_XMC4300.c ****  *******************************************************************************/
 354:../Startup/system_XMC4300.c **** #if defined ( __CC_ARM )
 355:../Startup/system_XMC4300.c **** uint32_t SystemCoreClock __attribute__((at(0x2000FFC0)));
 356:../Startup/system_XMC4300.c **** uint8_t g_chipid[16] __attribute__((at(0x2000FFC4)));
 357:../Startup/system_XMC4300.c **** #elif defined (__ARMCC_VERSION) && (__ARMCC_VERSION >= 6010050)
 358:../Startup/system_XMC4300.c **** uint32_t SystemCoreClock __attribute__((section(".bss.ARM.__at_0x2000FFC0")));
 359:../Startup/system_XMC4300.c **** uint8_t g_chipid[16] __attribute__((section(".bss.ARM.__at_0x2000FFC4")));
 360:../Startup/system_XMC4300.c **** #elif defined ( __ICCARM__ )
 361:../Startup/system_XMC4300.c **** __no_init uint32_t SystemCoreClock;
 362:../Startup/system_XMC4300.c **** __no_init uint8_t g_chipid[16];
 363:../Startup/system_XMC4300.c **** #elif defined ( __GNUC__ )
 364:../Startup/system_XMC4300.c **** uint32_t SystemCoreClock __attribute__((section(".no_init")));
 365:../Startup/system_XMC4300.c **** uint8_t g_chipid[16] __attribute__((section(".no_init")));
 366:../Startup/system_XMC4300.c **** #elif defined ( __TASKING__ )
 367:../Startup/system_XMC4300.c **** uint32_t SystemCoreClock __at( 0x2000FFC0 );
 368:../Startup/system_XMC4300.c **** uint8_t g_chipid[16] __at( 0x2000FFC4 );
 369:../Startup/system_XMC4300.c **** #else
 370:../Startup/system_XMC4300.c **** #error "system_XMC4300.c: compiler not supported" 
 371:../Startup/system_XMC4300.c **** #endif    
 372:../Startup/system_XMC4300.c **** 
 373:../Startup/system_XMC4300.c **** extern uint32_t __Vectors;
 374:../Startup/system_XMC4300.c **** 
 375:../Startup/system_XMC4300.c **** /*******************************************************************************
 376:../Startup/system_XMC4300.c ****  * LOCAL FUNCTIONS
 377:../Startup/system_XMC4300.c ****  *******************************************************************************/
 378:../Startup/system_XMC4300.c **** static void delay(uint32_t cycles)
 379:../Startup/system_XMC4300.c **** {
  40              	 .loc 1 379 0
  41              	 .cfi_startproc
  42              	 
  43              	 
  44              	 
  45 0000 80B4     	 push {r7}
  46              	.LCFI0:
  47              	 .cfi_def_cfa_offset 4
  48              	 .cfi_offset 7,-4
  49 0002 85B0     	 sub sp,sp,#20
  50              	.LCFI1:
  51              	 .cfi_def_cfa_offset 24
  52 0004 00AF     	 add r7,sp,#0
  53              	.LCFI2:
  54              	 .cfi_def_cfa_register 7
  55 0006 7860     	 str r0,[r7,#4]
 380:../Startup/system_XMC4300.c ****   volatile uint32_t i;
 381:../Startup/system_XMC4300.c **** 
 382:../Startup/system_XMC4300.c ****   for(i = 0UL; i < cycles ;++i)
  56              	 .loc 1 382 0
  57 0008 0023     	 movs r3,#0
  58 000a FB60     	 str r3,[r7,#12]
  59 000c 03E0     	 b .L2
  60              	.L3:
 383:../Startup/system_XMC4300.c ****   {
 384:../Startup/system_XMC4300.c ****     __NOP();
  61              	 .loc 1 384 0 discriminator 3
  62              	
  63 000e 00BF     	 nop
  64              	
 382:../Startup/system_XMC4300.c ****   {
  65              	 .loc 1 382 0 discriminator 3
  66              	 .thumb
  67 0010 FB68     	 ldr r3,[r7,#12]
  68 0012 0133     	 adds r3,r3,#1
  69 0014 FB60     	 str r3,[r7,#12]
  70              	.L2:
 382:../Startup/system_XMC4300.c ****   {
  71              	 .loc 1 382 0 is_stmt 0 discriminator 1
  72 0016 FA68     	 ldr r2,[r7,#12]
  73 0018 7B68     	 ldr r3,[r7,#4]
  74 001a 9A42     	 cmp r2,r3
  75 001c F7D3     	 bcc .L3
 385:../Startup/system_XMC4300.c ****   }
 386:../Startup/system_XMC4300.c **** }
  76              	 .loc 1 386 0 is_stmt 1
  77 001e 1437     	 adds r7,r7,#20
  78              	.LCFI3:
  79              	 .cfi_def_cfa_offset 4
  80 0020 BD46     	 mov sp,r7
  81              	.LCFI4:
  82              	 .cfi_def_cfa_register 13
  83              	 
  84 0022 5DF8047B 	 ldr r7,[sp],#4
  85              	.LCFI5:
  86              	 .cfi_restore 7
  87              	 .cfi_def_cfa_offset 0
  88 0026 7047     	 bx lr
  89              	 .cfi_endproc
  90              	.LFE133:
  92              	 .section .text.SystemInit,"ax",%progbits
  93              	 .align 2
  94              	 .weak SystemInit
  95              	 .thumb
  96              	 .thumb_func
  98              	SystemInit:
  99              	.LFB134:
 387:../Startup/system_XMC4300.c **** 
 388:../Startup/system_XMC4300.c **** /*******************************************************************************
 389:../Startup/system_XMC4300.c ****  * API IMPLEMENTATION
 390:../Startup/system_XMC4300.c ****  *******************************************************************************/
 391:../Startup/system_XMC4300.c **** 
 392:../Startup/system_XMC4300.c **** __WEAK void SystemInit(void)
 393:../Startup/system_XMC4300.c **** {
 100              	 .loc 1 393 0
 101              	 .cfi_startproc
 102              	 
 103              	 
 104 0000 98B5     	 push {r3,r4,r7,lr}
 105              	.LCFI6:
 106              	 .cfi_def_cfa_offset 16
 107              	 .cfi_offset 3,-16
 108              	 .cfi_offset 4,-12
 109              	 .cfi_offset 7,-8
 110              	 .cfi_offset 14,-4
 111 0002 00AF     	 add r7,sp,#0
 112              	.LCFI7:
 113              	 .cfi_def_cfa_register 7
 394:../Startup/system_XMC4300.c ****   memcpy(g_chipid, CHIPID_LOC, 16);
 114              	 .loc 1 394 0
 115 0004 054A     	 ldr r2,.L5
 116 0006 4FF00053 	 mov r3,#536870912
 117 000a 1446     	 mov r4,r2
 118 000c 0FCB     	 ldmia r3,{r0,r1,r2,r3}
 119 000e 84E80F00 	 stmia r4,{r0,r1,r2,r3}
 395:../Startup/system_XMC4300.c **** 
 396:../Startup/system_XMC4300.c ****   SystemCoreSetup();
 120              	 .loc 1 396 0
 121 0012 FFF7FEFF 	 bl SystemCoreSetup
 397:../Startup/system_XMC4300.c ****   SystemCoreClockSetup();
 122              	 .loc 1 397 0
 123 0016 FFF7FEFF 	 bl SystemCoreClockSetup
 398:../Startup/system_XMC4300.c **** }
 124              	 .loc 1 398 0
 125 001a 98BD     	 pop {r3,r4,r7,pc}
 126              	.L6:
 127              	 .align 2
 128              	.L5:
 129 001c 00000000 	 .word g_chipid
 130              	 .cfi_endproc
 131              	.LFE134:
 133              	 .section .text.SystemCoreSetup,"ax",%progbits
 134              	 .align 2
 135              	 .weak SystemCoreSetup
 136              	 .thumb
 137              	 .thumb_func
 139              	SystemCoreSetup:
 140              	.LFB135:
 399:../Startup/system_XMC4300.c **** 
 400:../Startup/system_XMC4300.c **** __WEAK void SystemCoreSetup(void)
 401:../Startup/system_XMC4300.c **** {
 141              	 .loc 1 401 0
 142              	 .cfi_startproc
 143              	 
 144              	 
 145              	 
 146 0000 80B4     	 push {r7}
 147              	.LCFI8:
 148              	 .cfi_def_cfa_offset 4
 149              	 .cfi_offset 7,-4
 150 0002 83B0     	 sub sp,sp,#12
 151              	.LCFI9:
 152              	 .cfi_def_cfa_offset 16
 153 0004 00AF     	 add r7,sp,#0
 154              	.LCFI10:
 155              	 .cfi_def_cfa_register 7
 156              	.LBB8:
 157              	.LBB9:
 158              	 .file 2 "D:/Infineon/Tools/DAVE IDE/4.5.0.202105191637/eclipse/workspace/LED_test/Libraries/CMSIS/Include/cmsis_gcc.h"
   1:D:/Infineon/Tools/DAVE IDE/4.5.0.202105191637/eclipse/workspace/LED_test/Libraries/CMSIS/Include\cmsis_gcc.h **** /**************************************************************************//**
   2:D:/Infineon/Tools/DAVE IDE/4.5.0.202105191637/eclipse/workspace/LED_test/Libraries/CMSIS/Include\cmsis_gcc.h ****  * @file     cmsis_gcc.h
   3:D:/Infineon/Tools/DAVE IDE/4.5.0.202105191637/eclipse/workspace/LED_test/Libraries/CMSIS/Include\cmsis_gcc.h ****  * @brief    CMSIS compiler GCC header file
   4:D:/Infineon/Tools/DAVE IDE/4.5.0.202105191637/eclipse/workspace/LED_test/Libraries/CMSIS/Include\cmsis_gcc.h ****  * @version  V5.3.0
   5:D:/Infineon/Tools/DAVE IDE/4.5.0.202105191637/eclipse/workspace/LED_test/Libraries/CMSIS/Include\cmsis_gcc.h ****  * @date     26. March 2020
   6:D:/Infineon/Tools/DAVE IDE/4.5.0.202105191637/eclipse/workspace/LED_test/Libraries/CMSIS/Include\cmsis_gcc.h ****  ******************************************************************************/
   7:D:/Infineon/Tools/DAVE IDE/4.5.0.202105191637/eclipse/workspace/LED_test/Libraries/CMSIS/Include\cmsis_gcc.h **** /*
   8:D:/Infineon/Tools/DAVE IDE/4.5.0.202105191637/eclipse/workspace/LED_test/Libraries/CMSIS/Include\cmsis_gcc.h ****  * Copyright (c) 2009-2020 Arm Limited. All rights reserved.
   9:D:/Infineon/Tools/DAVE IDE/4.5.0.202105191637/eclipse/workspace/LED_test/Libraries/CMSIS/Include\cmsis_gcc.h ****  *
  10:D:/Infineon/Tools/DAVE IDE/4.5.0.202105191637/eclipse/workspace/LED_test/Libraries/CMSIS/Include\cmsis_gcc.h ****  * SPDX-License-Identifier: Apache-2.0
  11:D:/Infineon/Tools/DAVE IDE/4.5.0.202105191637/eclipse/workspace/LED_test/Libraries/CMSIS/Include\cmsis_gcc.h ****  *
  12:D:/Infineon/Tools/DAVE IDE/4.5.0.202105191637/eclipse/workspace/LED_test/Libraries/CMSIS/Include\cmsis_gcc.h ****  * Licensed under the Apache License, Version 2.0 (the License); you may
  13:D:/Infineon/Tools/DAVE IDE/4.5.0.202105191637/eclipse/workspace/LED_test/Libraries/CMSIS/Include\cmsis_gcc.h ****  * not use this file except in compliance with the License.
  14:D:/Infineon/Tools/DAVE IDE/4.5.0.202105191637/eclipse/workspace/LED_test/Libraries/CMSIS/Include\cmsis_gcc.h ****  * You may obtain a copy of the License at
  15:D:/Infineon/Tools/DAVE IDE/4.5.0.202105191637/eclipse/workspace/LED_test/Libraries/CMSIS/Include\cmsis_gcc.h ****  *
  16:D:/Infineon/Tools/DAVE IDE/4.5.0.202105191637/eclipse/workspace/LED_test/Libraries/CMSIS/Include\cmsis_gcc.h ****  * www.apache.org/licenses/LICENSE-2.0
  17:D:/Infineon/Tools/DAVE IDE/4.5.0.202105191637/eclipse/workspace/LED_test/Libraries/CMSIS/Include\cmsis_gcc.h ****  *
  18:D:/Infineon/Tools/DAVE IDE/4.5.0.202105191637/eclipse/workspace/LED_test/Libraries/CMSIS/Include\cmsis_gcc.h ****  * Unless required by applicable law or agreed to in writing, software
  19:D:/Infineon/Tools/DAVE IDE/4.5.0.202105191637/eclipse/workspace/LED_test/Libraries/CMSIS/Include\cmsis_gcc.h ****  * distributed under the License is distributed on an AS IS BASIS, WITHOUT
  20:D:/Infineon/Tools/DAVE IDE/4.5.0.202105191637/eclipse/workspace/LED_test/Libraries/CMSIS/Include\cmsis_gcc.h ****  * WARRANTIES OR CONDITIONS OF ANY KIND, either express or implied.
  21:D:/Infineon/Tools/DAVE IDE/4.5.0.202105191637/eclipse/workspace/LED_test/Libraries/CMSIS/Include\cmsis_gcc.h ****  * See the License for the specific language governing permissions and
  22:D:/Infineon/Tools/DAVE IDE/4.5.0.202105191637/eclipse/workspace/LED_test/Libraries/CMSIS/Include\cmsis_gcc.h ****  * limitations under the License.
  23:D:/Infineon/Tools/DAVE IDE/4.5.0.202105191637/eclipse/workspace/LED_test/Libraries/CMSIS/Include\cmsis_gcc.h ****  */
  24:D:/Infineon/Tools/DAVE IDE/4.5.0.202105191637/eclipse/workspace/LED_test/Libraries/CMSIS/Include\cmsis_gcc.h **** 
  25:D:/Infineon/Tools/DAVE IDE/4.5.0.202105191637/eclipse/workspace/LED_test/Libraries/CMSIS/Include\cmsis_gcc.h **** #ifndef __CMSIS_GCC_H
  26:D:/Infineon/Tools/DAVE IDE/4.5.0.202105191637/eclipse/workspace/LED_test/Libraries/CMSIS/Include\cmsis_gcc.h **** #define __CMSIS_GCC_H
  27:D:/Infineon/Tools/DAVE IDE/4.5.0.202105191637/eclipse/workspace/LED_test/Libraries/CMSIS/Include\cmsis_gcc.h **** 
  28:D:/Infineon/Tools/DAVE IDE/4.5.0.202105191637/eclipse/workspace/LED_test/Libraries/CMSIS/Include\cmsis_gcc.h **** /* ignore some GCC warnings */
  29:D:/Infineon/Tools/DAVE IDE/4.5.0.202105191637/eclipse/workspace/LED_test/Libraries/CMSIS/Include\cmsis_gcc.h **** #pragma GCC diagnostic push
  30:D:/Infineon/Tools/DAVE IDE/4.5.0.202105191637/eclipse/workspace/LED_test/Libraries/CMSIS/Include\cmsis_gcc.h **** #pragma GCC diagnostic ignored "-Wsign-conversion"
  31:D:/Infineon/Tools/DAVE IDE/4.5.0.202105191637/eclipse/workspace/LED_test/Libraries/CMSIS/Include\cmsis_gcc.h **** #pragma GCC diagnostic ignored "-Wconversion"
  32:D:/Infineon/Tools/DAVE IDE/4.5.0.202105191637/eclipse/workspace/LED_test/Libraries/CMSIS/Include\cmsis_gcc.h **** #pragma GCC diagnostic ignored "-Wunused-parameter"
  33:D:/Infineon/Tools/DAVE IDE/4.5.0.202105191637/eclipse/workspace/LED_test/Libraries/CMSIS/Include\cmsis_gcc.h **** 
  34:D:/Infineon/Tools/DAVE IDE/4.5.0.202105191637/eclipse/workspace/LED_test/Libraries/CMSIS/Include\cmsis_gcc.h **** /* Fallback for __has_builtin */
  35:D:/Infineon/Tools/DAVE IDE/4.5.0.202105191637/eclipse/workspace/LED_test/Libraries/CMSIS/Include\cmsis_gcc.h **** #ifndef __has_builtin
  36:D:/Infineon/Tools/DAVE IDE/4.5.0.202105191637/eclipse/workspace/LED_test/Libraries/CMSIS/Include\cmsis_gcc.h ****   #define __has_builtin(x) (0)
  37:D:/Infineon/Tools/DAVE IDE/4.5.0.202105191637/eclipse/workspace/LED_test/Libraries/CMSIS/Include\cmsis_gcc.h **** #endif
  38:D:/Infineon/Tools/DAVE IDE/4.5.0.202105191637/eclipse/workspace/LED_test/Libraries/CMSIS/Include\cmsis_gcc.h **** 
  39:D:/Infineon/Tools/DAVE IDE/4.5.0.202105191637/eclipse/workspace/LED_test/Libraries/CMSIS/Include\cmsis_gcc.h **** /* CMSIS compiler specific defines */
  40:D:/Infineon/Tools/DAVE IDE/4.5.0.202105191637/eclipse/workspace/LED_test/Libraries/CMSIS/Include\cmsis_gcc.h **** #ifndef   __ASM
  41:D:/Infineon/Tools/DAVE IDE/4.5.0.202105191637/eclipse/workspace/LED_test/Libraries/CMSIS/Include\cmsis_gcc.h ****   #define __ASM                                  __asm
  42:D:/Infineon/Tools/DAVE IDE/4.5.0.202105191637/eclipse/workspace/LED_test/Libraries/CMSIS/Include\cmsis_gcc.h **** #endif
  43:D:/Infineon/Tools/DAVE IDE/4.5.0.202105191637/eclipse/workspace/LED_test/Libraries/CMSIS/Include\cmsis_gcc.h **** #ifndef   __INLINE
  44:D:/Infineon/Tools/DAVE IDE/4.5.0.202105191637/eclipse/workspace/LED_test/Libraries/CMSIS/Include\cmsis_gcc.h ****   #define __INLINE                               inline
  45:D:/Infineon/Tools/DAVE IDE/4.5.0.202105191637/eclipse/workspace/LED_test/Libraries/CMSIS/Include\cmsis_gcc.h **** #endif
  46:D:/Infineon/Tools/DAVE IDE/4.5.0.202105191637/eclipse/workspace/LED_test/Libraries/CMSIS/Include\cmsis_gcc.h **** #ifndef   __STATIC_INLINE
  47:D:/Infineon/Tools/DAVE IDE/4.5.0.202105191637/eclipse/workspace/LED_test/Libraries/CMSIS/Include\cmsis_gcc.h ****   #define __STATIC_INLINE                        static inline
  48:D:/Infineon/Tools/DAVE IDE/4.5.0.202105191637/eclipse/workspace/LED_test/Libraries/CMSIS/Include\cmsis_gcc.h **** #endif
  49:D:/Infineon/Tools/DAVE IDE/4.5.0.202105191637/eclipse/workspace/LED_test/Libraries/CMSIS/Include\cmsis_gcc.h **** #ifndef   __STATIC_FORCEINLINE                 
  50:D:/Infineon/Tools/DAVE IDE/4.5.0.202105191637/eclipse/workspace/LED_test/Libraries/CMSIS/Include\cmsis_gcc.h ****   #define __STATIC_FORCEINLINE                   __attribute__((always_inline)) static inline
  51:D:/Infineon/Tools/DAVE IDE/4.5.0.202105191637/eclipse/workspace/LED_test/Libraries/CMSIS/Include\cmsis_gcc.h **** #endif                                           
  52:D:/Infineon/Tools/DAVE IDE/4.5.0.202105191637/eclipse/workspace/LED_test/Libraries/CMSIS/Include\cmsis_gcc.h **** #ifndef   __NO_RETURN
  53:D:/Infineon/Tools/DAVE IDE/4.5.0.202105191637/eclipse/workspace/LED_test/Libraries/CMSIS/Include\cmsis_gcc.h ****   #define __NO_RETURN                            __attribute__((__noreturn__))
  54:D:/Infineon/Tools/DAVE IDE/4.5.0.202105191637/eclipse/workspace/LED_test/Libraries/CMSIS/Include\cmsis_gcc.h **** #endif
  55:D:/Infineon/Tools/DAVE IDE/4.5.0.202105191637/eclipse/workspace/LED_test/Libraries/CMSIS/Include\cmsis_gcc.h **** #ifndef   __USED
  56:D:/Infineon/Tools/DAVE IDE/4.5.0.202105191637/eclipse/workspace/LED_test/Libraries/CMSIS/Include\cmsis_gcc.h ****   #define __USED                                 __attribute__((used))
  57:D:/Infineon/Tools/DAVE IDE/4.5.0.202105191637/eclipse/workspace/LED_test/Libraries/CMSIS/Include\cmsis_gcc.h **** #endif
  58:D:/Infineon/Tools/DAVE IDE/4.5.0.202105191637/eclipse/workspace/LED_test/Libraries/CMSIS/Include\cmsis_gcc.h **** #ifndef   __WEAK
  59:D:/Infineon/Tools/DAVE IDE/4.5.0.202105191637/eclipse/workspace/LED_test/Libraries/CMSIS/Include\cmsis_gcc.h ****   #define __WEAK                                 __attribute__((weak))
  60:D:/Infineon/Tools/DAVE IDE/4.5.0.202105191637/eclipse/workspace/LED_test/Libraries/CMSIS/Include\cmsis_gcc.h **** #endif
  61:D:/Infineon/Tools/DAVE IDE/4.5.0.202105191637/eclipse/workspace/LED_test/Libraries/CMSIS/Include\cmsis_gcc.h **** #ifndef   __PACKED
  62:D:/Infineon/Tools/DAVE IDE/4.5.0.202105191637/eclipse/workspace/LED_test/Libraries/CMSIS/Include\cmsis_gcc.h ****   #define __PACKED                               __attribute__((packed, aligned(1)))
  63:D:/Infineon/Tools/DAVE IDE/4.5.0.202105191637/eclipse/workspace/LED_test/Libraries/CMSIS/Include\cmsis_gcc.h **** #endif
  64:D:/Infineon/Tools/DAVE IDE/4.5.0.202105191637/eclipse/workspace/LED_test/Libraries/CMSIS/Include\cmsis_gcc.h **** #ifndef   __PACKED_STRUCT
  65:D:/Infineon/Tools/DAVE IDE/4.5.0.202105191637/eclipse/workspace/LED_test/Libraries/CMSIS/Include\cmsis_gcc.h ****   #define __PACKED_STRUCT                        struct __attribute__((packed, aligned(1)))
  66:D:/Infineon/Tools/DAVE IDE/4.5.0.202105191637/eclipse/workspace/LED_test/Libraries/CMSIS/Include\cmsis_gcc.h **** #endif
  67:D:/Infineon/Tools/DAVE IDE/4.5.0.202105191637/eclipse/workspace/LED_test/Libraries/CMSIS/Include\cmsis_gcc.h **** #ifndef   __PACKED_UNION
  68:D:/Infineon/Tools/DAVE IDE/4.5.0.202105191637/eclipse/workspace/LED_test/Libraries/CMSIS/Include\cmsis_gcc.h ****   #define __PACKED_UNION                         union __attribute__((packed, aligned(1)))
  69:D:/Infineon/Tools/DAVE IDE/4.5.0.202105191637/eclipse/workspace/LED_test/Libraries/CMSIS/Include\cmsis_gcc.h **** #endif
  70:D:/Infineon/Tools/DAVE IDE/4.5.0.202105191637/eclipse/workspace/LED_test/Libraries/CMSIS/Include\cmsis_gcc.h **** #ifndef   __UNALIGNED_UINT32        /* deprecated */
  71:D:/Infineon/Tools/DAVE IDE/4.5.0.202105191637/eclipse/workspace/LED_test/Libraries/CMSIS/Include\cmsis_gcc.h ****   #pragma GCC diagnostic push
  72:D:/Infineon/Tools/DAVE IDE/4.5.0.202105191637/eclipse/workspace/LED_test/Libraries/CMSIS/Include\cmsis_gcc.h ****   #pragma GCC diagnostic ignored "-Wpacked"
  73:D:/Infineon/Tools/DAVE IDE/4.5.0.202105191637/eclipse/workspace/LED_test/Libraries/CMSIS/Include\cmsis_gcc.h ****   #pragma GCC diagnostic ignored "-Wattributes"
  74:D:/Infineon/Tools/DAVE IDE/4.5.0.202105191637/eclipse/workspace/LED_test/Libraries/CMSIS/Include\cmsis_gcc.h ****   struct __attribute__((packed)) T_UINT32 { uint32_t v; };
  75:D:/Infineon/Tools/DAVE IDE/4.5.0.202105191637/eclipse/workspace/LED_test/Libraries/CMSIS/Include\cmsis_gcc.h ****   #pragma GCC diagnostic pop
  76:D:/Infineon/Tools/DAVE IDE/4.5.0.202105191637/eclipse/workspace/LED_test/Libraries/CMSIS/Include\cmsis_gcc.h ****   #define __UNALIGNED_UINT32(x)                  (((struct T_UINT32 *)(x))->v)
  77:D:/Infineon/Tools/DAVE IDE/4.5.0.202105191637/eclipse/workspace/LED_test/Libraries/CMSIS/Include\cmsis_gcc.h **** #endif
  78:D:/Infineon/Tools/DAVE IDE/4.5.0.202105191637/eclipse/workspace/LED_test/Libraries/CMSIS/Include\cmsis_gcc.h **** #ifndef   __UNALIGNED_UINT16_WRITE
  79:D:/Infineon/Tools/DAVE IDE/4.5.0.202105191637/eclipse/workspace/LED_test/Libraries/CMSIS/Include\cmsis_gcc.h ****   #pragma GCC diagnostic push
  80:D:/Infineon/Tools/DAVE IDE/4.5.0.202105191637/eclipse/workspace/LED_test/Libraries/CMSIS/Include\cmsis_gcc.h ****   #pragma GCC diagnostic ignored "-Wpacked"
  81:D:/Infineon/Tools/DAVE IDE/4.5.0.202105191637/eclipse/workspace/LED_test/Libraries/CMSIS/Include\cmsis_gcc.h ****   #pragma GCC diagnostic ignored "-Wattributes"
  82:D:/Infineon/Tools/DAVE IDE/4.5.0.202105191637/eclipse/workspace/LED_test/Libraries/CMSIS/Include\cmsis_gcc.h ****   __PACKED_STRUCT T_UINT16_WRITE { uint16_t v; };
  83:D:/Infineon/Tools/DAVE IDE/4.5.0.202105191637/eclipse/workspace/LED_test/Libraries/CMSIS/Include\cmsis_gcc.h ****   #pragma GCC diagnostic pop
  84:D:/Infineon/Tools/DAVE IDE/4.5.0.202105191637/eclipse/workspace/LED_test/Libraries/CMSIS/Include\cmsis_gcc.h ****   #define __UNALIGNED_UINT16_WRITE(addr, val)    (void)((((struct T_UINT16_WRITE *)(void *)(addr))-
  85:D:/Infineon/Tools/DAVE IDE/4.5.0.202105191637/eclipse/workspace/LED_test/Libraries/CMSIS/Include\cmsis_gcc.h **** #endif
  86:D:/Infineon/Tools/DAVE IDE/4.5.0.202105191637/eclipse/workspace/LED_test/Libraries/CMSIS/Include\cmsis_gcc.h **** #ifndef   __UNALIGNED_UINT16_READ
  87:D:/Infineon/Tools/DAVE IDE/4.5.0.202105191637/eclipse/workspace/LED_test/Libraries/CMSIS/Include\cmsis_gcc.h ****   #pragma GCC diagnostic push
  88:D:/Infineon/Tools/DAVE IDE/4.5.0.202105191637/eclipse/workspace/LED_test/Libraries/CMSIS/Include\cmsis_gcc.h ****   #pragma GCC diagnostic ignored "-Wpacked"
  89:D:/Infineon/Tools/DAVE IDE/4.5.0.202105191637/eclipse/workspace/LED_test/Libraries/CMSIS/Include\cmsis_gcc.h ****   #pragma GCC diagnostic ignored "-Wattributes"
  90:D:/Infineon/Tools/DAVE IDE/4.5.0.202105191637/eclipse/workspace/LED_test/Libraries/CMSIS/Include\cmsis_gcc.h ****   __PACKED_STRUCT T_UINT16_READ { uint16_t v; };
  91:D:/Infineon/Tools/DAVE IDE/4.5.0.202105191637/eclipse/workspace/LED_test/Libraries/CMSIS/Include\cmsis_gcc.h ****   #pragma GCC diagnostic pop
  92:D:/Infineon/Tools/DAVE IDE/4.5.0.202105191637/eclipse/workspace/LED_test/Libraries/CMSIS/Include\cmsis_gcc.h ****   #define __UNALIGNED_UINT16_READ(addr)          (((const struct T_UINT16_READ *)(const void *)(add
  93:D:/Infineon/Tools/DAVE IDE/4.5.0.202105191637/eclipse/workspace/LED_test/Libraries/CMSIS/Include\cmsis_gcc.h **** #endif
  94:D:/Infineon/Tools/DAVE IDE/4.5.0.202105191637/eclipse/workspace/LED_test/Libraries/CMSIS/Include\cmsis_gcc.h **** #ifndef   __UNALIGNED_UINT32_WRITE
  95:D:/Infineon/Tools/DAVE IDE/4.5.0.202105191637/eclipse/workspace/LED_test/Libraries/CMSIS/Include\cmsis_gcc.h ****   #pragma GCC diagnostic push
  96:D:/Infineon/Tools/DAVE IDE/4.5.0.202105191637/eclipse/workspace/LED_test/Libraries/CMSIS/Include\cmsis_gcc.h ****   #pragma GCC diagnostic ignored "-Wpacked"
  97:D:/Infineon/Tools/DAVE IDE/4.5.0.202105191637/eclipse/workspace/LED_test/Libraries/CMSIS/Include\cmsis_gcc.h ****   #pragma GCC diagnostic ignored "-Wattributes"
  98:D:/Infineon/Tools/DAVE IDE/4.5.0.202105191637/eclipse/workspace/LED_test/Libraries/CMSIS/Include\cmsis_gcc.h ****   __PACKED_STRUCT T_UINT32_WRITE { uint32_t v; };
  99:D:/Infineon/Tools/DAVE IDE/4.5.0.202105191637/eclipse/workspace/LED_test/Libraries/CMSIS/Include\cmsis_gcc.h ****   #pragma GCC diagnostic pop
 100:D:/Infineon/Tools/DAVE IDE/4.5.0.202105191637/eclipse/workspace/LED_test/Libraries/CMSIS/Include\cmsis_gcc.h ****   #define __UNALIGNED_UINT32_WRITE(addr, val)    (void)((((struct T_UINT32_WRITE *)(void *)(addr))-
 101:D:/Infineon/Tools/DAVE IDE/4.5.0.202105191637/eclipse/workspace/LED_test/Libraries/CMSIS/Include\cmsis_gcc.h **** #endif
 102:D:/Infineon/Tools/DAVE IDE/4.5.0.202105191637/eclipse/workspace/LED_test/Libraries/CMSIS/Include\cmsis_gcc.h **** #ifndef   __UNALIGNED_UINT32_READ
 103:D:/Infineon/Tools/DAVE IDE/4.5.0.202105191637/eclipse/workspace/LED_test/Libraries/CMSIS/Include\cmsis_gcc.h ****   #pragma GCC diagnostic push
 104:D:/Infineon/Tools/DAVE IDE/4.5.0.202105191637/eclipse/workspace/LED_test/Libraries/CMSIS/Include\cmsis_gcc.h ****   #pragma GCC diagnostic ignored "-Wpacked"
 105:D:/Infineon/Tools/DAVE IDE/4.5.0.202105191637/eclipse/workspace/LED_test/Libraries/CMSIS/Include\cmsis_gcc.h ****   #pragma GCC diagnostic ignored "-Wattributes"
 106:D:/Infineon/Tools/DAVE IDE/4.5.0.202105191637/eclipse/workspace/LED_test/Libraries/CMSIS/Include\cmsis_gcc.h ****   __PACKED_STRUCT T_UINT32_READ { uint32_t v; };
 107:D:/Infineon/Tools/DAVE IDE/4.5.0.202105191637/eclipse/workspace/LED_test/Libraries/CMSIS/Include\cmsis_gcc.h ****   #pragma GCC diagnostic pop
 108:D:/Infineon/Tools/DAVE IDE/4.5.0.202105191637/eclipse/workspace/LED_test/Libraries/CMSIS/Include\cmsis_gcc.h ****   #define __UNALIGNED_UINT32_READ(addr)          (((const struct T_UINT32_READ *)(const void *)(add
 109:D:/Infineon/Tools/DAVE IDE/4.5.0.202105191637/eclipse/workspace/LED_test/Libraries/CMSIS/Include\cmsis_gcc.h **** #endif
 110:D:/Infineon/Tools/DAVE IDE/4.5.0.202105191637/eclipse/workspace/LED_test/Libraries/CMSIS/Include\cmsis_gcc.h **** #ifndef   __ALIGNED
 111:D:/Infineon/Tools/DAVE IDE/4.5.0.202105191637/eclipse/workspace/LED_test/Libraries/CMSIS/Include\cmsis_gcc.h ****   #define __ALIGNED(x)                           __attribute__((aligned(x)))
 112:D:/Infineon/Tools/DAVE IDE/4.5.0.202105191637/eclipse/workspace/LED_test/Libraries/CMSIS/Include\cmsis_gcc.h **** #endif
 113:D:/Infineon/Tools/DAVE IDE/4.5.0.202105191637/eclipse/workspace/LED_test/Libraries/CMSIS/Include\cmsis_gcc.h **** #ifndef   __RESTRICT
 114:D:/Infineon/Tools/DAVE IDE/4.5.0.202105191637/eclipse/workspace/LED_test/Libraries/CMSIS/Include\cmsis_gcc.h ****   #define __RESTRICT                             __restrict
 115:D:/Infineon/Tools/DAVE IDE/4.5.0.202105191637/eclipse/workspace/LED_test/Libraries/CMSIS/Include\cmsis_gcc.h **** #endif
 116:D:/Infineon/Tools/DAVE IDE/4.5.0.202105191637/eclipse/workspace/LED_test/Libraries/CMSIS/Include\cmsis_gcc.h **** #ifndef   __COMPILER_BARRIER
 117:D:/Infineon/Tools/DAVE IDE/4.5.0.202105191637/eclipse/workspace/LED_test/Libraries/CMSIS/Include\cmsis_gcc.h ****   #define __COMPILER_BARRIER()                   __ASM volatile("":::"memory")
 118:D:/Infineon/Tools/DAVE IDE/4.5.0.202105191637/eclipse/workspace/LED_test/Libraries/CMSIS/Include\cmsis_gcc.h **** #endif
 119:D:/Infineon/Tools/DAVE IDE/4.5.0.202105191637/eclipse/workspace/LED_test/Libraries/CMSIS/Include\cmsis_gcc.h **** 
 120:D:/Infineon/Tools/DAVE IDE/4.5.0.202105191637/eclipse/workspace/LED_test/Libraries/CMSIS/Include\cmsis_gcc.h **** /* #########################  Startup and Lowlevel Init  ######################## */
 121:D:/Infineon/Tools/DAVE IDE/4.5.0.202105191637/eclipse/workspace/LED_test/Libraries/CMSIS/Include\cmsis_gcc.h **** 
 122:D:/Infineon/Tools/DAVE IDE/4.5.0.202105191637/eclipse/workspace/LED_test/Libraries/CMSIS/Include\cmsis_gcc.h **** #ifndef __PROGRAM_START
 123:D:/Infineon/Tools/DAVE IDE/4.5.0.202105191637/eclipse/workspace/LED_test/Libraries/CMSIS/Include\cmsis_gcc.h **** 
 124:D:/Infineon/Tools/DAVE IDE/4.5.0.202105191637/eclipse/workspace/LED_test/Libraries/CMSIS/Include\cmsis_gcc.h **** /**
 125:D:/Infineon/Tools/DAVE IDE/4.5.0.202105191637/eclipse/workspace/LED_test/Libraries/CMSIS/Include\cmsis_gcc.h ****   \brief   Initializes data and bss sections
 126:D:/Infineon/Tools/DAVE IDE/4.5.0.202105191637/eclipse/workspace/LED_test/Libraries/CMSIS/Include\cmsis_gcc.h ****   \details This default implementations initialized all data and additional bss
 127:D:/Infineon/Tools/DAVE IDE/4.5.0.202105191637/eclipse/workspace/LED_test/Libraries/CMSIS/Include\cmsis_gcc.h ****            sections relying on .copy.table and .zero.table specified properly
 128:D:/Infineon/Tools/DAVE IDE/4.5.0.202105191637/eclipse/workspace/LED_test/Libraries/CMSIS/Include\cmsis_gcc.h ****            in the used linker script.
 129:D:/Infineon/Tools/DAVE IDE/4.5.0.202105191637/eclipse/workspace/LED_test/Libraries/CMSIS/Include\cmsis_gcc.h ****   
 130:D:/Infineon/Tools/DAVE IDE/4.5.0.202105191637/eclipse/workspace/LED_test/Libraries/CMSIS/Include\cmsis_gcc.h ****  */
 131:D:/Infineon/Tools/DAVE IDE/4.5.0.202105191637/eclipse/workspace/LED_test/Libraries/CMSIS/Include\cmsis_gcc.h **** __STATIC_FORCEINLINE __NO_RETURN void __cmsis_start(void)
 132:D:/Infineon/Tools/DAVE IDE/4.5.0.202105191637/eclipse/workspace/LED_test/Libraries/CMSIS/Include\cmsis_gcc.h **** {
 133:D:/Infineon/Tools/DAVE IDE/4.5.0.202105191637/eclipse/workspace/LED_test/Libraries/CMSIS/Include\cmsis_gcc.h ****   extern void _start(void) __NO_RETURN;
 134:D:/Infineon/Tools/DAVE IDE/4.5.0.202105191637/eclipse/workspace/LED_test/Libraries/CMSIS/Include\cmsis_gcc.h ****   
 135:D:/Infineon/Tools/DAVE IDE/4.5.0.202105191637/eclipse/workspace/LED_test/Libraries/CMSIS/Include\cmsis_gcc.h ****   typedef struct {
 136:D:/Infineon/Tools/DAVE IDE/4.5.0.202105191637/eclipse/workspace/LED_test/Libraries/CMSIS/Include\cmsis_gcc.h ****     uint32_t const* src;
 137:D:/Infineon/Tools/DAVE IDE/4.5.0.202105191637/eclipse/workspace/LED_test/Libraries/CMSIS/Include\cmsis_gcc.h ****     uint32_t* dest;
 138:D:/Infineon/Tools/DAVE IDE/4.5.0.202105191637/eclipse/workspace/LED_test/Libraries/CMSIS/Include\cmsis_gcc.h ****     uint32_t  wlen;
 139:D:/Infineon/Tools/DAVE IDE/4.5.0.202105191637/eclipse/workspace/LED_test/Libraries/CMSIS/Include\cmsis_gcc.h ****   } __copy_table_t;
 140:D:/Infineon/Tools/DAVE IDE/4.5.0.202105191637/eclipse/workspace/LED_test/Libraries/CMSIS/Include\cmsis_gcc.h ****   
 141:D:/Infineon/Tools/DAVE IDE/4.5.0.202105191637/eclipse/workspace/LED_test/Libraries/CMSIS/Include\cmsis_gcc.h ****   typedef struct {
 142:D:/Infineon/Tools/DAVE IDE/4.5.0.202105191637/eclipse/workspace/LED_test/Libraries/CMSIS/Include\cmsis_gcc.h ****     uint32_t* dest;
 143:D:/Infineon/Tools/DAVE IDE/4.5.0.202105191637/eclipse/workspace/LED_test/Libraries/CMSIS/Include\cmsis_gcc.h ****     uint32_t  wlen;
 144:D:/Infineon/Tools/DAVE IDE/4.5.0.202105191637/eclipse/workspace/LED_test/Libraries/CMSIS/Include\cmsis_gcc.h ****   } __zero_table_t;
 145:D:/Infineon/Tools/DAVE IDE/4.5.0.202105191637/eclipse/workspace/LED_test/Libraries/CMSIS/Include\cmsis_gcc.h ****   
 146:D:/Infineon/Tools/DAVE IDE/4.5.0.202105191637/eclipse/workspace/LED_test/Libraries/CMSIS/Include\cmsis_gcc.h ****   extern const __copy_table_t __copy_table_start__;
 147:D:/Infineon/Tools/DAVE IDE/4.5.0.202105191637/eclipse/workspace/LED_test/Libraries/CMSIS/Include\cmsis_gcc.h ****   extern const __copy_table_t __copy_table_end__;
 148:D:/Infineon/Tools/DAVE IDE/4.5.0.202105191637/eclipse/workspace/LED_test/Libraries/CMSIS/Include\cmsis_gcc.h ****   extern const __zero_table_t __zero_table_start__;
 149:D:/Infineon/Tools/DAVE IDE/4.5.0.202105191637/eclipse/workspace/LED_test/Libraries/CMSIS/Include\cmsis_gcc.h ****   extern const __zero_table_t __zero_table_end__;
 150:D:/Infineon/Tools/DAVE IDE/4.5.0.202105191637/eclipse/workspace/LED_test/Libraries/CMSIS/Include\cmsis_gcc.h **** 
 151:D:/Infineon/Tools/DAVE IDE/4.5.0.202105191637/eclipse/workspace/LED_test/Libraries/CMSIS/Include\cmsis_gcc.h ****   for (__copy_table_t const* pTable = &__copy_table_start__; pTable < &__copy_table_end__; ++pTable
 152:D:/Infineon/Tools/DAVE IDE/4.5.0.202105191637/eclipse/workspace/LED_test/Libraries/CMSIS/Include\cmsis_gcc.h ****     for(uint32_t i=0u; i<pTable->wlen; ++i) {
 153:D:/Infineon/Tools/DAVE IDE/4.5.0.202105191637/eclipse/workspace/LED_test/Libraries/CMSIS/Include\cmsis_gcc.h ****       pTable->dest[i] = pTable->src[i];
 154:D:/Infineon/Tools/DAVE IDE/4.5.0.202105191637/eclipse/workspace/LED_test/Libraries/CMSIS/Include\cmsis_gcc.h ****     }
 155:D:/Infineon/Tools/DAVE IDE/4.5.0.202105191637/eclipse/workspace/LED_test/Libraries/CMSIS/Include\cmsis_gcc.h ****   }
 156:D:/Infineon/Tools/DAVE IDE/4.5.0.202105191637/eclipse/workspace/LED_test/Libraries/CMSIS/Include\cmsis_gcc.h ****  
 157:D:/Infineon/Tools/DAVE IDE/4.5.0.202105191637/eclipse/workspace/LED_test/Libraries/CMSIS/Include\cmsis_gcc.h ****   for (__zero_table_t const* pTable = &__zero_table_start__; pTable < &__zero_table_end__; ++pTable
 158:D:/Infineon/Tools/DAVE IDE/4.5.0.202105191637/eclipse/workspace/LED_test/Libraries/CMSIS/Include\cmsis_gcc.h ****     for(uint32_t i=0u; i<pTable->wlen; ++i) {
 159:D:/Infineon/Tools/DAVE IDE/4.5.0.202105191637/eclipse/workspace/LED_test/Libraries/CMSIS/Include\cmsis_gcc.h ****       pTable->dest[i] = 0u;
 160:D:/Infineon/Tools/DAVE IDE/4.5.0.202105191637/eclipse/workspace/LED_test/Libraries/CMSIS/Include\cmsis_gcc.h ****     }
 161:D:/Infineon/Tools/DAVE IDE/4.5.0.202105191637/eclipse/workspace/LED_test/Libraries/CMSIS/Include\cmsis_gcc.h ****   }
 162:D:/Infineon/Tools/DAVE IDE/4.5.0.202105191637/eclipse/workspace/LED_test/Libraries/CMSIS/Include\cmsis_gcc.h ****  
 163:D:/Infineon/Tools/DAVE IDE/4.5.0.202105191637/eclipse/workspace/LED_test/Libraries/CMSIS/Include\cmsis_gcc.h ****   _start();
 164:D:/Infineon/Tools/DAVE IDE/4.5.0.202105191637/eclipse/workspace/LED_test/Libraries/CMSIS/Include\cmsis_gcc.h **** }
 165:D:/Infineon/Tools/DAVE IDE/4.5.0.202105191637/eclipse/workspace/LED_test/Libraries/CMSIS/Include\cmsis_gcc.h ****   
 166:D:/Infineon/Tools/DAVE IDE/4.5.0.202105191637/eclipse/workspace/LED_test/Libraries/CMSIS/Include\cmsis_gcc.h **** #define __PROGRAM_START           __cmsis_start
 167:D:/Infineon/Tools/DAVE IDE/4.5.0.202105191637/eclipse/workspace/LED_test/Libraries/CMSIS/Include\cmsis_gcc.h **** #endif
 168:D:/Infineon/Tools/DAVE IDE/4.5.0.202105191637/eclipse/workspace/LED_test/Libraries/CMSIS/Include\cmsis_gcc.h **** 
 169:D:/Infineon/Tools/DAVE IDE/4.5.0.202105191637/eclipse/workspace/LED_test/Libraries/CMSIS/Include\cmsis_gcc.h **** #ifndef __INITIAL_SP
 170:D:/Infineon/Tools/DAVE IDE/4.5.0.202105191637/eclipse/workspace/LED_test/Libraries/CMSIS/Include\cmsis_gcc.h **** #define __INITIAL_SP              __StackTop
 171:D:/Infineon/Tools/DAVE IDE/4.5.0.202105191637/eclipse/workspace/LED_test/Libraries/CMSIS/Include\cmsis_gcc.h **** #endif
 172:D:/Infineon/Tools/DAVE IDE/4.5.0.202105191637/eclipse/workspace/LED_test/Libraries/CMSIS/Include\cmsis_gcc.h **** 
 173:D:/Infineon/Tools/DAVE IDE/4.5.0.202105191637/eclipse/workspace/LED_test/Libraries/CMSIS/Include\cmsis_gcc.h **** #ifndef __STACK_LIMIT
 174:D:/Infineon/Tools/DAVE IDE/4.5.0.202105191637/eclipse/workspace/LED_test/Libraries/CMSIS/Include\cmsis_gcc.h **** #define __STACK_LIMIT             __StackLimit
 175:D:/Infineon/Tools/DAVE IDE/4.5.0.202105191637/eclipse/workspace/LED_test/Libraries/CMSIS/Include\cmsis_gcc.h **** #endif
 176:D:/Infineon/Tools/DAVE IDE/4.5.0.202105191637/eclipse/workspace/LED_test/Libraries/CMSIS/Include\cmsis_gcc.h **** 
 177:D:/Infineon/Tools/DAVE IDE/4.5.0.202105191637/eclipse/workspace/LED_test/Libraries/CMSIS/Include\cmsis_gcc.h **** #ifndef __VECTOR_TABLE
 178:D:/Infineon/Tools/DAVE IDE/4.5.0.202105191637/eclipse/workspace/LED_test/Libraries/CMSIS/Include\cmsis_gcc.h **** #define __VECTOR_TABLE            __Vectors
 179:D:/Infineon/Tools/DAVE IDE/4.5.0.202105191637/eclipse/workspace/LED_test/Libraries/CMSIS/Include\cmsis_gcc.h **** #endif
 180:D:/Infineon/Tools/DAVE IDE/4.5.0.202105191637/eclipse/workspace/LED_test/Libraries/CMSIS/Include\cmsis_gcc.h **** 
 181:D:/Infineon/Tools/DAVE IDE/4.5.0.202105191637/eclipse/workspace/LED_test/Libraries/CMSIS/Include\cmsis_gcc.h **** #ifndef __VECTOR_TABLE_ATTRIBUTE
 182:D:/Infineon/Tools/DAVE IDE/4.5.0.202105191637/eclipse/workspace/LED_test/Libraries/CMSIS/Include\cmsis_gcc.h **** #define __VECTOR_TABLE_ATTRIBUTE  __attribute__((used, section(".vectors")))
 183:D:/Infineon/Tools/DAVE IDE/4.5.0.202105191637/eclipse/workspace/LED_test/Libraries/CMSIS/Include\cmsis_gcc.h **** #endif
 184:D:/Infineon/Tools/DAVE IDE/4.5.0.202105191637/eclipse/workspace/LED_test/Libraries/CMSIS/Include\cmsis_gcc.h **** 
 185:D:/Infineon/Tools/DAVE IDE/4.5.0.202105191637/eclipse/workspace/LED_test/Libraries/CMSIS/Include\cmsis_gcc.h **** /* ###########################  Core Function Access  ########################### */
 186:D:/Infineon/Tools/DAVE IDE/4.5.0.202105191637/eclipse/workspace/LED_test/Libraries/CMSIS/Include\cmsis_gcc.h **** /** \ingroup  CMSIS_Core_FunctionInterface
 187:D:/Infineon/Tools/DAVE IDE/4.5.0.202105191637/eclipse/workspace/LED_test/Libraries/CMSIS/Include\cmsis_gcc.h ****     \defgroup CMSIS_Core_RegAccFunctions CMSIS Core Register Access Functions
 188:D:/Infineon/Tools/DAVE IDE/4.5.0.202105191637/eclipse/workspace/LED_test/Libraries/CMSIS/Include\cmsis_gcc.h ****   @{
 189:D:/Infineon/Tools/DAVE IDE/4.5.0.202105191637/eclipse/workspace/LED_test/Libraries/CMSIS/Include\cmsis_gcc.h ****  */
 190:D:/Infineon/Tools/DAVE IDE/4.5.0.202105191637/eclipse/workspace/LED_test/Libraries/CMSIS/Include\cmsis_gcc.h **** 
 191:D:/Infineon/Tools/DAVE IDE/4.5.0.202105191637/eclipse/workspace/LED_test/Libraries/CMSIS/Include\cmsis_gcc.h **** /**
 192:D:/Infineon/Tools/DAVE IDE/4.5.0.202105191637/eclipse/workspace/LED_test/Libraries/CMSIS/Include\cmsis_gcc.h ****   \brief   Enable IRQ Interrupts
 193:D:/Infineon/Tools/DAVE IDE/4.5.0.202105191637/eclipse/workspace/LED_test/Libraries/CMSIS/Include\cmsis_gcc.h ****   \details Enables IRQ interrupts by clearing the I-bit in the CPSR.
 194:D:/Infineon/Tools/DAVE IDE/4.5.0.202105191637/eclipse/workspace/LED_test/Libraries/CMSIS/Include\cmsis_gcc.h ****            Can only be executed in Privileged modes.
 195:D:/Infineon/Tools/DAVE IDE/4.5.0.202105191637/eclipse/workspace/LED_test/Libraries/CMSIS/Include\cmsis_gcc.h ****  */
 196:D:/Infineon/Tools/DAVE IDE/4.5.0.202105191637/eclipse/workspace/LED_test/Libraries/CMSIS/Include\cmsis_gcc.h **** __STATIC_FORCEINLINE void __enable_irq(void)
 197:D:/Infineon/Tools/DAVE IDE/4.5.0.202105191637/eclipse/workspace/LED_test/Libraries/CMSIS/Include\cmsis_gcc.h **** {
 198:D:/Infineon/Tools/DAVE IDE/4.5.0.202105191637/eclipse/workspace/LED_test/Libraries/CMSIS/Include\cmsis_gcc.h ****   __ASM volatile ("cpsie i" : : : "memory");
 199:D:/Infineon/Tools/DAVE IDE/4.5.0.202105191637/eclipse/workspace/LED_test/Libraries/CMSIS/Include\cmsis_gcc.h **** }
 200:D:/Infineon/Tools/DAVE IDE/4.5.0.202105191637/eclipse/workspace/LED_test/Libraries/CMSIS/Include\cmsis_gcc.h **** 
 201:D:/Infineon/Tools/DAVE IDE/4.5.0.202105191637/eclipse/workspace/LED_test/Libraries/CMSIS/Include\cmsis_gcc.h **** 
 202:D:/Infineon/Tools/DAVE IDE/4.5.0.202105191637/eclipse/workspace/LED_test/Libraries/CMSIS/Include\cmsis_gcc.h **** /**
 203:D:/Infineon/Tools/DAVE IDE/4.5.0.202105191637/eclipse/workspace/LED_test/Libraries/CMSIS/Include\cmsis_gcc.h ****   \brief   Disable IRQ Interrupts
 204:D:/Infineon/Tools/DAVE IDE/4.5.0.202105191637/eclipse/workspace/LED_test/Libraries/CMSIS/Include\cmsis_gcc.h ****   \details Disables IRQ interrupts by setting the I-bit in the CPSR.
 205:D:/Infineon/Tools/DAVE IDE/4.5.0.202105191637/eclipse/workspace/LED_test/Libraries/CMSIS/Include\cmsis_gcc.h ****            Can only be executed in Privileged modes.
 206:D:/Infineon/Tools/DAVE IDE/4.5.0.202105191637/eclipse/workspace/LED_test/Libraries/CMSIS/Include\cmsis_gcc.h ****  */
 207:D:/Infineon/Tools/DAVE IDE/4.5.0.202105191637/eclipse/workspace/LED_test/Libraries/CMSIS/Include\cmsis_gcc.h **** __STATIC_FORCEINLINE void __disable_irq(void)
 208:D:/Infineon/Tools/DAVE IDE/4.5.0.202105191637/eclipse/workspace/LED_test/Libraries/CMSIS/Include\cmsis_gcc.h **** {
 209:D:/Infineon/Tools/DAVE IDE/4.5.0.202105191637/eclipse/workspace/LED_test/Libraries/CMSIS/Include\cmsis_gcc.h ****   __ASM volatile ("cpsid i" : : : "memory");
 159              	 .loc 2 209 0
 160              	
 161 0006 72B6     	 cpsid i
 162              	
 163              	 .thumb
 164              	.LBE9:
 165              	.LBE8:
 402:../Startup/system_XMC4300.c ****   uint32_t temp;
 403:../Startup/system_XMC4300.c **** 
 404:../Startup/system_XMC4300.c ****   /* relocate vector table */
 405:../Startup/system_XMC4300.c ****   __disable_irq();
 406:../Startup/system_XMC4300.c ****   SCB->VTOR = (uint32_t)(&__Vectors);
 166              	 .loc 1 406 0
 167 0008 164B     	 ldr r3,.L8
 168 000a 174A     	 ldr r2,.L8+4
 169 000c 9A60     	 str r2,[r3,#8]
 170              	.LBB10:
 171              	.LBB11:
 210:D:/Infineon/Tools/DAVE IDE/4.5.0.202105191637/eclipse/workspace/LED_test/Libraries/CMSIS/Include\cmsis_gcc.h **** }
 211:D:/Infineon/Tools/DAVE IDE/4.5.0.202105191637/eclipse/workspace/LED_test/Libraries/CMSIS/Include\cmsis_gcc.h **** 
 212:D:/Infineon/Tools/DAVE IDE/4.5.0.202105191637/eclipse/workspace/LED_test/Libraries/CMSIS/Include\cmsis_gcc.h **** 
 213:D:/Infineon/Tools/DAVE IDE/4.5.0.202105191637/eclipse/workspace/LED_test/Libraries/CMSIS/Include\cmsis_gcc.h **** /**
 214:D:/Infineon/Tools/DAVE IDE/4.5.0.202105191637/eclipse/workspace/LED_test/Libraries/CMSIS/Include\cmsis_gcc.h ****   \brief   Get Control Register
 215:D:/Infineon/Tools/DAVE IDE/4.5.0.202105191637/eclipse/workspace/LED_test/Libraries/CMSIS/Include\cmsis_gcc.h ****   \details Returns the content of the Control Register.
 216:D:/Infineon/Tools/DAVE IDE/4.5.0.202105191637/eclipse/workspace/LED_test/Libraries/CMSIS/Include\cmsis_gcc.h ****   \return               Control Register value
 217:D:/Infineon/Tools/DAVE IDE/4.5.0.202105191637/eclipse/workspace/LED_test/Libraries/CMSIS/Include\cmsis_gcc.h ****  */
 218:D:/Infineon/Tools/DAVE IDE/4.5.0.202105191637/eclipse/workspace/LED_test/Libraries/CMSIS/Include\cmsis_gcc.h **** __STATIC_FORCEINLINE uint32_t __get_CONTROL(void)
 219:D:/Infineon/Tools/DAVE IDE/4.5.0.202105191637/eclipse/workspace/LED_test/Libraries/CMSIS/Include\cmsis_gcc.h **** {
 220:D:/Infineon/Tools/DAVE IDE/4.5.0.202105191637/eclipse/workspace/LED_test/Libraries/CMSIS/Include\cmsis_gcc.h ****   uint32_t result;
 221:D:/Infineon/Tools/DAVE IDE/4.5.0.202105191637/eclipse/workspace/LED_test/Libraries/CMSIS/Include\cmsis_gcc.h **** 
 222:D:/Infineon/Tools/DAVE IDE/4.5.0.202105191637/eclipse/workspace/LED_test/Libraries/CMSIS/Include\cmsis_gcc.h ****   __ASM volatile ("MRS %0, control" : "=r" (result) );
 223:D:/Infineon/Tools/DAVE IDE/4.5.0.202105191637/eclipse/workspace/LED_test/Libraries/CMSIS/Include\cmsis_gcc.h ****   return(result);
 224:D:/Infineon/Tools/DAVE IDE/4.5.0.202105191637/eclipse/workspace/LED_test/Libraries/CMSIS/Include\cmsis_gcc.h **** }
 225:D:/Infineon/Tools/DAVE IDE/4.5.0.202105191637/eclipse/workspace/LED_test/Libraries/CMSIS/Include\cmsis_gcc.h **** 
 226:D:/Infineon/Tools/DAVE IDE/4.5.0.202105191637/eclipse/workspace/LED_test/Libraries/CMSIS/Include\cmsis_gcc.h **** 
 227:D:/Infineon/Tools/DAVE IDE/4.5.0.202105191637/eclipse/workspace/LED_test/Libraries/CMSIS/Include\cmsis_gcc.h **** #if (defined (__ARM_FEATURE_CMSE ) && (__ARM_FEATURE_CMSE == 3))
 228:D:/Infineon/Tools/DAVE IDE/4.5.0.202105191637/eclipse/workspace/LED_test/Libraries/CMSIS/Include\cmsis_gcc.h **** /**
 229:D:/Infineon/Tools/DAVE IDE/4.5.0.202105191637/eclipse/workspace/LED_test/Libraries/CMSIS/Include\cmsis_gcc.h ****   \brief   Get Control Register (non-secure)
 230:D:/Infineon/Tools/DAVE IDE/4.5.0.202105191637/eclipse/workspace/LED_test/Libraries/CMSIS/Include\cmsis_gcc.h ****   \details Returns the content of the non-secure Control Register when in secure mode.
 231:D:/Infineon/Tools/DAVE IDE/4.5.0.202105191637/eclipse/workspace/LED_test/Libraries/CMSIS/Include\cmsis_gcc.h ****   \return               non-secure Control Register value
 232:D:/Infineon/Tools/DAVE IDE/4.5.0.202105191637/eclipse/workspace/LED_test/Libraries/CMSIS/Include\cmsis_gcc.h ****  */
 233:D:/Infineon/Tools/DAVE IDE/4.5.0.202105191637/eclipse/workspace/LED_test/Libraries/CMSIS/Include\cmsis_gcc.h **** __STATIC_FORCEINLINE uint32_t __TZ_get_CONTROL_NS(void)
 234:D:/Infineon/Tools/DAVE IDE/4.5.0.202105191637/eclipse/workspace/LED_test/Libraries/CMSIS/Include\cmsis_gcc.h **** {
 235:D:/Infineon/Tools/DAVE IDE/4.5.0.202105191637/eclipse/workspace/LED_test/Libraries/CMSIS/Include\cmsis_gcc.h ****   uint32_t result;
 236:D:/Infineon/Tools/DAVE IDE/4.5.0.202105191637/eclipse/workspace/LED_test/Libraries/CMSIS/Include\cmsis_gcc.h **** 
 237:D:/Infineon/Tools/DAVE IDE/4.5.0.202105191637/eclipse/workspace/LED_test/Libraries/CMSIS/Include\cmsis_gcc.h ****   __ASM volatile ("MRS %0, control_ns" : "=r" (result) );
 238:D:/Infineon/Tools/DAVE IDE/4.5.0.202105191637/eclipse/workspace/LED_test/Libraries/CMSIS/Include\cmsis_gcc.h ****   return(result);
 239:D:/Infineon/Tools/DAVE IDE/4.5.0.202105191637/eclipse/workspace/LED_test/Libraries/CMSIS/Include\cmsis_gcc.h **** }
 240:D:/Infineon/Tools/DAVE IDE/4.5.0.202105191637/eclipse/workspace/LED_test/Libraries/CMSIS/Include\cmsis_gcc.h **** #endif
 241:D:/Infineon/Tools/DAVE IDE/4.5.0.202105191637/eclipse/workspace/LED_test/Libraries/CMSIS/Include\cmsis_gcc.h **** 
 242:D:/Infineon/Tools/DAVE IDE/4.5.0.202105191637/eclipse/workspace/LED_test/Libraries/CMSIS/Include\cmsis_gcc.h **** 
 243:D:/Infineon/Tools/DAVE IDE/4.5.0.202105191637/eclipse/workspace/LED_test/Libraries/CMSIS/Include\cmsis_gcc.h **** /**
 244:D:/Infineon/Tools/DAVE IDE/4.5.0.202105191637/eclipse/workspace/LED_test/Libraries/CMSIS/Include\cmsis_gcc.h ****   \brief   Set Control Register
 245:D:/Infineon/Tools/DAVE IDE/4.5.0.202105191637/eclipse/workspace/LED_test/Libraries/CMSIS/Include\cmsis_gcc.h ****   \details Writes the given value to the Control Register.
 246:D:/Infineon/Tools/DAVE IDE/4.5.0.202105191637/eclipse/workspace/LED_test/Libraries/CMSIS/Include\cmsis_gcc.h ****   \param [in]    control  Control Register value to set
 247:D:/Infineon/Tools/DAVE IDE/4.5.0.202105191637/eclipse/workspace/LED_test/Libraries/CMSIS/Include\cmsis_gcc.h ****  */
 248:D:/Infineon/Tools/DAVE IDE/4.5.0.202105191637/eclipse/workspace/LED_test/Libraries/CMSIS/Include\cmsis_gcc.h **** __STATIC_FORCEINLINE void __set_CONTROL(uint32_t control)
 249:D:/Infineon/Tools/DAVE IDE/4.5.0.202105191637/eclipse/workspace/LED_test/Libraries/CMSIS/Include\cmsis_gcc.h **** {
 250:D:/Infineon/Tools/DAVE IDE/4.5.0.202105191637/eclipse/workspace/LED_test/Libraries/CMSIS/Include\cmsis_gcc.h ****   __ASM volatile ("MSR control, %0" : : "r" (control) : "memory");
 251:D:/Infineon/Tools/DAVE IDE/4.5.0.202105191637/eclipse/workspace/LED_test/Libraries/CMSIS/Include\cmsis_gcc.h **** }
 252:D:/Infineon/Tools/DAVE IDE/4.5.0.202105191637/eclipse/workspace/LED_test/Libraries/CMSIS/Include\cmsis_gcc.h **** 
 253:D:/Infineon/Tools/DAVE IDE/4.5.0.202105191637/eclipse/workspace/LED_test/Libraries/CMSIS/Include\cmsis_gcc.h **** 
 254:D:/Infineon/Tools/DAVE IDE/4.5.0.202105191637/eclipse/workspace/LED_test/Libraries/CMSIS/Include\cmsis_gcc.h **** #if (defined (__ARM_FEATURE_CMSE ) && (__ARM_FEATURE_CMSE == 3))
 255:D:/Infineon/Tools/DAVE IDE/4.5.0.202105191637/eclipse/workspace/LED_test/Libraries/CMSIS/Include\cmsis_gcc.h **** /**
 256:D:/Infineon/Tools/DAVE IDE/4.5.0.202105191637/eclipse/workspace/LED_test/Libraries/CMSIS/Include\cmsis_gcc.h ****   \brief   Set Control Register (non-secure)
 257:D:/Infineon/Tools/DAVE IDE/4.5.0.202105191637/eclipse/workspace/LED_test/Libraries/CMSIS/Include\cmsis_gcc.h ****   \details Writes the given value to the non-secure Control Register when in secure state.
 258:D:/Infineon/Tools/DAVE IDE/4.5.0.202105191637/eclipse/workspace/LED_test/Libraries/CMSIS/Include\cmsis_gcc.h ****   \param [in]    control  Control Register value to set
 259:D:/Infineon/Tools/DAVE IDE/4.5.0.202105191637/eclipse/workspace/LED_test/Libraries/CMSIS/Include\cmsis_gcc.h ****  */
 260:D:/Infineon/Tools/DAVE IDE/4.5.0.202105191637/eclipse/workspace/LED_test/Libraries/CMSIS/Include\cmsis_gcc.h **** __STATIC_FORCEINLINE void __TZ_set_CONTROL_NS(uint32_t control)
 261:D:/Infineon/Tools/DAVE IDE/4.5.0.202105191637/eclipse/workspace/LED_test/Libraries/CMSIS/Include\cmsis_gcc.h **** {
 262:D:/Infineon/Tools/DAVE IDE/4.5.0.202105191637/eclipse/workspace/LED_test/Libraries/CMSIS/Include\cmsis_gcc.h ****   __ASM volatile ("MSR control_ns, %0" : : "r" (control) : "memory");
 263:D:/Infineon/Tools/DAVE IDE/4.5.0.202105191637/eclipse/workspace/LED_test/Libraries/CMSIS/Include\cmsis_gcc.h **** }
 264:D:/Infineon/Tools/DAVE IDE/4.5.0.202105191637/eclipse/workspace/LED_test/Libraries/CMSIS/Include\cmsis_gcc.h **** #endif
 265:D:/Infineon/Tools/DAVE IDE/4.5.0.202105191637/eclipse/workspace/LED_test/Libraries/CMSIS/Include\cmsis_gcc.h **** 
 266:D:/Infineon/Tools/DAVE IDE/4.5.0.202105191637/eclipse/workspace/LED_test/Libraries/CMSIS/Include\cmsis_gcc.h **** 
 267:D:/Infineon/Tools/DAVE IDE/4.5.0.202105191637/eclipse/workspace/LED_test/Libraries/CMSIS/Include\cmsis_gcc.h **** /**
 268:D:/Infineon/Tools/DAVE IDE/4.5.0.202105191637/eclipse/workspace/LED_test/Libraries/CMSIS/Include\cmsis_gcc.h ****   \brief   Get IPSR Register
 269:D:/Infineon/Tools/DAVE IDE/4.5.0.202105191637/eclipse/workspace/LED_test/Libraries/CMSIS/Include\cmsis_gcc.h ****   \details Returns the content of the IPSR Register.
 270:D:/Infineon/Tools/DAVE IDE/4.5.0.202105191637/eclipse/workspace/LED_test/Libraries/CMSIS/Include\cmsis_gcc.h ****   \return               IPSR Register value
 271:D:/Infineon/Tools/DAVE IDE/4.5.0.202105191637/eclipse/workspace/LED_test/Libraries/CMSIS/Include\cmsis_gcc.h ****  */
 272:D:/Infineon/Tools/DAVE IDE/4.5.0.202105191637/eclipse/workspace/LED_test/Libraries/CMSIS/Include\cmsis_gcc.h **** __STATIC_FORCEINLINE uint32_t __get_IPSR(void)
 273:D:/Infineon/Tools/DAVE IDE/4.5.0.202105191637/eclipse/workspace/LED_test/Libraries/CMSIS/Include\cmsis_gcc.h **** {
 274:D:/Infineon/Tools/DAVE IDE/4.5.0.202105191637/eclipse/workspace/LED_test/Libraries/CMSIS/Include\cmsis_gcc.h ****   uint32_t result;
 275:D:/Infineon/Tools/DAVE IDE/4.5.0.202105191637/eclipse/workspace/LED_test/Libraries/CMSIS/Include\cmsis_gcc.h **** 
 276:D:/Infineon/Tools/DAVE IDE/4.5.0.202105191637/eclipse/workspace/LED_test/Libraries/CMSIS/Include\cmsis_gcc.h ****   __ASM volatile ("MRS %0, ipsr" : "=r" (result) );
 277:D:/Infineon/Tools/DAVE IDE/4.5.0.202105191637/eclipse/workspace/LED_test/Libraries/CMSIS/Include\cmsis_gcc.h ****   return(result);
 278:D:/Infineon/Tools/DAVE IDE/4.5.0.202105191637/eclipse/workspace/LED_test/Libraries/CMSIS/Include\cmsis_gcc.h **** }
 279:D:/Infineon/Tools/DAVE IDE/4.5.0.202105191637/eclipse/workspace/LED_test/Libraries/CMSIS/Include\cmsis_gcc.h **** 
 280:D:/Infineon/Tools/DAVE IDE/4.5.0.202105191637/eclipse/workspace/LED_test/Libraries/CMSIS/Include\cmsis_gcc.h **** 
 281:D:/Infineon/Tools/DAVE IDE/4.5.0.202105191637/eclipse/workspace/LED_test/Libraries/CMSIS/Include\cmsis_gcc.h **** /**
 282:D:/Infineon/Tools/DAVE IDE/4.5.0.202105191637/eclipse/workspace/LED_test/Libraries/CMSIS/Include\cmsis_gcc.h ****   \brief   Get APSR Register
 283:D:/Infineon/Tools/DAVE IDE/4.5.0.202105191637/eclipse/workspace/LED_test/Libraries/CMSIS/Include\cmsis_gcc.h ****   \details Returns the content of the APSR Register.
 284:D:/Infineon/Tools/DAVE IDE/4.5.0.202105191637/eclipse/workspace/LED_test/Libraries/CMSIS/Include\cmsis_gcc.h ****   \return               APSR Register value
 285:D:/Infineon/Tools/DAVE IDE/4.5.0.202105191637/eclipse/workspace/LED_test/Libraries/CMSIS/Include\cmsis_gcc.h ****  */
 286:D:/Infineon/Tools/DAVE IDE/4.5.0.202105191637/eclipse/workspace/LED_test/Libraries/CMSIS/Include\cmsis_gcc.h **** __STATIC_FORCEINLINE uint32_t __get_APSR(void)
 287:D:/Infineon/Tools/DAVE IDE/4.5.0.202105191637/eclipse/workspace/LED_test/Libraries/CMSIS/Include\cmsis_gcc.h **** {
 288:D:/Infineon/Tools/DAVE IDE/4.5.0.202105191637/eclipse/workspace/LED_test/Libraries/CMSIS/Include\cmsis_gcc.h ****   uint32_t result;
 289:D:/Infineon/Tools/DAVE IDE/4.5.0.202105191637/eclipse/workspace/LED_test/Libraries/CMSIS/Include\cmsis_gcc.h **** 
 290:D:/Infineon/Tools/DAVE IDE/4.5.0.202105191637/eclipse/workspace/LED_test/Libraries/CMSIS/Include\cmsis_gcc.h ****   __ASM volatile ("MRS %0, apsr" : "=r" (result) );
 291:D:/Infineon/Tools/DAVE IDE/4.5.0.202105191637/eclipse/workspace/LED_test/Libraries/CMSIS/Include\cmsis_gcc.h ****   return(result);
 292:D:/Infineon/Tools/DAVE IDE/4.5.0.202105191637/eclipse/workspace/LED_test/Libraries/CMSIS/Include\cmsis_gcc.h **** }
 293:D:/Infineon/Tools/DAVE IDE/4.5.0.202105191637/eclipse/workspace/LED_test/Libraries/CMSIS/Include\cmsis_gcc.h **** 
 294:D:/Infineon/Tools/DAVE IDE/4.5.0.202105191637/eclipse/workspace/LED_test/Libraries/CMSIS/Include\cmsis_gcc.h **** 
 295:D:/Infineon/Tools/DAVE IDE/4.5.0.202105191637/eclipse/workspace/LED_test/Libraries/CMSIS/Include\cmsis_gcc.h **** /**
 296:D:/Infineon/Tools/DAVE IDE/4.5.0.202105191637/eclipse/workspace/LED_test/Libraries/CMSIS/Include\cmsis_gcc.h ****   \brief   Get xPSR Register
 297:D:/Infineon/Tools/DAVE IDE/4.5.0.202105191637/eclipse/workspace/LED_test/Libraries/CMSIS/Include\cmsis_gcc.h ****   \details Returns the content of the xPSR Register.
 298:D:/Infineon/Tools/DAVE IDE/4.5.0.202105191637/eclipse/workspace/LED_test/Libraries/CMSIS/Include\cmsis_gcc.h ****   \return               xPSR Register value
 299:D:/Infineon/Tools/DAVE IDE/4.5.0.202105191637/eclipse/workspace/LED_test/Libraries/CMSIS/Include\cmsis_gcc.h ****  */
 300:D:/Infineon/Tools/DAVE IDE/4.5.0.202105191637/eclipse/workspace/LED_test/Libraries/CMSIS/Include\cmsis_gcc.h **** __STATIC_FORCEINLINE uint32_t __get_xPSR(void)
 301:D:/Infineon/Tools/DAVE IDE/4.5.0.202105191637/eclipse/workspace/LED_test/Libraries/CMSIS/Include\cmsis_gcc.h **** {
 302:D:/Infineon/Tools/DAVE IDE/4.5.0.202105191637/eclipse/workspace/LED_test/Libraries/CMSIS/Include\cmsis_gcc.h ****   uint32_t result;
 303:D:/Infineon/Tools/DAVE IDE/4.5.0.202105191637/eclipse/workspace/LED_test/Libraries/CMSIS/Include\cmsis_gcc.h **** 
 304:D:/Infineon/Tools/DAVE IDE/4.5.0.202105191637/eclipse/workspace/LED_test/Libraries/CMSIS/Include\cmsis_gcc.h ****   __ASM volatile ("MRS %0, xpsr" : "=r" (result) );
 305:D:/Infineon/Tools/DAVE IDE/4.5.0.202105191637/eclipse/workspace/LED_test/Libraries/CMSIS/Include\cmsis_gcc.h ****   return(result);
 306:D:/Infineon/Tools/DAVE IDE/4.5.0.202105191637/eclipse/workspace/LED_test/Libraries/CMSIS/Include\cmsis_gcc.h **** }
 307:D:/Infineon/Tools/DAVE IDE/4.5.0.202105191637/eclipse/workspace/LED_test/Libraries/CMSIS/Include\cmsis_gcc.h **** 
 308:D:/Infineon/Tools/DAVE IDE/4.5.0.202105191637/eclipse/workspace/LED_test/Libraries/CMSIS/Include\cmsis_gcc.h **** 
 309:D:/Infineon/Tools/DAVE IDE/4.5.0.202105191637/eclipse/workspace/LED_test/Libraries/CMSIS/Include\cmsis_gcc.h **** /**
 310:D:/Infineon/Tools/DAVE IDE/4.5.0.202105191637/eclipse/workspace/LED_test/Libraries/CMSIS/Include\cmsis_gcc.h ****   \brief   Get Process Stack Pointer
 311:D:/Infineon/Tools/DAVE IDE/4.5.0.202105191637/eclipse/workspace/LED_test/Libraries/CMSIS/Include\cmsis_gcc.h ****   \details Returns the current value of the Process Stack Pointer (PSP).
 312:D:/Infineon/Tools/DAVE IDE/4.5.0.202105191637/eclipse/workspace/LED_test/Libraries/CMSIS/Include\cmsis_gcc.h ****   \return               PSP Register value
 313:D:/Infineon/Tools/DAVE IDE/4.5.0.202105191637/eclipse/workspace/LED_test/Libraries/CMSIS/Include\cmsis_gcc.h ****  */
 314:D:/Infineon/Tools/DAVE IDE/4.5.0.202105191637/eclipse/workspace/LED_test/Libraries/CMSIS/Include\cmsis_gcc.h **** __STATIC_FORCEINLINE uint32_t __get_PSP(void)
 315:D:/Infineon/Tools/DAVE IDE/4.5.0.202105191637/eclipse/workspace/LED_test/Libraries/CMSIS/Include\cmsis_gcc.h **** {
 316:D:/Infineon/Tools/DAVE IDE/4.5.0.202105191637/eclipse/workspace/LED_test/Libraries/CMSIS/Include\cmsis_gcc.h ****   uint32_t result;
 317:D:/Infineon/Tools/DAVE IDE/4.5.0.202105191637/eclipse/workspace/LED_test/Libraries/CMSIS/Include\cmsis_gcc.h **** 
 318:D:/Infineon/Tools/DAVE IDE/4.5.0.202105191637/eclipse/workspace/LED_test/Libraries/CMSIS/Include\cmsis_gcc.h ****   __ASM volatile ("MRS %0, psp"  : "=r" (result) );
 319:D:/Infineon/Tools/DAVE IDE/4.5.0.202105191637/eclipse/workspace/LED_test/Libraries/CMSIS/Include\cmsis_gcc.h ****   return(result);
 320:D:/Infineon/Tools/DAVE IDE/4.5.0.202105191637/eclipse/workspace/LED_test/Libraries/CMSIS/Include\cmsis_gcc.h **** }
 321:D:/Infineon/Tools/DAVE IDE/4.5.0.202105191637/eclipse/workspace/LED_test/Libraries/CMSIS/Include\cmsis_gcc.h **** 
 322:D:/Infineon/Tools/DAVE IDE/4.5.0.202105191637/eclipse/workspace/LED_test/Libraries/CMSIS/Include\cmsis_gcc.h **** 
 323:D:/Infineon/Tools/DAVE IDE/4.5.0.202105191637/eclipse/workspace/LED_test/Libraries/CMSIS/Include\cmsis_gcc.h **** #if (defined (__ARM_FEATURE_CMSE ) && (__ARM_FEATURE_CMSE == 3))
 324:D:/Infineon/Tools/DAVE IDE/4.5.0.202105191637/eclipse/workspace/LED_test/Libraries/CMSIS/Include\cmsis_gcc.h **** /**
 325:D:/Infineon/Tools/DAVE IDE/4.5.0.202105191637/eclipse/workspace/LED_test/Libraries/CMSIS/Include\cmsis_gcc.h ****   \brief   Get Process Stack Pointer (non-secure)
 326:D:/Infineon/Tools/DAVE IDE/4.5.0.202105191637/eclipse/workspace/LED_test/Libraries/CMSIS/Include\cmsis_gcc.h ****   \details Returns the current value of the non-secure Process Stack Pointer (PSP) when in secure s
 327:D:/Infineon/Tools/DAVE IDE/4.5.0.202105191637/eclipse/workspace/LED_test/Libraries/CMSIS/Include\cmsis_gcc.h ****   \return               PSP Register value
 328:D:/Infineon/Tools/DAVE IDE/4.5.0.202105191637/eclipse/workspace/LED_test/Libraries/CMSIS/Include\cmsis_gcc.h ****  */
 329:D:/Infineon/Tools/DAVE IDE/4.5.0.202105191637/eclipse/workspace/LED_test/Libraries/CMSIS/Include\cmsis_gcc.h **** __STATIC_FORCEINLINE uint32_t __TZ_get_PSP_NS(void)
 330:D:/Infineon/Tools/DAVE IDE/4.5.0.202105191637/eclipse/workspace/LED_test/Libraries/CMSIS/Include\cmsis_gcc.h **** {
 331:D:/Infineon/Tools/DAVE IDE/4.5.0.202105191637/eclipse/workspace/LED_test/Libraries/CMSIS/Include\cmsis_gcc.h ****   uint32_t result;
 332:D:/Infineon/Tools/DAVE IDE/4.5.0.202105191637/eclipse/workspace/LED_test/Libraries/CMSIS/Include\cmsis_gcc.h **** 
 333:D:/Infineon/Tools/DAVE IDE/4.5.0.202105191637/eclipse/workspace/LED_test/Libraries/CMSIS/Include\cmsis_gcc.h ****   __ASM volatile ("MRS %0, psp_ns"  : "=r" (result) );
 334:D:/Infineon/Tools/DAVE IDE/4.5.0.202105191637/eclipse/workspace/LED_test/Libraries/CMSIS/Include\cmsis_gcc.h ****   return(result);
 335:D:/Infineon/Tools/DAVE IDE/4.5.0.202105191637/eclipse/workspace/LED_test/Libraries/CMSIS/Include\cmsis_gcc.h **** }
 336:D:/Infineon/Tools/DAVE IDE/4.5.0.202105191637/eclipse/workspace/LED_test/Libraries/CMSIS/Include\cmsis_gcc.h **** #endif
 337:D:/Infineon/Tools/DAVE IDE/4.5.0.202105191637/eclipse/workspace/LED_test/Libraries/CMSIS/Include\cmsis_gcc.h **** 
 338:D:/Infineon/Tools/DAVE IDE/4.5.0.202105191637/eclipse/workspace/LED_test/Libraries/CMSIS/Include\cmsis_gcc.h **** 
 339:D:/Infineon/Tools/DAVE IDE/4.5.0.202105191637/eclipse/workspace/LED_test/Libraries/CMSIS/Include\cmsis_gcc.h **** /**
 340:D:/Infineon/Tools/DAVE IDE/4.5.0.202105191637/eclipse/workspace/LED_test/Libraries/CMSIS/Include\cmsis_gcc.h ****   \brief   Set Process Stack Pointer
 341:D:/Infineon/Tools/DAVE IDE/4.5.0.202105191637/eclipse/workspace/LED_test/Libraries/CMSIS/Include\cmsis_gcc.h ****   \details Assigns the given value to the Process Stack Pointer (PSP).
 342:D:/Infineon/Tools/DAVE IDE/4.5.0.202105191637/eclipse/workspace/LED_test/Libraries/CMSIS/Include\cmsis_gcc.h ****   \param [in]    topOfProcStack  Process Stack Pointer value to set
 343:D:/Infineon/Tools/DAVE IDE/4.5.0.202105191637/eclipse/workspace/LED_test/Libraries/CMSIS/Include\cmsis_gcc.h ****  */
 344:D:/Infineon/Tools/DAVE IDE/4.5.0.202105191637/eclipse/workspace/LED_test/Libraries/CMSIS/Include\cmsis_gcc.h **** __STATIC_FORCEINLINE void __set_PSP(uint32_t topOfProcStack)
 345:D:/Infineon/Tools/DAVE IDE/4.5.0.202105191637/eclipse/workspace/LED_test/Libraries/CMSIS/Include\cmsis_gcc.h **** {
 346:D:/Infineon/Tools/DAVE IDE/4.5.0.202105191637/eclipse/workspace/LED_test/Libraries/CMSIS/Include\cmsis_gcc.h ****   __ASM volatile ("MSR psp, %0" : : "r" (topOfProcStack) : );
 347:D:/Infineon/Tools/DAVE IDE/4.5.0.202105191637/eclipse/workspace/LED_test/Libraries/CMSIS/Include\cmsis_gcc.h **** }
 348:D:/Infineon/Tools/DAVE IDE/4.5.0.202105191637/eclipse/workspace/LED_test/Libraries/CMSIS/Include\cmsis_gcc.h **** 
 349:D:/Infineon/Tools/DAVE IDE/4.5.0.202105191637/eclipse/workspace/LED_test/Libraries/CMSIS/Include\cmsis_gcc.h **** 
 350:D:/Infineon/Tools/DAVE IDE/4.5.0.202105191637/eclipse/workspace/LED_test/Libraries/CMSIS/Include\cmsis_gcc.h **** #if (defined (__ARM_FEATURE_CMSE ) && (__ARM_FEATURE_CMSE == 3))
 351:D:/Infineon/Tools/DAVE IDE/4.5.0.202105191637/eclipse/workspace/LED_test/Libraries/CMSIS/Include\cmsis_gcc.h **** /**
 352:D:/Infineon/Tools/DAVE IDE/4.5.0.202105191637/eclipse/workspace/LED_test/Libraries/CMSIS/Include\cmsis_gcc.h ****   \brief   Set Process Stack Pointer (non-secure)
 353:D:/Infineon/Tools/DAVE IDE/4.5.0.202105191637/eclipse/workspace/LED_test/Libraries/CMSIS/Include\cmsis_gcc.h ****   \details Assigns the given value to the non-secure Process Stack Pointer (PSP) when in secure sta
 354:D:/Infineon/Tools/DAVE IDE/4.5.0.202105191637/eclipse/workspace/LED_test/Libraries/CMSIS/Include\cmsis_gcc.h ****   \param [in]    topOfProcStack  Process Stack Pointer value to set
 355:D:/Infineon/Tools/DAVE IDE/4.5.0.202105191637/eclipse/workspace/LED_test/Libraries/CMSIS/Include\cmsis_gcc.h ****  */
 356:D:/Infineon/Tools/DAVE IDE/4.5.0.202105191637/eclipse/workspace/LED_test/Libraries/CMSIS/Include\cmsis_gcc.h **** __STATIC_FORCEINLINE void __TZ_set_PSP_NS(uint32_t topOfProcStack)
 357:D:/Infineon/Tools/DAVE IDE/4.5.0.202105191637/eclipse/workspace/LED_test/Libraries/CMSIS/Include\cmsis_gcc.h **** {
 358:D:/Infineon/Tools/DAVE IDE/4.5.0.202105191637/eclipse/workspace/LED_test/Libraries/CMSIS/Include\cmsis_gcc.h ****   __ASM volatile ("MSR psp_ns, %0" : : "r" (topOfProcStack) : );
 359:D:/Infineon/Tools/DAVE IDE/4.5.0.202105191637/eclipse/workspace/LED_test/Libraries/CMSIS/Include\cmsis_gcc.h **** }
 360:D:/Infineon/Tools/DAVE IDE/4.5.0.202105191637/eclipse/workspace/LED_test/Libraries/CMSIS/Include\cmsis_gcc.h **** #endif
 361:D:/Infineon/Tools/DAVE IDE/4.5.0.202105191637/eclipse/workspace/LED_test/Libraries/CMSIS/Include\cmsis_gcc.h **** 
 362:D:/Infineon/Tools/DAVE IDE/4.5.0.202105191637/eclipse/workspace/LED_test/Libraries/CMSIS/Include\cmsis_gcc.h **** 
 363:D:/Infineon/Tools/DAVE IDE/4.5.0.202105191637/eclipse/workspace/LED_test/Libraries/CMSIS/Include\cmsis_gcc.h **** /**
 364:D:/Infineon/Tools/DAVE IDE/4.5.0.202105191637/eclipse/workspace/LED_test/Libraries/CMSIS/Include\cmsis_gcc.h ****   \brief   Get Main Stack Pointer
 365:D:/Infineon/Tools/DAVE IDE/4.5.0.202105191637/eclipse/workspace/LED_test/Libraries/CMSIS/Include\cmsis_gcc.h ****   \details Returns the current value of the Main Stack Pointer (MSP).
 366:D:/Infineon/Tools/DAVE IDE/4.5.0.202105191637/eclipse/workspace/LED_test/Libraries/CMSIS/Include\cmsis_gcc.h ****   \return               MSP Register value
 367:D:/Infineon/Tools/DAVE IDE/4.5.0.202105191637/eclipse/workspace/LED_test/Libraries/CMSIS/Include\cmsis_gcc.h ****  */
 368:D:/Infineon/Tools/DAVE IDE/4.5.0.202105191637/eclipse/workspace/LED_test/Libraries/CMSIS/Include\cmsis_gcc.h **** __STATIC_FORCEINLINE uint32_t __get_MSP(void)
 369:D:/Infineon/Tools/DAVE IDE/4.5.0.202105191637/eclipse/workspace/LED_test/Libraries/CMSIS/Include\cmsis_gcc.h **** {
 370:D:/Infineon/Tools/DAVE IDE/4.5.0.202105191637/eclipse/workspace/LED_test/Libraries/CMSIS/Include\cmsis_gcc.h ****   uint32_t result;
 371:D:/Infineon/Tools/DAVE IDE/4.5.0.202105191637/eclipse/workspace/LED_test/Libraries/CMSIS/Include\cmsis_gcc.h **** 
 372:D:/Infineon/Tools/DAVE IDE/4.5.0.202105191637/eclipse/workspace/LED_test/Libraries/CMSIS/Include\cmsis_gcc.h ****   __ASM volatile ("MRS %0, msp" : "=r" (result) );
 373:D:/Infineon/Tools/DAVE IDE/4.5.0.202105191637/eclipse/workspace/LED_test/Libraries/CMSIS/Include\cmsis_gcc.h ****   return(result);
 374:D:/Infineon/Tools/DAVE IDE/4.5.0.202105191637/eclipse/workspace/LED_test/Libraries/CMSIS/Include\cmsis_gcc.h **** }
 375:D:/Infineon/Tools/DAVE IDE/4.5.0.202105191637/eclipse/workspace/LED_test/Libraries/CMSIS/Include\cmsis_gcc.h **** 
 376:D:/Infineon/Tools/DAVE IDE/4.5.0.202105191637/eclipse/workspace/LED_test/Libraries/CMSIS/Include\cmsis_gcc.h **** 
 377:D:/Infineon/Tools/DAVE IDE/4.5.0.202105191637/eclipse/workspace/LED_test/Libraries/CMSIS/Include\cmsis_gcc.h **** #if (defined (__ARM_FEATURE_CMSE ) && (__ARM_FEATURE_CMSE == 3))
 378:D:/Infineon/Tools/DAVE IDE/4.5.0.202105191637/eclipse/workspace/LED_test/Libraries/CMSIS/Include\cmsis_gcc.h **** /**
 379:D:/Infineon/Tools/DAVE IDE/4.5.0.202105191637/eclipse/workspace/LED_test/Libraries/CMSIS/Include\cmsis_gcc.h ****   \brief   Get Main Stack Pointer (non-secure)
 380:D:/Infineon/Tools/DAVE IDE/4.5.0.202105191637/eclipse/workspace/LED_test/Libraries/CMSIS/Include\cmsis_gcc.h ****   \details Returns the current value of the non-secure Main Stack Pointer (MSP) when in secure stat
 381:D:/Infineon/Tools/DAVE IDE/4.5.0.202105191637/eclipse/workspace/LED_test/Libraries/CMSIS/Include\cmsis_gcc.h ****   \return               MSP Register value
 382:D:/Infineon/Tools/DAVE IDE/4.5.0.202105191637/eclipse/workspace/LED_test/Libraries/CMSIS/Include\cmsis_gcc.h ****  */
 383:D:/Infineon/Tools/DAVE IDE/4.5.0.202105191637/eclipse/workspace/LED_test/Libraries/CMSIS/Include\cmsis_gcc.h **** __STATIC_FORCEINLINE uint32_t __TZ_get_MSP_NS(void)
 384:D:/Infineon/Tools/DAVE IDE/4.5.0.202105191637/eclipse/workspace/LED_test/Libraries/CMSIS/Include\cmsis_gcc.h **** {
 385:D:/Infineon/Tools/DAVE IDE/4.5.0.202105191637/eclipse/workspace/LED_test/Libraries/CMSIS/Include\cmsis_gcc.h ****   uint32_t result;
 386:D:/Infineon/Tools/DAVE IDE/4.5.0.202105191637/eclipse/workspace/LED_test/Libraries/CMSIS/Include\cmsis_gcc.h **** 
 387:D:/Infineon/Tools/DAVE IDE/4.5.0.202105191637/eclipse/workspace/LED_test/Libraries/CMSIS/Include\cmsis_gcc.h ****   __ASM volatile ("MRS %0, msp_ns" : "=r" (result) );
 388:D:/Infineon/Tools/DAVE IDE/4.5.0.202105191637/eclipse/workspace/LED_test/Libraries/CMSIS/Include\cmsis_gcc.h ****   return(result);
 389:D:/Infineon/Tools/DAVE IDE/4.5.0.202105191637/eclipse/workspace/LED_test/Libraries/CMSIS/Include\cmsis_gcc.h **** }
 390:D:/Infineon/Tools/DAVE IDE/4.5.0.202105191637/eclipse/workspace/LED_test/Libraries/CMSIS/Include\cmsis_gcc.h **** #endif
 391:D:/Infineon/Tools/DAVE IDE/4.5.0.202105191637/eclipse/workspace/LED_test/Libraries/CMSIS/Include\cmsis_gcc.h **** 
 392:D:/Infineon/Tools/DAVE IDE/4.5.0.202105191637/eclipse/workspace/LED_test/Libraries/CMSIS/Include\cmsis_gcc.h **** 
 393:D:/Infineon/Tools/DAVE IDE/4.5.0.202105191637/eclipse/workspace/LED_test/Libraries/CMSIS/Include\cmsis_gcc.h **** /**
 394:D:/Infineon/Tools/DAVE IDE/4.5.0.202105191637/eclipse/workspace/LED_test/Libraries/CMSIS/Include\cmsis_gcc.h ****   \brief   Set Main Stack Pointer
 395:D:/Infineon/Tools/DAVE IDE/4.5.0.202105191637/eclipse/workspace/LED_test/Libraries/CMSIS/Include\cmsis_gcc.h ****   \details Assigns the given value to the Main Stack Pointer (MSP).
 396:D:/Infineon/Tools/DAVE IDE/4.5.0.202105191637/eclipse/workspace/LED_test/Libraries/CMSIS/Include\cmsis_gcc.h ****   \param [in]    topOfMainStack  Main Stack Pointer value to set
 397:D:/Infineon/Tools/DAVE IDE/4.5.0.202105191637/eclipse/workspace/LED_test/Libraries/CMSIS/Include\cmsis_gcc.h ****  */
 398:D:/Infineon/Tools/DAVE IDE/4.5.0.202105191637/eclipse/workspace/LED_test/Libraries/CMSIS/Include\cmsis_gcc.h **** __STATIC_FORCEINLINE void __set_MSP(uint32_t topOfMainStack)
 399:D:/Infineon/Tools/DAVE IDE/4.5.0.202105191637/eclipse/workspace/LED_test/Libraries/CMSIS/Include\cmsis_gcc.h **** {
 400:D:/Infineon/Tools/DAVE IDE/4.5.0.202105191637/eclipse/workspace/LED_test/Libraries/CMSIS/Include\cmsis_gcc.h ****   __ASM volatile ("MSR msp, %0" : : "r" (topOfMainStack) : );
 401:D:/Infineon/Tools/DAVE IDE/4.5.0.202105191637/eclipse/workspace/LED_test/Libraries/CMSIS/Include\cmsis_gcc.h **** }
 402:D:/Infineon/Tools/DAVE IDE/4.5.0.202105191637/eclipse/workspace/LED_test/Libraries/CMSIS/Include\cmsis_gcc.h **** 
 403:D:/Infineon/Tools/DAVE IDE/4.5.0.202105191637/eclipse/workspace/LED_test/Libraries/CMSIS/Include\cmsis_gcc.h **** 
 404:D:/Infineon/Tools/DAVE IDE/4.5.0.202105191637/eclipse/workspace/LED_test/Libraries/CMSIS/Include\cmsis_gcc.h **** #if (defined (__ARM_FEATURE_CMSE ) && (__ARM_FEATURE_CMSE == 3))
 405:D:/Infineon/Tools/DAVE IDE/4.5.0.202105191637/eclipse/workspace/LED_test/Libraries/CMSIS/Include\cmsis_gcc.h **** /**
 406:D:/Infineon/Tools/DAVE IDE/4.5.0.202105191637/eclipse/workspace/LED_test/Libraries/CMSIS/Include\cmsis_gcc.h ****   \brief   Set Main Stack Pointer (non-secure)
 407:D:/Infineon/Tools/DAVE IDE/4.5.0.202105191637/eclipse/workspace/LED_test/Libraries/CMSIS/Include\cmsis_gcc.h ****   \details Assigns the given value to the non-secure Main Stack Pointer (MSP) when in secure state.
 408:D:/Infineon/Tools/DAVE IDE/4.5.0.202105191637/eclipse/workspace/LED_test/Libraries/CMSIS/Include\cmsis_gcc.h ****   \param [in]    topOfMainStack  Main Stack Pointer value to set
 409:D:/Infineon/Tools/DAVE IDE/4.5.0.202105191637/eclipse/workspace/LED_test/Libraries/CMSIS/Include\cmsis_gcc.h ****  */
 410:D:/Infineon/Tools/DAVE IDE/4.5.0.202105191637/eclipse/workspace/LED_test/Libraries/CMSIS/Include\cmsis_gcc.h **** __STATIC_FORCEINLINE void __TZ_set_MSP_NS(uint32_t topOfMainStack)
 411:D:/Infineon/Tools/DAVE IDE/4.5.0.202105191637/eclipse/workspace/LED_test/Libraries/CMSIS/Include\cmsis_gcc.h **** {
 412:D:/Infineon/Tools/DAVE IDE/4.5.0.202105191637/eclipse/workspace/LED_test/Libraries/CMSIS/Include\cmsis_gcc.h ****   __ASM volatile ("MSR msp_ns, %0" : : "r" (topOfMainStack) : );
 413:D:/Infineon/Tools/DAVE IDE/4.5.0.202105191637/eclipse/workspace/LED_test/Libraries/CMSIS/Include\cmsis_gcc.h **** }
 414:D:/Infineon/Tools/DAVE IDE/4.5.0.202105191637/eclipse/workspace/LED_test/Libraries/CMSIS/Include\cmsis_gcc.h **** #endif
 415:D:/Infineon/Tools/DAVE IDE/4.5.0.202105191637/eclipse/workspace/LED_test/Libraries/CMSIS/Include\cmsis_gcc.h **** 
 416:D:/Infineon/Tools/DAVE IDE/4.5.0.202105191637/eclipse/workspace/LED_test/Libraries/CMSIS/Include\cmsis_gcc.h **** 
 417:D:/Infineon/Tools/DAVE IDE/4.5.0.202105191637/eclipse/workspace/LED_test/Libraries/CMSIS/Include\cmsis_gcc.h **** #if (defined (__ARM_FEATURE_CMSE ) && (__ARM_FEATURE_CMSE == 3))
 418:D:/Infineon/Tools/DAVE IDE/4.5.0.202105191637/eclipse/workspace/LED_test/Libraries/CMSIS/Include\cmsis_gcc.h **** /**
 419:D:/Infineon/Tools/DAVE IDE/4.5.0.202105191637/eclipse/workspace/LED_test/Libraries/CMSIS/Include\cmsis_gcc.h ****   \brief   Get Stack Pointer (non-secure)
 420:D:/Infineon/Tools/DAVE IDE/4.5.0.202105191637/eclipse/workspace/LED_test/Libraries/CMSIS/Include\cmsis_gcc.h ****   \details Returns the current value of the non-secure Stack Pointer (SP) when in secure state.
 421:D:/Infineon/Tools/DAVE IDE/4.5.0.202105191637/eclipse/workspace/LED_test/Libraries/CMSIS/Include\cmsis_gcc.h ****   \return               SP Register value
 422:D:/Infineon/Tools/DAVE IDE/4.5.0.202105191637/eclipse/workspace/LED_test/Libraries/CMSIS/Include\cmsis_gcc.h ****  */
 423:D:/Infineon/Tools/DAVE IDE/4.5.0.202105191637/eclipse/workspace/LED_test/Libraries/CMSIS/Include\cmsis_gcc.h **** __STATIC_FORCEINLINE uint32_t __TZ_get_SP_NS(void)
 424:D:/Infineon/Tools/DAVE IDE/4.5.0.202105191637/eclipse/workspace/LED_test/Libraries/CMSIS/Include\cmsis_gcc.h **** {
 425:D:/Infineon/Tools/DAVE IDE/4.5.0.202105191637/eclipse/workspace/LED_test/Libraries/CMSIS/Include\cmsis_gcc.h ****   uint32_t result;
 426:D:/Infineon/Tools/DAVE IDE/4.5.0.202105191637/eclipse/workspace/LED_test/Libraries/CMSIS/Include\cmsis_gcc.h **** 
 427:D:/Infineon/Tools/DAVE IDE/4.5.0.202105191637/eclipse/workspace/LED_test/Libraries/CMSIS/Include\cmsis_gcc.h ****   __ASM volatile ("MRS %0, sp_ns" : "=r" (result) );
 428:D:/Infineon/Tools/DAVE IDE/4.5.0.202105191637/eclipse/workspace/LED_test/Libraries/CMSIS/Include\cmsis_gcc.h ****   return(result);
 429:D:/Infineon/Tools/DAVE IDE/4.5.0.202105191637/eclipse/workspace/LED_test/Libraries/CMSIS/Include\cmsis_gcc.h **** }
 430:D:/Infineon/Tools/DAVE IDE/4.5.0.202105191637/eclipse/workspace/LED_test/Libraries/CMSIS/Include\cmsis_gcc.h **** 
 431:D:/Infineon/Tools/DAVE IDE/4.5.0.202105191637/eclipse/workspace/LED_test/Libraries/CMSIS/Include\cmsis_gcc.h **** 
 432:D:/Infineon/Tools/DAVE IDE/4.5.0.202105191637/eclipse/workspace/LED_test/Libraries/CMSIS/Include\cmsis_gcc.h **** /**
 433:D:/Infineon/Tools/DAVE IDE/4.5.0.202105191637/eclipse/workspace/LED_test/Libraries/CMSIS/Include\cmsis_gcc.h ****   \brief   Set Stack Pointer (non-secure)
 434:D:/Infineon/Tools/DAVE IDE/4.5.0.202105191637/eclipse/workspace/LED_test/Libraries/CMSIS/Include\cmsis_gcc.h ****   \details Assigns the given value to the non-secure Stack Pointer (SP) when in secure state.
 435:D:/Infineon/Tools/DAVE IDE/4.5.0.202105191637/eclipse/workspace/LED_test/Libraries/CMSIS/Include\cmsis_gcc.h ****   \param [in]    topOfStack  Stack Pointer value to set
 436:D:/Infineon/Tools/DAVE IDE/4.5.0.202105191637/eclipse/workspace/LED_test/Libraries/CMSIS/Include\cmsis_gcc.h ****  */
 437:D:/Infineon/Tools/DAVE IDE/4.5.0.202105191637/eclipse/workspace/LED_test/Libraries/CMSIS/Include\cmsis_gcc.h **** __STATIC_FORCEINLINE void __TZ_set_SP_NS(uint32_t topOfStack)
 438:D:/Infineon/Tools/DAVE IDE/4.5.0.202105191637/eclipse/workspace/LED_test/Libraries/CMSIS/Include\cmsis_gcc.h **** {
 439:D:/Infineon/Tools/DAVE IDE/4.5.0.202105191637/eclipse/workspace/LED_test/Libraries/CMSIS/Include\cmsis_gcc.h ****   __ASM volatile ("MSR sp_ns, %0" : : "r" (topOfStack) : );
 440:D:/Infineon/Tools/DAVE IDE/4.5.0.202105191637/eclipse/workspace/LED_test/Libraries/CMSIS/Include\cmsis_gcc.h **** }
 441:D:/Infineon/Tools/DAVE IDE/4.5.0.202105191637/eclipse/workspace/LED_test/Libraries/CMSIS/Include\cmsis_gcc.h **** #endif
 442:D:/Infineon/Tools/DAVE IDE/4.5.0.202105191637/eclipse/workspace/LED_test/Libraries/CMSIS/Include\cmsis_gcc.h **** 
 443:D:/Infineon/Tools/DAVE IDE/4.5.0.202105191637/eclipse/workspace/LED_test/Libraries/CMSIS/Include\cmsis_gcc.h **** 
 444:D:/Infineon/Tools/DAVE IDE/4.5.0.202105191637/eclipse/workspace/LED_test/Libraries/CMSIS/Include\cmsis_gcc.h **** /**
 445:D:/Infineon/Tools/DAVE IDE/4.5.0.202105191637/eclipse/workspace/LED_test/Libraries/CMSIS/Include\cmsis_gcc.h ****   \brief   Get Priority Mask
 446:D:/Infineon/Tools/DAVE IDE/4.5.0.202105191637/eclipse/workspace/LED_test/Libraries/CMSIS/Include\cmsis_gcc.h ****   \details Returns the current state of the priority mask bit from the Priority Mask Register.
 447:D:/Infineon/Tools/DAVE IDE/4.5.0.202105191637/eclipse/workspace/LED_test/Libraries/CMSIS/Include\cmsis_gcc.h ****   \return               Priority Mask value
 448:D:/Infineon/Tools/DAVE IDE/4.5.0.202105191637/eclipse/workspace/LED_test/Libraries/CMSIS/Include\cmsis_gcc.h ****  */
 449:D:/Infineon/Tools/DAVE IDE/4.5.0.202105191637/eclipse/workspace/LED_test/Libraries/CMSIS/Include\cmsis_gcc.h **** __STATIC_FORCEINLINE uint32_t __get_PRIMASK(void)
 450:D:/Infineon/Tools/DAVE IDE/4.5.0.202105191637/eclipse/workspace/LED_test/Libraries/CMSIS/Include\cmsis_gcc.h **** {
 451:D:/Infineon/Tools/DAVE IDE/4.5.0.202105191637/eclipse/workspace/LED_test/Libraries/CMSIS/Include\cmsis_gcc.h ****   uint32_t result;
 452:D:/Infineon/Tools/DAVE IDE/4.5.0.202105191637/eclipse/workspace/LED_test/Libraries/CMSIS/Include\cmsis_gcc.h **** 
 453:D:/Infineon/Tools/DAVE IDE/4.5.0.202105191637/eclipse/workspace/LED_test/Libraries/CMSIS/Include\cmsis_gcc.h ****   __ASM volatile ("MRS %0, primask" : "=r" (result) );
 454:D:/Infineon/Tools/DAVE IDE/4.5.0.202105191637/eclipse/workspace/LED_test/Libraries/CMSIS/Include\cmsis_gcc.h ****   return(result);
 455:D:/Infineon/Tools/DAVE IDE/4.5.0.202105191637/eclipse/workspace/LED_test/Libraries/CMSIS/Include\cmsis_gcc.h **** }
 456:D:/Infineon/Tools/DAVE IDE/4.5.0.202105191637/eclipse/workspace/LED_test/Libraries/CMSIS/Include\cmsis_gcc.h **** 
 457:D:/Infineon/Tools/DAVE IDE/4.5.0.202105191637/eclipse/workspace/LED_test/Libraries/CMSIS/Include\cmsis_gcc.h **** 
 458:D:/Infineon/Tools/DAVE IDE/4.5.0.202105191637/eclipse/workspace/LED_test/Libraries/CMSIS/Include\cmsis_gcc.h **** #if (defined (__ARM_FEATURE_CMSE ) && (__ARM_FEATURE_CMSE == 3))
 459:D:/Infineon/Tools/DAVE IDE/4.5.0.202105191637/eclipse/workspace/LED_test/Libraries/CMSIS/Include\cmsis_gcc.h **** /**
 460:D:/Infineon/Tools/DAVE IDE/4.5.0.202105191637/eclipse/workspace/LED_test/Libraries/CMSIS/Include\cmsis_gcc.h ****   \brief   Get Priority Mask (non-secure)
 461:D:/Infineon/Tools/DAVE IDE/4.5.0.202105191637/eclipse/workspace/LED_test/Libraries/CMSIS/Include\cmsis_gcc.h ****   \details Returns the current state of the non-secure priority mask bit from the Priority Mask Reg
 462:D:/Infineon/Tools/DAVE IDE/4.5.0.202105191637/eclipse/workspace/LED_test/Libraries/CMSIS/Include\cmsis_gcc.h ****   \return               Priority Mask value
 463:D:/Infineon/Tools/DAVE IDE/4.5.0.202105191637/eclipse/workspace/LED_test/Libraries/CMSIS/Include\cmsis_gcc.h ****  */
 464:D:/Infineon/Tools/DAVE IDE/4.5.0.202105191637/eclipse/workspace/LED_test/Libraries/CMSIS/Include\cmsis_gcc.h **** __STATIC_FORCEINLINE uint32_t __TZ_get_PRIMASK_NS(void)
 465:D:/Infineon/Tools/DAVE IDE/4.5.0.202105191637/eclipse/workspace/LED_test/Libraries/CMSIS/Include\cmsis_gcc.h **** {
 466:D:/Infineon/Tools/DAVE IDE/4.5.0.202105191637/eclipse/workspace/LED_test/Libraries/CMSIS/Include\cmsis_gcc.h ****   uint32_t result;
 467:D:/Infineon/Tools/DAVE IDE/4.5.0.202105191637/eclipse/workspace/LED_test/Libraries/CMSIS/Include\cmsis_gcc.h **** 
 468:D:/Infineon/Tools/DAVE IDE/4.5.0.202105191637/eclipse/workspace/LED_test/Libraries/CMSIS/Include\cmsis_gcc.h ****   __ASM volatile ("MRS %0, primask_ns" : "=r" (result) );
 469:D:/Infineon/Tools/DAVE IDE/4.5.0.202105191637/eclipse/workspace/LED_test/Libraries/CMSIS/Include\cmsis_gcc.h ****   return(result);
 470:D:/Infineon/Tools/DAVE IDE/4.5.0.202105191637/eclipse/workspace/LED_test/Libraries/CMSIS/Include\cmsis_gcc.h **** }
 471:D:/Infineon/Tools/DAVE IDE/4.5.0.202105191637/eclipse/workspace/LED_test/Libraries/CMSIS/Include\cmsis_gcc.h **** #endif
 472:D:/Infineon/Tools/DAVE IDE/4.5.0.202105191637/eclipse/workspace/LED_test/Libraries/CMSIS/Include\cmsis_gcc.h **** 
 473:D:/Infineon/Tools/DAVE IDE/4.5.0.202105191637/eclipse/workspace/LED_test/Libraries/CMSIS/Include\cmsis_gcc.h **** 
 474:D:/Infineon/Tools/DAVE IDE/4.5.0.202105191637/eclipse/workspace/LED_test/Libraries/CMSIS/Include\cmsis_gcc.h **** /**
 475:D:/Infineon/Tools/DAVE IDE/4.5.0.202105191637/eclipse/workspace/LED_test/Libraries/CMSIS/Include\cmsis_gcc.h ****   \brief   Set Priority Mask
 476:D:/Infineon/Tools/DAVE IDE/4.5.0.202105191637/eclipse/workspace/LED_test/Libraries/CMSIS/Include\cmsis_gcc.h ****   \details Assigns the given value to the Priority Mask Register.
 477:D:/Infineon/Tools/DAVE IDE/4.5.0.202105191637/eclipse/workspace/LED_test/Libraries/CMSIS/Include\cmsis_gcc.h ****   \param [in]    priMask  Priority Mask
 478:D:/Infineon/Tools/DAVE IDE/4.5.0.202105191637/eclipse/workspace/LED_test/Libraries/CMSIS/Include\cmsis_gcc.h ****  */
 479:D:/Infineon/Tools/DAVE IDE/4.5.0.202105191637/eclipse/workspace/LED_test/Libraries/CMSIS/Include\cmsis_gcc.h **** __STATIC_FORCEINLINE void __set_PRIMASK(uint32_t priMask)
 480:D:/Infineon/Tools/DAVE IDE/4.5.0.202105191637/eclipse/workspace/LED_test/Libraries/CMSIS/Include\cmsis_gcc.h **** {
 481:D:/Infineon/Tools/DAVE IDE/4.5.0.202105191637/eclipse/workspace/LED_test/Libraries/CMSIS/Include\cmsis_gcc.h ****   __ASM volatile ("MSR primask, %0" : : "r" (priMask) : "memory");
 482:D:/Infineon/Tools/DAVE IDE/4.5.0.202105191637/eclipse/workspace/LED_test/Libraries/CMSIS/Include\cmsis_gcc.h **** }
 483:D:/Infineon/Tools/DAVE IDE/4.5.0.202105191637/eclipse/workspace/LED_test/Libraries/CMSIS/Include\cmsis_gcc.h **** 
 484:D:/Infineon/Tools/DAVE IDE/4.5.0.202105191637/eclipse/workspace/LED_test/Libraries/CMSIS/Include\cmsis_gcc.h **** 
 485:D:/Infineon/Tools/DAVE IDE/4.5.0.202105191637/eclipse/workspace/LED_test/Libraries/CMSIS/Include\cmsis_gcc.h **** #if (defined (__ARM_FEATURE_CMSE ) && (__ARM_FEATURE_CMSE == 3))
 486:D:/Infineon/Tools/DAVE IDE/4.5.0.202105191637/eclipse/workspace/LED_test/Libraries/CMSIS/Include\cmsis_gcc.h **** /**
 487:D:/Infineon/Tools/DAVE IDE/4.5.0.202105191637/eclipse/workspace/LED_test/Libraries/CMSIS/Include\cmsis_gcc.h ****   \brief   Set Priority Mask (non-secure)
 488:D:/Infineon/Tools/DAVE IDE/4.5.0.202105191637/eclipse/workspace/LED_test/Libraries/CMSIS/Include\cmsis_gcc.h ****   \details Assigns the given value to the non-secure Priority Mask Register when in secure state.
 489:D:/Infineon/Tools/DAVE IDE/4.5.0.202105191637/eclipse/workspace/LED_test/Libraries/CMSIS/Include\cmsis_gcc.h ****   \param [in]    priMask  Priority Mask
 490:D:/Infineon/Tools/DAVE IDE/4.5.0.202105191637/eclipse/workspace/LED_test/Libraries/CMSIS/Include\cmsis_gcc.h ****  */
 491:D:/Infineon/Tools/DAVE IDE/4.5.0.202105191637/eclipse/workspace/LED_test/Libraries/CMSIS/Include\cmsis_gcc.h **** __STATIC_FORCEINLINE void __TZ_set_PRIMASK_NS(uint32_t priMask)
 492:D:/Infineon/Tools/DAVE IDE/4.5.0.202105191637/eclipse/workspace/LED_test/Libraries/CMSIS/Include\cmsis_gcc.h **** {
 493:D:/Infineon/Tools/DAVE IDE/4.5.0.202105191637/eclipse/workspace/LED_test/Libraries/CMSIS/Include\cmsis_gcc.h ****   __ASM volatile ("MSR primask_ns, %0" : : "r" (priMask) : "memory");
 494:D:/Infineon/Tools/DAVE IDE/4.5.0.202105191637/eclipse/workspace/LED_test/Libraries/CMSIS/Include\cmsis_gcc.h **** }
 495:D:/Infineon/Tools/DAVE IDE/4.5.0.202105191637/eclipse/workspace/LED_test/Libraries/CMSIS/Include\cmsis_gcc.h **** #endif
 496:D:/Infineon/Tools/DAVE IDE/4.5.0.202105191637/eclipse/workspace/LED_test/Libraries/CMSIS/Include\cmsis_gcc.h **** 
 497:D:/Infineon/Tools/DAVE IDE/4.5.0.202105191637/eclipse/workspace/LED_test/Libraries/CMSIS/Include\cmsis_gcc.h **** 
 498:D:/Infineon/Tools/DAVE IDE/4.5.0.202105191637/eclipse/workspace/LED_test/Libraries/CMSIS/Include\cmsis_gcc.h **** #if ((defined (__ARM_ARCH_7M__      ) && (__ARM_ARCH_7M__      == 1)) || \
 499:D:/Infineon/Tools/DAVE IDE/4.5.0.202105191637/eclipse/workspace/LED_test/Libraries/CMSIS/Include\cmsis_gcc.h ****      (defined (__ARM_ARCH_7EM__     ) && (__ARM_ARCH_7EM__     == 1)) || \
 500:D:/Infineon/Tools/DAVE IDE/4.5.0.202105191637/eclipse/workspace/LED_test/Libraries/CMSIS/Include\cmsis_gcc.h ****      (defined (__ARM_ARCH_8M_MAIN__ ) && (__ARM_ARCH_8M_MAIN__ == 1))    )
 501:D:/Infineon/Tools/DAVE IDE/4.5.0.202105191637/eclipse/workspace/LED_test/Libraries/CMSIS/Include\cmsis_gcc.h **** /**
 502:D:/Infineon/Tools/DAVE IDE/4.5.0.202105191637/eclipse/workspace/LED_test/Libraries/CMSIS/Include\cmsis_gcc.h ****   \brief   Enable FIQ
 503:D:/Infineon/Tools/DAVE IDE/4.5.0.202105191637/eclipse/workspace/LED_test/Libraries/CMSIS/Include\cmsis_gcc.h ****   \details Enables FIQ interrupts by clearing the F-bit in the CPSR.
 504:D:/Infineon/Tools/DAVE IDE/4.5.0.202105191637/eclipse/workspace/LED_test/Libraries/CMSIS/Include\cmsis_gcc.h ****            Can only be executed in Privileged modes.
 505:D:/Infineon/Tools/DAVE IDE/4.5.0.202105191637/eclipse/workspace/LED_test/Libraries/CMSIS/Include\cmsis_gcc.h ****  */
 506:D:/Infineon/Tools/DAVE IDE/4.5.0.202105191637/eclipse/workspace/LED_test/Libraries/CMSIS/Include\cmsis_gcc.h **** __STATIC_FORCEINLINE void __enable_fault_irq(void)
 507:D:/Infineon/Tools/DAVE IDE/4.5.0.202105191637/eclipse/workspace/LED_test/Libraries/CMSIS/Include\cmsis_gcc.h **** {
 508:D:/Infineon/Tools/DAVE IDE/4.5.0.202105191637/eclipse/workspace/LED_test/Libraries/CMSIS/Include\cmsis_gcc.h ****   __ASM volatile ("cpsie f" : : : "memory");
 509:D:/Infineon/Tools/DAVE IDE/4.5.0.202105191637/eclipse/workspace/LED_test/Libraries/CMSIS/Include\cmsis_gcc.h **** }
 510:D:/Infineon/Tools/DAVE IDE/4.5.0.202105191637/eclipse/workspace/LED_test/Libraries/CMSIS/Include\cmsis_gcc.h **** 
 511:D:/Infineon/Tools/DAVE IDE/4.5.0.202105191637/eclipse/workspace/LED_test/Libraries/CMSIS/Include\cmsis_gcc.h **** 
 512:D:/Infineon/Tools/DAVE IDE/4.5.0.202105191637/eclipse/workspace/LED_test/Libraries/CMSIS/Include\cmsis_gcc.h **** /**
 513:D:/Infineon/Tools/DAVE IDE/4.5.0.202105191637/eclipse/workspace/LED_test/Libraries/CMSIS/Include\cmsis_gcc.h ****   \brief   Disable FIQ
 514:D:/Infineon/Tools/DAVE IDE/4.5.0.202105191637/eclipse/workspace/LED_test/Libraries/CMSIS/Include\cmsis_gcc.h ****   \details Disables FIQ interrupts by setting the F-bit in the CPSR.
 515:D:/Infineon/Tools/DAVE IDE/4.5.0.202105191637/eclipse/workspace/LED_test/Libraries/CMSIS/Include\cmsis_gcc.h ****            Can only be executed in Privileged modes.
 516:D:/Infineon/Tools/DAVE IDE/4.5.0.202105191637/eclipse/workspace/LED_test/Libraries/CMSIS/Include\cmsis_gcc.h ****  */
 517:D:/Infineon/Tools/DAVE IDE/4.5.0.202105191637/eclipse/workspace/LED_test/Libraries/CMSIS/Include\cmsis_gcc.h **** __STATIC_FORCEINLINE void __disable_fault_irq(void)
 518:D:/Infineon/Tools/DAVE IDE/4.5.0.202105191637/eclipse/workspace/LED_test/Libraries/CMSIS/Include\cmsis_gcc.h **** {
 519:D:/Infineon/Tools/DAVE IDE/4.5.0.202105191637/eclipse/workspace/LED_test/Libraries/CMSIS/Include\cmsis_gcc.h ****   __ASM volatile ("cpsid f" : : : "memory");
 520:D:/Infineon/Tools/DAVE IDE/4.5.0.202105191637/eclipse/workspace/LED_test/Libraries/CMSIS/Include\cmsis_gcc.h **** }
 521:D:/Infineon/Tools/DAVE IDE/4.5.0.202105191637/eclipse/workspace/LED_test/Libraries/CMSIS/Include\cmsis_gcc.h **** 
 522:D:/Infineon/Tools/DAVE IDE/4.5.0.202105191637/eclipse/workspace/LED_test/Libraries/CMSIS/Include\cmsis_gcc.h **** 
 523:D:/Infineon/Tools/DAVE IDE/4.5.0.202105191637/eclipse/workspace/LED_test/Libraries/CMSIS/Include\cmsis_gcc.h **** /**
 524:D:/Infineon/Tools/DAVE IDE/4.5.0.202105191637/eclipse/workspace/LED_test/Libraries/CMSIS/Include\cmsis_gcc.h ****   \brief   Get Base Priority
 525:D:/Infineon/Tools/DAVE IDE/4.5.0.202105191637/eclipse/workspace/LED_test/Libraries/CMSIS/Include\cmsis_gcc.h ****   \details Returns the current value of the Base Priority register.
 526:D:/Infineon/Tools/DAVE IDE/4.5.0.202105191637/eclipse/workspace/LED_test/Libraries/CMSIS/Include\cmsis_gcc.h ****   \return               Base Priority register value
 527:D:/Infineon/Tools/DAVE IDE/4.5.0.202105191637/eclipse/workspace/LED_test/Libraries/CMSIS/Include\cmsis_gcc.h ****  */
 528:D:/Infineon/Tools/DAVE IDE/4.5.0.202105191637/eclipse/workspace/LED_test/Libraries/CMSIS/Include\cmsis_gcc.h **** __STATIC_FORCEINLINE uint32_t __get_BASEPRI(void)
 529:D:/Infineon/Tools/DAVE IDE/4.5.0.202105191637/eclipse/workspace/LED_test/Libraries/CMSIS/Include\cmsis_gcc.h **** {
 530:D:/Infineon/Tools/DAVE IDE/4.5.0.202105191637/eclipse/workspace/LED_test/Libraries/CMSIS/Include\cmsis_gcc.h ****   uint32_t result;
 531:D:/Infineon/Tools/DAVE IDE/4.5.0.202105191637/eclipse/workspace/LED_test/Libraries/CMSIS/Include\cmsis_gcc.h **** 
 532:D:/Infineon/Tools/DAVE IDE/4.5.0.202105191637/eclipse/workspace/LED_test/Libraries/CMSIS/Include\cmsis_gcc.h ****   __ASM volatile ("MRS %0, basepri" : "=r" (result) );
 533:D:/Infineon/Tools/DAVE IDE/4.5.0.202105191637/eclipse/workspace/LED_test/Libraries/CMSIS/Include\cmsis_gcc.h ****   return(result);
 534:D:/Infineon/Tools/DAVE IDE/4.5.0.202105191637/eclipse/workspace/LED_test/Libraries/CMSIS/Include\cmsis_gcc.h **** }
 535:D:/Infineon/Tools/DAVE IDE/4.5.0.202105191637/eclipse/workspace/LED_test/Libraries/CMSIS/Include\cmsis_gcc.h **** 
 536:D:/Infineon/Tools/DAVE IDE/4.5.0.202105191637/eclipse/workspace/LED_test/Libraries/CMSIS/Include\cmsis_gcc.h **** 
 537:D:/Infineon/Tools/DAVE IDE/4.5.0.202105191637/eclipse/workspace/LED_test/Libraries/CMSIS/Include\cmsis_gcc.h **** #if (defined (__ARM_FEATURE_CMSE ) && (__ARM_FEATURE_CMSE == 3))
 538:D:/Infineon/Tools/DAVE IDE/4.5.0.202105191637/eclipse/workspace/LED_test/Libraries/CMSIS/Include\cmsis_gcc.h **** /**
 539:D:/Infineon/Tools/DAVE IDE/4.5.0.202105191637/eclipse/workspace/LED_test/Libraries/CMSIS/Include\cmsis_gcc.h ****   \brief   Get Base Priority (non-secure)
 540:D:/Infineon/Tools/DAVE IDE/4.5.0.202105191637/eclipse/workspace/LED_test/Libraries/CMSIS/Include\cmsis_gcc.h ****   \details Returns the current value of the non-secure Base Priority register when in secure state.
 541:D:/Infineon/Tools/DAVE IDE/4.5.0.202105191637/eclipse/workspace/LED_test/Libraries/CMSIS/Include\cmsis_gcc.h ****   \return               Base Priority register value
 542:D:/Infineon/Tools/DAVE IDE/4.5.0.202105191637/eclipse/workspace/LED_test/Libraries/CMSIS/Include\cmsis_gcc.h ****  */
 543:D:/Infineon/Tools/DAVE IDE/4.5.0.202105191637/eclipse/workspace/LED_test/Libraries/CMSIS/Include\cmsis_gcc.h **** __STATIC_FORCEINLINE uint32_t __TZ_get_BASEPRI_NS(void)
 544:D:/Infineon/Tools/DAVE IDE/4.5.0.202105191637/eclipse/workspace/LED_test/Libraries/CMSIS/Include\cmsis_gcc.h **** {
 545:D:/Infineon/Tools/DAVE IDE/4.5.0.202105191637/eclipse/workspace/LED_test/Libraries/CMSIS/Include\cmsis_gcc.h ****   uint32_t result;
 546:D:/Infineon/Tools/DAVE IDE/4.5.0.202105191637/eclipse/workspace/LED_test/Libraries/CMSIS/Include\cmsis_gcc.h **** 
 547:D:/Infineon/Tools/DAVE IDE/4.5.0.202105191637/eclipse/workspace/LED_test/Libraries/CMSIS/Include\cmsis_gcc.h ****   __ASM volatile ("MRS %0, basepri_ns" : "=r" (result) );
 548:D:/Infineon/Tools/DAVE IDE/4.5.0.202105191637/eclipse/workspace/LED_test/Libraries/CMSIS/Include\cmsis_gcc.h ****   return(result);
 549:D:/Infineon/Tools/DAVE IDE/4.5.0.202105191637/eclipse/workspace/LED_test/Libraries/CMSIS/Include\cmsis_gcc.h **** }
 550:D:/Infineon/Tools/DAVE IDE/4.5.0.202105191637/eclipse/workspace/LED_test/Libraries/CMSIS/Include\cmsis_gcc.h **** #endif
 551:D:/Infineon/Tools/DAVE IDE/4.5.0.202105191637/eclipse/workspace/LED_test/Libraries/CMSIS/Include\cmsis_gcc.h **** 
 552:D:/Infineon/Tools/DAVE IDE/4.5.0.202105191637/eclipse/workspace/LED_test/Libraries/CMSIS/Include\cmsis_gcc.h **** 
 553:D:/Infineon/Tools/DAVE IDE/4.5.0.202105191637/eclipse/workspace/LED_test/Libraries/CMSIS/Include\cmsis_gcc.h **** /**
 554:D:/Infineon/Tools/DAVE IDE/4.5.0.202105191637/eclipse/workspace/LED_test/Libraries/CMSIS/Include\cmsis_gcc.h ****   \brief   Set Base Priority
 555:D:/Infineon/Tools/DAVE IDE/4.5.0.202105191637/eclipse/workspace/LED_test/Libraries/CMSIS/Include\cmsis_gcc.h ****   \details Assigns the given value to the Base Priority register.
 556:D:/Infineon/Tools/DAVE IDE/4.5.0.202105191637/eclipse/workspace/LED_test/Libraries/CMSIS/Include\cmsis_gcc.h ****   \param [in]    basePri  Base Priority value to set
 557:D:/Infineon/Tools/DAVE IDE/4.5.0.202105191637/eclipse/workspace/LED_test/Libraries/CMSIS/Include\cmsis_gcc.h ****  */
 558:D:/Infineon/Tools/DAVE IDE/4.5.0.202105191637/eclipse/workspace/LED_test/Libraries/CMSIS/Include\cmsis_gcc.h **** __STATIC_FORCEINLINE void __set_BASEPRI(uint32_t basePri)
 559:D:/Infineon/Tools/DAVE IDE/4.5.0.202105191637/eclipse/workspace/LED_test/Libraries/CMSIS/Include\cmsis_gcc.h **** {
 560:D:/Infineon/Tools/DAVE IDE/4.5.0.202105191637/eclipse/workspace/LED_test/Libraries/CMSIS/Include\cmsis_gcc.h ****   __ASM volatile ("MSR basepri, %0" : : "r" (basePri) : "memory");
 561:D:/Infineon/Tools/DAVE IDE/4.5.0.202105191637/eclipse/workspace/LED_test/Libraries/CMSIS/Include\cmsis_gcc.h **** }
 562:D:/Infineon/Tools/DAVE IDE/4.5.0.202105191637/eclipse/workspace/LED_test/Libraries/CMSIS/Include\cmsis_gcc.h **** 
 563:D:/Infineon/Tools/DAVE IDE/4.5.0.202105191637/eclipse/workspace/LED_test/Libraries/CMSIS/Include\cmsis_gcc.h **** 
 564:D:/Infineon/Tools/DAVE IDE/4.5.0.202105191637/eclipse/workspace/LED_test/Libraries/CMSIS/Include\cmsis_gcc.h **** #if (defined (__ARM_FEATURE_CMSE ) && (__ARM_FEATURE_CMSE == 3))
 565:D:/Infineon/Tools/DAVE IDE/4.5.0.202105191637/eclipse/workspace/LED_test/Libraries/CMSIS/Include\cmsis_gcc.h **** /**
 566:D:/Infineon/Tools/DAVE IDE/4.5.0.202105191637/eclipse/workspace/LED_test/Libraries/CMSIS/Include\cmsis_gcc.h ****   \brief   Set Base Priority (non-secure)
 567:D:/Infineon/Tools/DAVE IDE/4.5.0.202105191637/eclipse/workspace/LED_test/Libraries/CMSIS/Include\cmsis_gcc.h ****   \details Assigns the given value to the non-secure Base Priority register when in secure state.
 568:D:/Infineon/Tools/DAVE IDE/4.5.0.202105191637/eclipse/workspace/LED_test/Libraries/CMSIS/Include\cmsis_gcc.h ****   \param [in]    basePri  Base Priority value to set
 569:D:/Infineon/Tools/DAVE IDE/4.5.0.202105191637/eclipse/workspace/LED_test/Libraries/CMSIS/Include\cmsis_gcc.h ****  */
 570:D:/Infineon/Tools/DAVE IDE/4.5.0.202105191637/eclipse/workspace/LED_test/Libraries/CMSIS/Include\cmsis_gcc.h **** __STATIC_FORCEINLINE void __TZ_set_BASEPRI_NS(uint32_t basePri)
 571:D:/Infineon/Tools/DAVE IDE/4.5.0.202105191637/eclipse/workspace/LED_test/Libraries/CMSIS/Include\cmsis_gcc.h **** {
 572:D:/Infineon/Tools/DAVE IDE/4.5.0.202105191637/eclipse/workspace/LED_test/Libraries/CMSIS/Include\cmsis_gcc.h ****   __ASM volatile ("MSR basepri_ns, %0" : : "r" (basePri) : "memory");
 573:D:/Infineon/Tools/DAVE IDE/4.5.0.202105191637/eclipse/workspace/LED_test/Libraries/CMSIS/Include\cmsis_gcc.h **** }
 574:D:/Infineon/Tools/DAVE IDE/4.5.0.202105191637/eclipse/workspace/LED_test/Libraries/CMSIS/Include\cmsis_gcc.h **** #endif
 575:D:/Infineon/Tools/DAVE IDE/4.5.0.202105191637/eclipse/workspace/LED_test/Libraries/CMSIS/Include\cmsis_gcc.h **** 
 576:D:/Infineon/Tools/DAVE IDE/4.5.0.202105191637/eclipse/workspace/LED_test/Libraries/CMSIS/Include\cmsis_gcc.h **** 
 577:D:/Infineon/Tools/DAVE IDE/4.5.0.202105191637/eclipse/workspace/LED_test/Libraries/CMSIS/Include\cmsis_gcc.h **** /**
 578:D:/Infineon/Tools/DAVE IDE/4.5.0.202105191637/eclipse/workspace/LED_test/Libraries/CMSIS/Include\cmsis_gcc.h ****   \brief   Set Base Priority with condition
 579:D:/Infineon/Tools/DAVE IDE/4.5.0.202105191637/eclipse/workspace/LED_test/Libraries/CMSIS/Include\cmsis_gcc.h ****   \details Assigns the given value to the Base Priority register only if BASEPRI masking is disable
 580:D:/Infineon/Tools/DAVE IDE/4.5.0.202105191637/eclipse/workspace/LED_test/Libraries/CMSIS/Include\cmsis_gcc.h ****            or the new value increases the BASEPRI priority level.
 581:D:/Infineon/Tools/DAVE IDE/4.5.0.202105191637/eclipse/workspace/LED_test/Libraries/CMSIS/Include\cmsis_gcc.h ****   \param [in]    basePri  Base Priority value to set
 582:D:/Infineon/Tools/DAVE IDE/4.5.0.202105191637/eclipse/workspace/LED_test/Libraries/CMSIS/Include\cmsis_gcc.h ****  */
 583:D:/Infineon/Tools/DAVE IDE/4.5.0.202105191637/eclipse/workspace/LED_test/Libraries/CMSIS/Include\cmsis_gcc.h **** __STATIC_FORCEINLINE void __set_BASEPRI_MAX(uint32_t basePri)
 584:D:/Infineon/Tools/DAVE IDE/4.5.0.202105191637/eclipse/workspace/LED_test/Libraries/CMSIS/Include\cmsis_gcc.h **** {
 585:D:/Infineon/Tools/DAVE IDE/4.5.0.202105191637/eclipse/workspace/LED_test/Libraries/CMSIS/Include\cmsis_gcc.h ****   __ASM volatile ("MSR basepri_max, %0" : : "r" (basePri) : "memory");
 586:D:/Infineon/Tools/DAVE IDE/4.5.0.202105191637/eclipse/workspace/LED_test/Libraries/CMSIS/Include\cmsis_gcc.h **** }
 587:D:/Infineon/Tools/DAVE IDE/4.5.0.202105191637/eclipse/workspace/LED_test/Libraries/CMSIS/Include\cmsis_gcc.h **** 
 588:D:/Infineon/Tools/DAVE IDE/4.5.0.202105191637/eclipse/workspace/LED_test/Libraries/CMSIS/Include\cmsis_gcc.h **** 
 589:D:/Infineon/Tools/DAVE IDE/4.5.0.202105191637/eclipse/workspace/LED_test/Libraries/CMSIS/Include\cmsis_gcc.h **** /**
 590:D:/Infineon/Tools/DAVE IDE/4.5.0.202105191637/eclipse/workspace/LED_test/Libraries/CMSIS/Include\cmsis_gcc.h ****   \brief   Get Fault Mask
 591:D:/Infineon/Tools/DAVE IDE/4.5.0.202105191637/eclipse/workspace/LED_test/Libraries/CMSIS/Include\cmsis_gcc.h ****   \details Returns the current value of the Fault Mask register.
 592:D:/Infineon/Tools/DAVE IDE/4.5.0.202105191637/eclipse/workspace/LED_test/Libraries/CMSIS/Include\cmsis_gcc.h ****   \return               Fault Mask register value
 593:D:/Infineon/Tools/DAVE IDE/4.5.0.202105191637/eclipse/workspace/LED_test/Libraries/CMSIS/Include\cmsis_gcc.h ****  */
 594:D:/Infineon/Tools/DAVE IDE/4.5.0.202105191637/eclipse/workspace/LED_test/Libraries/CMSIS/Include\cmsis_gcc.h **** __STATIC_FORCEINLINE uint32_t __get_FAULTMASK(void)
 595:D:/Infineon/Tools/DAVE IDE/4.5.0.202105191637/eclipse/workspace/LED_test/Libraries/CMSIS/Include\cmsis_gcc.h **** {
 596:D:/Infineon/Tools/DAVE IDE/4.5.0.202105191637/eclipse/workspace/LED_test/Libraries/CMSIS/Include\cmsis_gcc.h ****   uint32_t result;
 597:D:/Infineon/Tools/DAVE IDE/4.5.0.202105191637/eclipse/workspace/LED_test/Libraries/CMSIS/Include\cmsis_gcc.h **** 
 598:D:/Infineon/Tools/DAVE IDE/4.5.0.202105191637/eclipse/workspace/LED_test/Libraries/CMSIS/Include\cmsis_gcc.h ****   __ASM volatile ("MRS %0, faultmask" : "=r" (result) );
 599:D:/Infineon/Tools/DAVE IDE/4.5.0.202105191637/eclipse/workspace/LED_test/Libraries/CMSIS/Include\cmsis_gcc.h ****   return(result);
 600:D:/Infineon/Tools/DAVE IDE/4.5.0.202105191637/eclipse/workspace/LED_test/Libraries/CMSIS/Include\cmsis_gcc.h **** }
 601:D:/Infineon/Tools/DAVE IDE/4.5.0.202105191637/eclipse/workspace/LED_test/Libraries/CMSIS/Include\cmsis_gcc.h **** 
 602:D:/Infineon/Tools/DAVE IDE/4.5.0.202105191637/eclipse/workspace/LED_test/Libraries/CMSIS/Include\cmsis_gcc.h **** 
 603:D:/Infineon/Tools/DAVE IDE/4.5.0.202105191637/eclipse/workspace/LED_test/Libraries/CMSIS/Include\cmsis_gcc.h **** #if (defined (__ARM_FEATURE_CMSE ) && (__ARM_FEATURE_CMSE == 3))
 604:D:/Infineon/Tools/DAVE IDE/4.5.0.202105191637/eclipse/workspace/LED_test/Libraries/CMSIS/Include\cmsis_gcc.h **** /**
 605:D:/Infineon/Tools/DAVE IDE/4.5.0.202105191637/eclipse/workspace/LED_test/Libraries/CMSIS/Include\cmsis_gcc.h ****   \brief   Get Fault Mask (non-secure)
 606:D:/Infineon/Tools/DAVE IDE/4.5.0.202105191637/eclipse/workspace/LED_test/Libraries/CMSIS/Include\cmsis_gcc.h ****   \details Returns the current value of the non-secure Fault Mask register when in secure state.
 607:D:/Infineon/Tools/DAVE IDE/4.5.0.202105191637/eclipse/workspace/LED_test/Libraries/CMSIS/Include\cmsis_gcc.h ****   \return               Fault Mask register value
 608:D:/Infineon/Tools/DAVE IDE/4.5.0.202105191637/eclipse/workspace/LED_test/Libraries/CMSIS/Include\cmsis_gcc.h ****  */
 609:D:/Infineon/Tools/DAVE IDE/4.5.0.202105191637/eclipse/workspace/LED_test/Libraries/CMSIS/Include\cmsis_gcc.h **** __STATIC_FORCEINLINE uint32_t __TZ_get_FAULTMASK_NS(void)
 610:D:/Infineon/Tools/DAVE IDE/4.5.0.202105191637/eclipse/workspace/LED_test/Libraries/CMSIS/Include\cmsis_gcc.h **** {
 611:D:/Infineon/Tools/DAVE IDE/4.5.0.202105191637/eclipse/workspace/LED_test/Libraries/CMSIS/Include\cmsis_gcc.h ****   uint32_t result;
 612:D:/Infineon/Tools/DAVE IDE/4.5.0.202105191637/eclipse/workspace/LED_test/Libraries/CMSIS/Include\cmsis_gcc.h **** 
 613:D:/Infineon/Tools/DAVE IDE/4.5.0.202105191637/eclipse/workspace/LED_test/Libraries/CMSIS/Include\cmsis_gcc.h ****   __ASM volatile ("MRS %0, faultmask_ns" : "=r" (result) );
 614:D:/Infineon/Tools/DAVE IDE/4.5.0.202105191637/eclipse/workspace/LED_test/Libraries/CMSIS/Include\cmsis_gcc.h ****   return(result);
 615:D:/Infineon/Tools/DAVE IDE/4.5.0.202105191637/eclipse/workspace/LED_test/Libraries/CMSIS/Include\cmsis_gcc.h **** }
 616:D:/Infineon/Tools/DAVE IDE/4.5.0.202105191637/eclipse/workspace/LED_test/Libraries/CMSIS/Include\cmsis_gcc.h **** #endif
 617:D:/Infineon/Tools/DAVE IDE/4.5.0.202105191637/eclipse/workspace/LED_test/Libraries/CMSIS/Include\cmsis_gcc.h **** 
 618:D:/Infineon/Tools/DAVE IDE/4.5.0.202105191637/eclipse/workspace/LED_test/Libraries/CMSIS/Include\cmsis_gcc.h **** 
 619:D:/Infineon/Tools/DAVE IDE/4.5.0.202105191637/eclipse/workspace/LED_test/Libraries/CMSIS/Include\cmsis_gcc.h **** /**
 620:D:/Infineon/Tools/DAVE IDE/4.5.0.202105191637/eclipse/workspace/LED_test/Libraries/CMSIS/Include\cmsis_gcc.h ****   \brief   Set Fault Mask
 621:D:/Infineon/Tools/DAVE IDE/4.5.0.202105191637/eclipse/workspace/LED_test/Libraries/CMSIS/Include\cmsis_gcc.h ****   \details Assigns the given value to the Fault Mask register.
 622:D:/Infineon/Tools/DAVE IDE/4.5.0.202105191637/eclipse/workspace/LED_test/Libraries/CMSIS/Include\cmsis_gcc.h ****   \param [in]    faultMask  Fault Mask value to set
 623:D:/Infineon/Tools/DAVE IDE/4.5.0.202105191637/eclipse/workspace/LED_test/Libraries/CMSIS/Include\cmsis_gcc.h ****  */
 624:D:/Infineon/Tools/DAVE IDE/4.5.0.202105191637/eclipse/workspace/LED_test/Libraries/CMSIS/Include\cmsis_gcc.h **** __STATIC_FORCEINLINE void __set_FAULTMASK(uint32_t faultMask)
 625:D:/Infineon/Tools/DAVE IDE/4.5.0.202105191637/eclipse/workspace/LED_test/Libraries/CMSIS/Include\cmsis_gcc.h **** {
 626:D:/Infineon/Tools/DAVE IDE/4.5.0.202105191637/eclipse/workspace/LED_test/Libraries/CMSIS/Include\cmsis_gcc.h ****   __ASM volatile ("MSR faultmask, %0" : : "r" (faultMask) : "memory");
 627:D:/Infineon/Tools/DAVE IDE/4.5.0.202105191637/eclipse/workspace/LED_test/Libraries/CMSIS/Include\cmsis_gcc.h **** }
 628:D:/Infineon/Tools/DAVE IDE/4.5.0.202105191637/eclipse/workspace/LED_test/Libraries/CMSIS/Include\cmsis_gcc.h **** 
 629:D:/Infineon/Tools/DAVE IDE/4.5.0.202105191637/eclipse/workspace/LED_test/Libraries/CMSIS/Include\cmsis_gcc.h **** 
 630:D:/Infineon/Tools/DAVE IDE/4.5.0.202105191637/eclipse/workspace/LED_test/Libraries/CMSIS/Include\cmsis_gcc.h **** #if (defined (__ARM_FEATURE_CMSE ) && (__ARM_FEATURE_CMSE == 3))
 631:D:/Infineon/Tools/DAVE IDE/4.5.0.202105191637/eclipse/workspace/LED_test/Libraries/CMSIS/Include\cmsis_gcc.h **** /**
 632:D:/Infineon/Tools/DAVE IDE/4.5.0.202105191637/eclipse/workspace/LED_test/Libraries/CMSIS/Include\cmsis_gcc.h ****   \brief   Set Fault Mask (non-secure)
 633:D:/Infineon/Tools/DAVE IDE/4.5.0.202105191637/eclipse/workspace/LED_test/Libraries/CMSIS/Include\cmsis_gcc.h ****   \details Assigns the given value to the non-secure Fault Mask register when in secure state.
 634:D:/Infineon/Tools/DAVE IDE/4.5.0.202105191637/eclipse/workspace/LED_test/Libraries/CMSIS/Include\cmsis_gcc.h ****   \param [in]    faultMask  Fault Mask value to set
 635:D:/Infineon/Tools/DAVE IDE/4.5.0.202105191637/eclipse/workspace/LED_test/Libraries/CMSIS/Include\cmsis_gcc.h ****  */
 636:D:/Infineon/Tools/DAVE IDE/4.5.0.202105191637/eclipse/workspace/LED_test/Libraries/CMSIS/Include\cmsis_gcc.h **** __STATIC_FORCEINLINE void __TZ_set_FAULTMASK_NS(uint32_t faultMask)
 637:D:/Infineon/Tools/DAVE IDE/4.5.0.202105191637/eclipse/workspace/LED_test/Libraries/CMSIS/Include\cmsis_gcc.h **** {
 638:D:/Infineon/Tools/DAVE IDE/4.5.0.202105191637/eclipse/workspace/LED_test/Libraries/CMSIS/Include\cmsis_gcc.h ****   __ASM volatile ("MSR faultmask_ns, %0" : : "r" (faultMask) : "memory");
 639:D:/Infineon/Tools/DAVE IDE/4.5.0.202105191637/eclipse/workspace/LED_test/Libraries/CMSIS/Include\cmsis_gcc.h **** }
 640:D:/Infineon/Tools/DAVE IDE/4.5.0.202105191637/eclipse/workspace/LED_test/Libraries/CMSIS/Include\cmsis_gcc.h **** #endif
 641:D:/Infineon/Tools/DAVE IDE/4.5.0.202105191637/eclipse/workspace/LED_test/Libraries/CMSIS/Include\cmsis_gcc.h **** 
 642:D:/Infineon/Tools/DAVE IDE/4.5.0.202105191637/eclipse/workspace/LED_test/Libraries/CMSIS/Include\cmsis_gcc.h **** #endif /* ((defined (__ARM_ARCH_7M__      ) && (__ARM_ARCH_7M__      == 1)) || \
 643:D:/Infineon/Tools/DAVE IDE/4.5.0.202105191637/eclipse/workspace/LED_test/Libraries/CMSIS/Include\cmsis_gcc.h ****            (defined (__ARM_ARCH_7EM__     ) && (__ARM_ARCH_7EM__     == 1)) || \
 644:D:/Infineon/Tools/DAVE IDE/4.5.0.202105191637/eclipse/workspace/LED_test/Libraries/CMSIS/Include\cmsis_gcc.h ****            (defined (__ARM_ARCH_8M_MAIN__ ) && (__ARM_ARCH_8M_MAIN__ == 1))    ) */
 645:D:/Infineon/Tools/DAVE IDE/4.5.0.202105191637/eclipse/workspace/LED_test/Libraries/CMSIS/Include\cmsis_gcc.h **** 
 646:D:/Infineon/Tools/DAVE IDE/4.5.0.202105191637/eclipse/workspace/LED_test/Libraries/CMSIS/Include\cmsis_gcc.h **** 
 647:D:/Infineon/Tools/DAVE IDE/4.5.0.202105191637/eclipse/workspace/LED_test/Libraries/CMSIS/Include\cmsis_gcc.h **** #if ((defined (__ARM_ARCH_8M_MAIN__ ) && (__ARM_ARCH_8M_MAIN__ == 1)) || \
 648:D:/Infineon/Tools/DAVE IDE/4.5.0.202105191637/eclipse/workspace/LED_test/Libraries/CMSIS/Include\cmsis_gcc.h ****      (defined (__ARM_ARCH_8M_BASE__ ) && (__ARM_ARCH_8M_BASE__ == 1))    )
 649:D:/Infineon/Tools/DAVE IDE/4.5.0.202105191637/eclipse/workspace/LED_test/Libraries/CMSIS/Include\cmsis_gcc.h **** 
 650:D:/Infineon/Tools/DAVE IDE/4.5.0.202105191637/eclipse/workspace/LED_test/Libraries/CMSIS/Include\cmsis_gcc.h **** /**
 651:D:/Infineon/Tools/DAVE IDE/4.5.0.202105191637/eclipse/workspace/LED_test/Libraries/CMSIS/Include\cmsis_gcc.h ****   \brief   Get Process Stack Pointer Limit
 652:D:/Infineon/Tools/DAVE IDE/4.5.0.202105191637/eclipse/workspace/LED_test/Libraries/CMSIS/Include\cmsis_gcc.h ****   Devices without ARMv8-M Main Extensions (i.e. Cortex-M23) lack the non-secure
 653:D:/Infineon/Tools/DAVE IDE/4.5.0.202105191637/eclipse/workspace/LED_test/Libraries/CMSIS/Include\cmsis_gcc.h ****   Stack Pointer Limit register hence zero is returned always in non-secure
 654:D:/Infineon/Tools/DAVE IDE/4.5.0.202105191637/eclipse/workspace/LED_test/Libraries/CMSIS/Include\cmsis_gcc.h ****   mode.
 655:D:/Infineon/Tools/DAVE IDE/4.5.0.202105191637/eclipse/workspace/LED_test/Libraries/CMSIS/Include\cmsis_gcc.h ****   
 656:D:/Infineon/Tools/DAVE IDE/4.5.0.202105191637/eclipse/workspace/LED_test/Libraries/CMSIS/Include\cmsis_gcc.h ****   \details Returns the current value of the Process Stack Pointer Limit (PSPLIM).
 657:D:/Infineon/Tools/DAVE IDE/4.5.0.202105191637/eclipse/workspace/LED_test/Libraries/CMSIS/Include\cmsis_gcc.h ****   \return               PSPLIM Register value
 658:D:/Infineon/Tools/DAVE IDE/4.5.0.202105191637/eclipse/workspace/LED_test/Libraries/CMSIS/Include\cmsis_gcc.h ****  */
 659:D:/Infineon/Tools/DAVE IDE/4.5.0.202105191637/eclipse/workspace/LED_test/Libraries/CMSIS/Include\cmsis_gcc.h **** __STATIC_FORCEINLINE uint32_t __get_PSPLIM(void)
 660:D:/Infineon/Tools/DAVE IDE/4.5.0.202105191637/eclipse/workspace/LED_test/Libraries/CMSIS/Include\cmsis_gcc.h **** {
 661:D:/Infineon/Tools/DAVE IDE/4.5.0.202105191637/eclipse/workspace/LED_test/Libraries/CMSIS/Include\cmsis_gcc.h **** #if (!(defined (__ARM_ARCH_8M_MAIN__ ) && (__ARM_ARCH_8M_MAIN__ == 1)) && \
 662:D:/Infineon/Tools/DAVE IDE/4.5.0.202105191637/eclipse/workspace/LED_test/Libraries/CMSIS/Include\cmsis_gcc.h ****     (!defined (__ARM_FEATURE_CMSE) || (__ARM_FEATURE_CMSE < 3)))
 663:D:/Infineon/Tools/DAVE IDE/4.5.0.202105191637/eclipse/workspace/LED_test/Libraries/CMSIS/Include\cmsis_gcc.h ****     // without main extensions, the non-secure PSPLIM is RAZ/WI
 664:D:/Infineon/Tools/DAVE IDE/4.5.0.202105191637/eclipse/workspace/LED_test/Libraries/CMSIS/Include\cmsis_gcc.h ****   return 0U;
 665:D:/Infineon/Tools/DAVE IDE/4.5.0.202105191637/eclipse/workspace/LED_test/Libraries/CMSIS/Include\cmsis_gcc.h **** #else
 666:D:/Infineon/Tools/DAVE IDE/4.5.0.202105191637/eclipse/workspace/LED_test/Libraries/CMSIS/Include\cmsis_gcc.h ****   uint32_t result;
 667:D:/Infineon/Tools/DAVE IDE/4.5.0.202105191637/eclipse/workspace/LED_test/Libraries/CMSIS/Include\cmsis_gcc.h ****   __ASM volatile ("MRS %0, psplim"  : "=r" (result) );
 668:D:/Infineon/Tools/DAVE IDE/4.5.0.202105191637/eclipse/workspace/LED_test/Libraries/CMSIS/Include\cmsis_gcc.h ****   return result;
 669:D:/Infineon/Tools/DAVE IDE/4.5.0.202105191637/eclipse/workspace/LED_test/Libraries/CMSIS/Include\cmsis_gcc.h **** #endif
 670:D:/Infineon/Tools/DAVE IDE/4.5.0.202105191637/eclipse/workspace/LED_test/Libraries/CMSIS/Include\cmsis_gcc.h **** }
 671:D:/Infineon/Tools/DAVE IDE/4.5.0.202105191637/eclipse/workspace/LED_test/Libraries/CMSIS/Include\cmsis_gcc.h **** 
 672:D:/Infineon/Tools/DAVE IDE/4.5.0.202105191637/eclipse/workspace/LED_test/Libraries/CMSIS/Include\cmsis_gcc.h **** #if (defined (__ARM_FEATURE_CMSE) && (__ARM_FEATURE_CMSE == 3))
 673:D:/Infineon/Tools/DAVE IDE/4.5.0.202105191637/eclipse/workspace/LED_test/Libraries/CMSIS/Include\cmsis_gcc.h **** /**
 674:D:/Infineon/Tools/DAVE IDE/4.5.0.202105191637/eclipse/workspace/LED_test/Libraries/CMSIS/Include\cmsis_gcc.h ****   \brief   Get Process Stack Pointer Limit (non-secure)
 675:D:/Infineon/Tools/DAVE IDE/4.5.0.202105191637/eclipse/workspace/LED_test/Libraries/CMSIS/Include\cmsis_gcc.h ****   Devices without ARMv8-M Main Extensions (i.e. Cortex-M23) lack the non-secure
 676:D:/Infineon/Tools/DAVE IDE/4.5.0.202105191637/eclipse/workspace/LED_test/Libraries/CMSIS/Include\cmsis_gcc.h ****   Stack Pointer Limit register hence zero is returned always.
 677:D:/Infineon/Tools/DAVE IDE/4.5.0.202105191637/eclipse/workspace/LED_test/Libraries/CMSIS/Include\cmsis_gcc.h **** 
 678:D:/Infineon/Tools/DAVE IDE/4.5.0.202105191637/eclipse/workspace/LED_test/Libraries/CMSIS/Include\cmsis_gcc.h ****   \details Returns the current value of the non-secure Process Stack Pointer Limit (PSPLIM) when in
 679:D:/Infineon/Tools/DAVE IDE/4.5.0.202105191637/eclipse/workspace/LED_test/Libraries/CMSIS/Include\cmsis_gcc.h ****   \return               PSPLIM Register value
 680:D:/Infineon/Tools/DAVE IDE/4.5.0.202105191637/eclipse/workspace/LED_test/Libraries/CMSIS/Include\cmsis_gcc.h ****  */
 681:D:/Infineon/Tools/DAVE IDE/4.5.0.202105191637/eclipse/workspace/LED_test/Libraries/CMSIS/Include\cmsis_gcc.h **** __STATIC_FORCEINLINE uint32_t __TZ_get_PSPLIM_NS(void)
 682:D:/Infineon/Tools/DAVE IDE/4.5.0.202105191637/eclipse/workspace/LED_test/Libraries/CMSIS/Include\cmsis_gcc.h **** {
 683:D:/Infineon/Tools/DAVE IDE/4.5.0.202105191637/eclipse/workspace/LED_test/Libraries/CMSIS/Include\cmsis_gcc.h **** #if (!(defined (__ARM_ARCH_8M_MAIN__ ) && (__ARM_ARCH_8M_MAIN__ == 1)))
 684:D:/Infineon/Tools/DAVE IDE/4.5.0.202105191637/eclipse/workspace/LED_test/Libraries/CMSIS/Include\cmsis_gcc.h ****   // without main extensions, the non-secure PSPLIM is RAZ/WI
 685:D:/Infineon/Tools/DAVE IDE/4.5.0.202105191637/eclipse/workspace/LED_test/Libraries/CMSIS/Include\cmsis_gcc.h ****   return 0U;
 686:D:/Infineon/Tools/DAVE IDE/4.5.0.202105191637/eclipse/workspace/LED_test/Libraries/CMSIS/Include\cmsis_gcc.h **** #else
 687:D:/Infineon/Tools/DAVE IDE/4.5.0.202105191637/eclipse/workspace/LED_test/Libraries/CMSIS/Include\cmsis_gcc.h ****   uint32_t result;
 688:D:/Infineon/Tools/DAVE IDE/4.5.0.202105191637/eclipse/workspace/LED_test/Libraries/CMSIS/Include\cmsis_gcc.h ****   __ASM volatile ("MRS %0, psplim_ns"  : "=r" (result) );
 689:D:/Infineon/Tools/DAVE IDE/4.5.0.202105191637/eclipse/workspace/LED_test/Libraries/CMSIS/Include\cmsis_gcc.h ****   return result;
 690:D:/Infineon/Tools/DAVE IDE/4.5.0.202105191637/eclipse/workspace/LED_test/Libraries/CMSIS/Include\cmsis_gcc.h **** #endif
 691:D:/Infineon/Tools/DAVE IDE/4.5.0.202105191637/eclipse/workspace/LED_test/Libraries/CMSIS/Include\cmsis_gcc.h **** }
 692:D:/Infineon/Tools/DAVE IDE/4.5.0.202105191637/eclipse/workspace/LED_test/Libraries/CMSIS/Include\cmsis_gcc.h **** #endif
 693:D:/Infineon/Tools/DAVE IDE/4.5.0.202105191637/eclipse/workspace/LED_test/Libraries/CMSIS/Include\cmsis_gcc.h **** 
 694:D:/Infineon/Tools/DAVE IDE/4.5.0.202105191637/eclipse/workspace/LED_test/Libraries/CMSIS/Include\cmsis_gcc.h **** 
 695:D:/Infineon/Tools/DAVE IDE/4.5.0.202105191637/eclipse/workspace/LED_test/Libraries/CMSIS/Include\cmsis_gcc.h **** /**
 696:D:/Infineon/Tools/DAVE IDE/4.5.0.202105191637/eclipse/workspace/LED_test/Libraries/CMSIS/Include\cmsis_gcc.h ****   \brief   Set Process Stack Pointer Limit
 697:D:/Infineon/Tools/DAVE IDE/4.5.0.202105191637/eclipse/workspace/LED_test/Libraries/CMSIS/Include\cmsis_gcc.h ****   Devices without ARMv8-M Main Extensions (i.e. Cortex-M23) lack the non-secure
 698:D:/Infineon/Tools/DAVE IDE/4.5.0.202105191637/eclipse/workspace/LED_test/Libraries/CMSIS/Include\cmsis_gcc.h ****   Stack Pointer Limit register hence the write is silently ignored in non-secure
 699:D:/Infineon/Tools/DAVE IDE/4.5.0.202105191637/eclipse/workspace/LED_test/Libraries/CMSIS/Include\cmsis_gcc.h ****   mode.
 700:D:/Infineon/Tools/DAVE IDE/4.5.0.202105191637/eclipse/workspace/LED_test/Libraries/CMSIS/Include\cmsis_gcc.h ****   
 701:D:/Infineon/Tools/DAVE IDE/4.5.0.202105191637/eclipse/workspace/LED_test/Libraries/CMSIS/Include\cmsis_gcc.h ****   \details Assigns the given value to the Process Stack Pointer Limit (PSPLIM).
 702:D:/Infineon/Tools/DAVE IDE/4.5.0.202105191637/eclipse/workspace/LED_test/Libraries/CMSIS/Include\cmsis_gcc.h ****   \param [in]    ProcStackPtrLimit  Process Stack Pointer Limit value to set
 703:D:/Infineon/Tools/DAVE IDE/4.5.0.202105191637/eclipse/workspace/LED_test/Libraries/CMSIS/Include\cmsis_gcc.h ****  */
 704:D:/Infineon/Tools/DAVE IDE/4.5.0.202105191637/eclipse/workspace/LED_test/Libraries/CMSIS/Include\cmsis_gcc.h **** __STATIC_FORCEINLINE void __set_PSPLIM(uint32_t ProcStackPtrLimit)
 705:D:/Infineon/Tools/DAVE IDE/4.5.0.202105191637/eclipse/workspace/LED_test/Libraries/CMSIS/Include\cmsis_gcc.h **** {
 706:D:/Infineon/Tools/DAVE IDE/4.5.0.202105191637/eclipse/workspace/LED_test/Libraries/CMSIS/Include\cmsis_gcc.h **** #if (!(defined (__ARM_ARCH_8M_MAIN__ ) && (__ARM_ARCH_8M_MAIN__ == 1)) && \
 707:D:/Infineon/Tools/DAVE IDE/4.5.0.202105191637/eclipse/workspace/LED_test/Libraries/CMSIS/Include\cmsis_gcc.h ****     (!defined (__ARM_FEATURE_CMSE) || (__ARM_FEATURE_CMSE < 3)))
 708:D:/Infineon/Tools/DAVE IDE/4.5.0.202105191637/eclipse/workspace/LED_test/Libraries/CMSIS/Include\cmsis_gcc.h ****   // without main extensions, the non-secure PSPLIM is RAZ/WI
 709:D:/Infineon/Tools/DAVE IDE/4.5.0.202105191637/eclipse/workspace/LED_test/Libraries/CMSIS/Include\cmsis_gcc.h ****   (void)ProcStackPtrLimit;
 710:D:/Infineon/Tools/DAVE IDE/4.5.0.202105191637/eclipse/workspace/LED_test/Libraries/CMSIS/Include\cmsis_gcc.h **** #else
 711:D:/Infineon/Tools/DAVE IDE/4.5.0.202105191637/eclipse/workspace/LED_test/Libraries/CMSIS/Include\cmsis_gcc.h ****   __ASM volatile ("MSR psplim, %0" : : "r" (ProcStackPtrLimit));
 712:D:/Infineon/Tools/DAVE IDE/4.5.0.202105191637/eclipse/workspace/LED_test/Libraries/CMSIS/Include\cmsis_gcc.h **** #endif
 713:D:/Infineon/Tools/DAVE IDE/4.5.0.202105191637/eclipse/workspace/LED_test/Libraries/CMSIS/Include\cmsis_gcc.h **** }
 714:D:/Infineon/Tools/DAVE IDE/4.5.0.202105191637/eclipse/workspace/LED_test/Libraries/CMSIS/Include\cmsis_gcc.h **** 
 715:D:/Infineon/Tools/DAVE IDE/4.5.0.202105191637/eclipse/workspace/LED_test/Libraries/CMSIS/Include\cmsis_gcc.h **** 
 716:D:/Infineon/Tools/DAVE IDE/4.5.0.202105191637/eclipse/workspace/LED_test/Libraries/CMSIS/Include\cmsis_gcc.h **** #if (defined (__ARM_FEATURE_CMSE  ) && (__ARM_FEATURE_CMSE   == 3))
 717:D:/Infineon/Tools/DAVE IDE/4.5.0.202105191637/eclipse/workspace/LED_test/Libraries/CMSIS/Include\cmsis_gcc.h **** /**
 718:D:/Infineon/Tools/DAVE IDE/4.5.0.202105191637/eclipse/workspace/LED_test/Libraries/CMSIS/Include\cmsis_gcc.h ****   \brief   Set Process Stack Pointer (non-secure)
 719:D:/Infineon/Tools/DAVE IDE/4.5.0.202105191637/eclipse/workspace/LED_test/Libraries/CMSIS/Include\cmsis_gcc.h ****   Devices without ARMv8-M Main Extensions (i.e. Cortex-M23) lack the non-secure
 720:D:/Infineon/Tools/DAVE IDE/4.5.0.202105191637/eclipse/workspace/LED_test/Libraries/CMSIS/Include\cmsis_gcc.h ****   Stack Pointer Limit register hence the write is silently ignored.
 721:D:/Infineon/Tools/DAVE IDE/4.5.0.202105191637/eclipse/workspace/LED_test/Libraries/CMSIS/Include\cmsis_gcc.h **** 
 722:D:/Infineon/Tools/DAVE IDE/4.5.0.202105191637/eclipse/workspace/LED_test/Libraries/CMSIS/Include\cmsis_gcc.h ****   \details Assigns the given value to the non-secure Process Stack Pointer Limit (PSPLIM) when in s
 723:D:/Infineon/Tools/DAVE IDE/4.5.0.202105191637/eclipse/workspace/LED_test/Libraries/CMSIS/Include\cmsis_gcc.h ****   \param [in]    ProcStackPtrLimit  Process Stack Pointer Limit value to set
 724:D:/Infineon/Tools/DAVE IDE/4.5.0.202105191637/eclipse/workspace/LED_test/Libraries/CMSIS/Include\cmsis_gcc.h ****  */
 725:D:/Infineon/Tools/DAVE IDE/4.5.0.202105191637/eclipse/workspace/LED_test/Libraries/CMSIS/Include\cmsis_gcc.h **** __STATIC_FORCEINLINE void __TZ_set_PSPLIM_NS(uint32_t ProcStackPtrLimit)
 726:D:/Infineon/Tools/DAVE IDE/4.5.0.202105191637/eclipse/workspace/LED_test/Libraries/CMSIS/Include\cmsis_gcc.h **** {
 727:D:/Infineon/Tools/DAVE IDE/4.5.0.202105191637/eclipse/workspace/LED_test/Libraries/CMSIS/Include\cmsis_gcc.h **** #if (!(defined (__ARM_ARCH_8M_MAIN__ ) && (__ARM_ARCH_8M_MAIN__ == 1)))
 728:D:/Infineon/Tools/DAVE IDE/4.5.0.202105191637/eclipse/workspace/LED_test/Libraries/CMSIS/Include\cmsis_gcc.h ****   // without main extensions, the non-secure PSPLIM is RAZ/WI
 729:D:/Infineon/Tools/DAVE IDE/4.5.0.202105191637/eclipse/workspace/LED_test/Libraries/CMSIS/Include\cmsis_gcc.h ****   (void)ProcStackPtrLimit;
 730:D:/Infineon/Tools/DAVE IDE/4.5.0.202105191637/eclipse/workspace/LED_test/Libraries/CMSIS/Include\cmsis_gcc.h **** #else
 731:D:/Infineon/Tools/DAVE IDE/4.5.0.202105191637/eclipse/workspace/LED_test/Libraries/CMSIS/Include\cmsis_gcc.h ****   __ASM volatile ("MSR psplim_ns, %0\n" : : "r" (ProcStackPtrLimit));
 732:D:/Infineon/Tools/DAVE IDE/4.5.0.202105191637/eclipse/workspace/LED_test/Libraries/CMSIS/Include\cmsis_gcc.h **** #endif
 733:D:/Infineon/Tools/DAVE IDE/4.5.0.202105191637/eclipse/workspace/LED_test/Libraries/CMSIS/Include\cmsis_gcc.h **** }
 734:D:/Infineon/Tools/DAVE IDE/4.5.0.202105191637/eclipse/workspace/LED_test/Libraries/CMSIS/Include\cmsis_gcc.h **** #endif
 735:D:/Infineon/Tools/DAVE IDE/4.5.0.202105191637/eclipse/workspace/LED_test/Libraries/CMSIS/Include\cmsis_gcc.h **** 
 736:D:/Infineon/Tools/DAVE IDE/4.5.0.202105191637/eclipse/workspace/LED_test/Libraries/CMSIS/Include\cmsis_gcc.h **** 
 737:D:/Infineon/Tools/DAVE IDE/4.5.0.202105191637/eclipse/workspace/LED_test/Libraries/CMSIS/Include\cmsis_gcc.h **** /**
 738:D:/Infineon/Tools/DAVE IDE/4.5.0.202105191637/eclipse/workspace/LED_test/Libraries/CMSIS/Include\cmsis_gcc.h ****   \brief   Get Main Stack Pointer Limit
 739:D:/Infineon/Tools/DAVE IDE/4.5.0.202105191637/eclipse/workspace/LED_test/Libraries/CMSIS/Include\cmsis_gcc.h ****   Devices without ARMv8-M Main Extensions (i.e. Cortex-M23) lack the non-secure
 740:D:/Infineon/Tools/DAVE IDE/4.5.0.202105191637/eclipse/workspace/LED_test/Libraries/CMSIS/Include\cmsis_gcc.h ****   Stack Pointer Limit register hence zero is returned always in non-secure
 741:D:/Infineon/Tools/DAVE IDE/4.5.0.202105191637/eclipse/workspace/LED_test/Libraries/CMSIS/Include\cmsis_gcc.h ****   mode.
 742:D:/Infineon/Tools/DAVE IDE/4.5.0.202105191637/eclipse/workspace/LED_test/Libraries/CMSIS/Include\cmsis_gcc.h **** 
 743:D:/Infineon/Tools/DAVE IDE/4.5.0.202105191637/eclipse/workspace/LED_test/Libraries/CMSIS/Include\cmsis_gcc.h ****   \details Returns the current value of the Main Stack Pointer Limit (MSPLIM).
 744:D:/Infineon/Tools/DAVE IDE/4.5.0.202105191637/eclipse/workspace/LED_test/Libraries/CMSIS/Include\cmsis_gcc.h ****   \return               MSPLIM Register value
 745:D:/Infineon/Tools/DAVE IDE/4.5.0.202105191637/eclipse/workspace/LED_test/Libraries/CMSIS/Include\cmsis_gcc.h ****  */
 746:D:/Infineon/Tools/DAVE IDE/4.5.0.202105191637/eclipse/workspace/LED_test/Libraries/CMSIS/Include\cmsis_gcc.h **** __STATIC_FORCEINLINE uint32_t __get_MSPLIM(void)
 747:D:/Infineon/Tools/DAVE IDE/4.5.0.202105191637/eclipse/workspace/LED_test/Libraries/CMSIS/Include\cmsis_gcc.h **** {
 748:D:/Infineon/Tools/DAVE IDE/4.5.0.202105191637/eclipse/workspace/LED_test/Libraries/CMSIS/Include\cmsis_gcc.h **** #if (!(defined (__ARM_ARCH_8M_MAIN__ ) && (__ARM_ARCH_8M_MAIN__ == 1)) && \
 749:D:/Infineon/Tools/DAVE IDE/4.5.0.202105191637/eclipse/workspace/LED_test/Libraries/CMSIS/Include\cmsis_gcc.h ****     (!defined (__ARM_FEATURE_CMSE) || (__ARM_FEATURE_CMSE < 3)))
 750:D:/Infineon/Tools/DAVE IDE/4.5.0.202105191637/eclipse/workspace/LED_test/Libraries/CMSIS/Include\cmsis_gcc.h ****   // without main extensions, the non-secure MSPLIM is RAZ/WI
 751:D:/Infineon/Tools/DAVE IDE/4.5.0.202105191637/eclipse/workspace/LED_test/Libraries/CMSIS/Include\cmsis_gcc.h ****   return 0U;
 752:D:/Infineon/Tools/DAVE IDE/4.5.0.202105191637/eclipse/workspace/LED_test/Libraries/CMSIS/Include\cmsis_gcc.h **** #else
 753:D:/Infineon/Tools/DAVE IDE/4.5.0.202105191637/eclipse/workspace/LED_test/Libraries/CMSIS/Include\cmsis_gcc.h ****   uint32_t result;
 754:D:/Infineon/Tools/DAVE IDE/4.5.0.202105191637/eclipse/workspace/LED_test/Libraries/CMSIS/Include\cmsis_gcc.h ****   __ASM volatile ("MRS %0, msplim" : "=r" (result) );
 755:D:/Infineon/Tools/DAVE IDE/4.5.0.202105191637/eclipse/workspace/LED_test/Libraries/CMSIS/Include\cmsis_gcc.h ****   return result;
 756:D:/Infineon/Tools/DAVE IDE/4.5.0.202105191637/eclipse/workspace/LED_test/Libraries/CMSIS/Include\cmsis_gcc.h **** #endif
 757:D:/Infineon/Tools/DAVE IDE/4.5.0.202105191637/eclipse/workspace/LED_test/Libraries/CMSIS/Include\cmsis_gcc.h **** }
 758:D:/Infineon/Tools/DAVE IDE/4.5.0.202105191637/eclipse/workspace/LED_test/Libraries/CMSIS/Include\cmsis_gcc.h **** 
 759:D:/Infineon/Tools/DAVE IDE/4.5.0.202105191637/eclipse/workspace/LED_test/Libraries/CMSIS/Include\cmsis_gcc.h **** 
 760:D:/Infineon/Tools/DAVE IDE/4.5.0.202105191637/eclipse/workspace/LED_test/Libraries/CMSIS/Include\cmsis_gcc.h **** #if (defined (__ARM_FEATURE_CMSE  ) && (__ARM_FEATURE_CMSE   == 3))
 761:D:/Infineon/Tools/DAVE IDE/4.5.0.202105191637/eclipse/workspace/LED_test/Libraries/CMSIS/Include\cmsis_gcc.h **** /**
 762:D:/Infineon/Tools/DAVE IDE/4.5.0.202105191637/eclipse/workspace/LED_test/Libraries/CMSIS/Include\cmsis_gcc.h ****   \brief   Get Main Stack Pointer Limit (non-secure)
 763:D:/Infineon/Tools/DAVE IDE/4.5.0.202105191637/eclipse/workspace/LED_test/Libraries/CMSIS/Include\cmsis_gcc.h ****   Devices without ARMv8-M Main Extensions (i.e. Cortex-M23) lack the non-secure
 764:D:/Infineon/Tools/DAVE IDE/4.5.0.202105191637/eclipse/workspace/LED_test/Libraries/CMSIS/Include\cmsis_gcc.h ****   Stack Pointer Limit register hence zero is returned always.
 765:D:/Infineon/Tools/DAVE IDE/4.5.0.202105191637/eclipse/workspace/LED_test/Libraries/CMSIS/Include\cmsis_gcc.h **** 
 766:D:/Infineon/Tools/DAVE IDE/4.5.0.202105191637/eclipse/workspace/LED_test/Libraries/CMSIS/Include\cmsis_gcc.h ****   \details Returns the current value of the non-secure Main Stack Pointer Limit(MSPLIM) when in sec
 767:D:/Infineon/Tools/DAVE IDE/4.5.0.202105191637/eclipse/workspace/LED_test/Libraries/CMSIS/Include\cmsis_gcc.h ****   \return               MSPLIM Register value
 768:D:/Infineon/Tools/DAVE IDE/4.5.0.202105191637/eclipse/workspace/LED_test/Libraries/CMSIS/Include\cmsis_gcc.h ****  */
 769:D:/Infineon/Tools/DAVE IDE/4.5.0.202105191637/eclipse/workspace/LED_test/Libraries/CMSIS/Include\cmsis_gcc.h **** __STATIC_FORCEINLINE uint32_t __TZ_get_MSPLIM_NS(void)
 770:D:/Infineon/Tools/DAVE IDE/4.5.0.202105191637/eclipse/workspace/LED_test/Libraries/CMSIS/Include\cmsis_gcc.h **** {
 771:D:/Infineon/Tools/DAVE IDE/4.5.0.202105191637/eclipse/workspace/LED_test/Libraries/CMSIS/Include\cmsis_gcc.h **** #if (!(defined (__ARM_ARCH_8M_MAIN__ ) && (__ARM_ARCH_8M_MAIN__ == 1)))
 772:D:/Infineon/Tools/DAVE IDE/4.5.0.202105191637/eclipse/workspace/LED_test/Libraries/CMSIS/Include\cmsis_gcc.h ****   // without main extensions, the non-secure MSPLIM is RAZ/WI
 773:D:/Infineon/Tools/DAVE IDE/4.5.0.202105191637/eclipse/workspace/LED_test/Libraries/CMSIS/Include\cmsis_gcc.h ****   return 0U;
 774:D:/Infineon/Tools/DAVE IDE/4.5.0.202105191637/eclipse/workspace/LED_test/Libraries/CMSIS/Include\cmsis_gcc.h **** #else
 775:D:/Infineon/Tools/DAVE IDE/4.5.0.202105191637/eclipse/workspace/LED_test/Libraries/CMSIS/Include\cmsis_gcc.h ****   uint32_t result;
 776:D:/Infineon/Tools/DAVE IDE/4.5.0.202105191637/eclipse/workspace/LED_test/Libraries/CMSIS/Include\cmsis_gcc.h ****   __ASM volatile ("MRS %0, msplim_ns" : "=r" (result) );
 777:D:/Infineon/Tools/DAVE IDE/4.5.0.202105191637/eclipse/workspace/LED_test/Libraries/CMSIS/Include\cmsis_gcc.h ****   return result;
 778:D:/Infineon/Tools/DAVE IDE/4.5.0.202105191637/eclipse/workspace/LED_test/Libraries/CMSIS/Include\cmsis_gcc.h **** #endif
 779:D:/Infineon/Tools/DAVE IDE/4.5.0.202105191637/eclipse/workspace/LED_test/Libraries/CMSIS/Include\cmsis_gcc.h **** }
 780:D:/Infineon/Tools/DAVE IDE/4.5.0.202105191637/eclipse/workspace/LED_test/Libraries/CMSIS/Include\cmsis_gcc.h **** #endif
 781:D:/Infineon/Tools/DAVE IDE/4.5.0.202105191637/eclipse/workspace/LED_test/Libraries/CMSIS/Include\cmsis_gcc.h **** 
 782:D:/Infineon/Tools/DAVE IDE/4.5.0.202105191637/eclipse/workspace/LED_test/Libraries/CMSIS/Include\cmsis_gcc.h **** 
 783:D:/Infineon/Tools/DAVE IDE/4.5.0.202105191637/eclipse/workspace/LED_test/Libraries/CMSIS/Include\cmsis_gcc.h **** /**
 784:D:/Infineon/Tools/DAVE IDE/4.5.0.202105191637/eclipse/workspace/LED_test/Libraries/CMSIS/Include\cmsis_gcc.h ****   \brief   Set Main Stack Pointer Limit
 785:D:/Infineon/Tools/DAVE IDE/4.5.0.202105191637/eclipse/workspace/LED_test/Libraries/CMSIS/Include\cmsis_gcc.h ****   Devices without ARMv8-M Main Extensions (i.e. Cortex-M23) lack the non-secure
 786:D:/Infineon/Tools/DAVE IDE/4.5.0.202105191637/eclipse/workspace/LED_test/Libraries/CMSIS/Include\cmsis_gcc.h ****   Stack Pointer Limit register hence the write is silently ignored in non-secure
 787:D:/Infineon/Tools/DAVE IDE/4.5.0.202105191637/eclipse/workspace/LED_test/Libraries/CMSIS/Include\cmsis_gcc.h ****   mode.
 788:D:/Infineon/Tools/DAVE IDE/4.5.0.202105191637/eclipse/workspace/LED_test/Libraries/CMSIS/Include\cmsis_gcc.h **** 
 789:D:/Infineon/Tools/DAVE IDE/4.5.0.202105191637/eclipse/workspace/LED_test/Libraries/CMSIS/Include\cmsis_gcc.h ****   \details Assigns the given value to the Main Stack Pointer Limit (MSPLIM).
 790:D:/Infineon/Tools/DAVE IDE/4.5.0.202105191637/eclipse/workspace/LED_test/Libraries/CMSIS/Include\cmsis_gcc.h ****   \param [in]    MainStackPtrLimit  Main Stack Pointer Limit value to set
 791:D:/Infineon/Tools/DAVE IDE/4.5.0.202105191637/eclipse/workspace/LED_test/Libraries/CMSIS/Include\cmsis_gcc.h ****  */
 792:D:/Infineon/Tools/DAVE IDE/4.5.0.202105191637/eclipse/workspace/LED_test/Libraries/CMSIS/Include\cmsis_gcc.h **** __STATIC_FORCEINLINE void __set_MSPLIM(uint32_t MainStackPtrLimit)
 793:D:/Infineon/Tools/DAVE IDE/4.5.0.202105191637/eclipse/workspace/LED_test/Libraries/CMSIS/Include\cmsis_gcc.h **** {
 794:D:/Infineon/Tools/DAVE IDE/4.5.0.202105191637/eclipse/workspace/LED_test/Libraries/CMSIS/Include\cmsis_gcc.h **** #if (!(defined (__ARM_ARCH_8M_MAIN__ ) && (__ARM_ARCH_8M_MAIN__ == 1)) && \
 795:D:/Infineon/Tools/DAVE IDE/4.5.0.202105191637/eclipse/workspace/LED_test/Libraries/CMSIS/Include\cmsis_gcc.h ****     (!defined (__ARM_FEATURE_CMSE) || (__ARM_FEATURE_CMSE < 3)))
 796:D:/Infineon/Tools/DAVE IDE/4.5.0.202105191637/eclipse/workspace/LED_test/Libraries/CMSIS/Include\cmsis_gcc.h ****   // without main extensions, the non-secure MSPLIM is RAZ/WI
 797:D:/Infineon/Tools/DAVE IDE/4.5.0.202105191637/eclipse/workspace/LED_test/Libraries/CMSIS/Include\cmsis_gcc.h ****   (void)MainStackPtrLimit;
 798:D:/Infineon/Tools/DAVE IDE/4.5.0.202105191637/eclipse/workspace/LED_test/Libraries/CMSIS/Include\cmsis_gcc.h **** #else
 799:D:/Infineon/Tools/DAVE IDE/4.5.0.202105191637/eclipse/workspace/LED_test/Libraries/CMSIS/Include\cmsis_gcc.h ****   __ASM volatile ("MSR msplim, %0" : : "r" (MainStackPtrLimit));
 800:D:/Infineon/Tools/DAVE IDE/4.5.0.202105191637/eclipse/workspace/LED_test/Libraries/CMSIS/Include\cmsis_gcc.h **** #endif
 801:D:/Infineon/Tools/DAVE IDE/4.5.0.202105191637/eclipse/workspace/LED_test/Libraries/CMSIS/Include\cmsis_gcc.h **** }
 802:D:/Infineon/Tools/DAVE IDE/4.5.0.202105191637/eclipse/workspace/LED_test/Libraries/CMSIS/Include\cmsis_gcc.h **** 
 803:D:/Infineon/Tools/DAVE IDE/4.5.0.202105191637/eclipse/workspace/LED_test/Libraries/CMSIS/Include\cmsis_gcc.h **** 
 804:D:/Infineon/Tools/DAVE IDE/4.5.0.202105191637/eclipse/workspace/LED_test/Libraries/CMSIS/Include\cmsis_gcc.h **** #if (defined (__ARM_FEATURE_CMSE  ) && (__ARM_FEATURE_CMSE   == 3))
 805:D:/Infineon/Tools/DAVE IDE/4.5.0.202105191637/eclipse/workspace/LED_test/Libraries/CMSIS/Include\cmsis_gcc.h **** /**
 806:D:/Infineon/Tools/DAVE IDE/4.5.0.202105191637/eclipse/workspace/LED_test/Libraries/CMSIS/Include\cmsis_gcc.h ****   \brief   Set Main Stack Pointer Limit (non-secure)
 807:D:/Infineon/Tools/DAVE IDE/4.5.0.202105191637/eclipse/workspace/LED_test/Libraries/CMSIS/Include\cmsis_gcc.h ****   Devices without ARMv8-M Main Extensions (i.e. Cortex-M23) lack the non-secure
 808:D:/Infineon/Tools/DAVE IDE/4.5.0.202105191637/eclipse/workspace/LED_test/Libraries/CMSIS/Include\cmsis_gcc.h ****   Stack Pointer Limit register hence the write is silently ignored.
 809:D:/Infineon/Tools/DAVE IDE/4.5.0.202105191637/eclipse/workspace/LED_test/Libraries/CMSIS/Include\cmsis_gcc.h **** 
 810:D:/Infineon/Tools/DAVE IDE/4.5.0.202105191637/eclipse/workspace/LED_test/Libraries/CMSIS/Include\cmsis_gcc.h ****   \details Assigns the given value to the non-secure Main Stack Pointer Limit (MSPLIM) when in secu
 811:D:/Infineon/Tools/DAVE IDE/4.5.0.202105191637/eclipse/workspace/LED_test/Libraries/CMSIS/Include\cmsis_gcc.h ****   \param [in]    MainStackPtrLimit  Main Stack Pointer value to set
 812:D:/Infineon/Tools/DAVE IDE/4.5.0.202105191637/eclipse/workspace/LED_test/Libraries/CMSIS/Include\cmsis_gcc.h ****  */
 813:D:/Infineon/Tools/DAVE IDE/4.5.0.202105191637/eclipse/workspace/LED_test/Libraries/CMSIS/Include\cmsis_gcc.h **** __STATIC_FORCEINLINE void __TZ_set_MSPLIM_NS(uint32_t MainStackPtrLimit)
 814:D:/Infineon/Tools/DAVE IDE/4.5.0.202105191637/eclipse/workspace/LED_test/Libraries/CMSIS/Include\cmsis_gcc.h **** {
 815:D:/Infineon/Tools/DAVE IDE/4.5.0.202105191637/eclipse/workspace/LED_test/Libraries/CMSIS/Include\cmsis_gcc.h **** #if (!(defined (__ARM_ARCH_8M_MAIN__ ) && (__ARM_ARCH_8M_MAIN__ == 1)))
 816:D:/Infineon/Tools/DAVE IDE/4.5.0.202105191637/eclipse/workspace/LED_test/Libraries/CMSIS/Include\cmsis_gcc.h ****   // without main extensions, the non-secure MSPLIM is RAZ/WI
 817:D:/Infineon/Tools/DAVE IDE/4.5.0.202105191637/eclipse/workspace/LED_test/Libraries/CMSIS/Include\cmsis_gcc.h ****   (void)MainStackPtrLimit;
 818:D:/Infineon/Tools/DAVE IDE/4.5.0.202105191637/eclipse/workspace/LED_test/Libraries/CMSIS/Include\cmsis_gcc.h **** #else
 819:D:/Infineon/Tools/DAVE IDE/4.5.0.202105191637/eclipse/workspace/LED_test/Libraries/CMSIS/Include\cmsis_gcc.h ****   __ASM volatile ("MSR msplim_ns, %0" : : "r" (MainStackPtrLimit));
 820:D:/Infineon/Tools/DAVE IDE/4.5.0.202105191637/eclipse/workspace/LED_test/Libraries/CMSIS/Include\cmsis_gcc.h **** #endif
 821:D:/Infineon/Tools/DAVE IDE/4.5.0.202105191637/eclipse/workspace/LED_test/Libraries/CMSIS/Include\cmsis_gcc.h **** }
 822:D:/Infineon/Tools/DAVE IDE/4.5.0.202105191637/eclipse/workspace/LED_test/Libraries/CMSIS/Include\cmsis_gcc.h **** #endif
 823:D:/Infineon/Tools/DAVE IDE/4.5.0.202105191637/eclipse/workspace/LED_test/Libraries/CMSIS/Include\cmsis_gcc.h **** 
 824:D:/Infineon/Tools/DAVE IDE/4.5.0.202105191637/eclipse/workspace/LED_test/Libraries/CMSIS/Include\cmsis_gcc.h **** #endif /* ((defined (__ARM_ARCH_8M_MAIN__ ) && (__ARM_ARCH_8M_MAIN__ == 1)) || \
 825:D:/Infineon/Tools/DAVE IDE/4.5.0.202105191637/eclipse/workspace/LED_test/Libraries/CMSIS/Include\cmsis_gcc.h ****            (defined (__ARM_ARCH_8M_BASE__ ) && (__ARM_ARCH_8M_BASE__ == 1))    ) */
 826:D:/Infineon/Tools/DAVE IDE/4.5.0.202105191637/eclipse/workspace/LED_test/Libraries/CMSIS/Include\cmsis_gcc.h **** 
 827:D:/Infineon/Tools/DAVE IDE/4.5.0.202105191637/eclipse/workspace/LED_test/Libraries/CMSIS/Include\cmsis_gcc.h **** 
 828:D:/Infineon/Tools/DAVE IDE/4.5.0.202105191637/eclipse/workspace/LED_test/Libraries/CMSIS/Include\cmsis_gcc.h **** /**
 829:D:/Infineon/Tools/DAVE IDE/4.5.0.202105191637/eclipse/workspace/LED_test/Libraries/CMSIS/Include\cmsis_gcc.h ****   \brief   Get FPSCR
 830:D:/Infineon/Tools/DAVE IDE/4.5.0.202105191637/eclipse/workspace/LED_test/Libraries/CMSIS/Include\cmsis_gcc.h ****   \details Returns the current value of the Floating Point Status/Control register.
 831:D:/Infineon/Tools/DAVE IDE/4.5.0.202105191637/eclipse/workspace/LED_test/Libraries/CMSIS/Include\cmsis_gcc.h ****   \return               Floating Point Status/Control register value
 832:D:/Infineon/Tools/DAVE IDE/4.5.0.202105191637/eclipse/workspace/LED_test/Libraries/CMSIS/Include\cmsis_gcc.h ****  */
 833:D:/Infineon/Tools/DAVE IDE/4.5.0.202105191637/eclipse/workspace/LED_test/Libraries/CMSIS/Include\cmsis_gcc.h **** __STATIC_FORCEINLINE uint32_t __get_FPSCR(void)
 834:D:/Infineon/Tools/DAVE IDE/4.5.0.202105191637/eclipse/workspace/LED_test/Libraries/CMSIS/Include\cmsis_gcc.h **** {
 835:D:/Infineon/Tools/DAVE IDE/4.5.0.202105191637/eclipse/workspace/LED_test/Libraries/CMSIS/Include\cmsis_gcc.h **** #if ((defined (__FPU_PRESENT) && (__FPU_PRESENT == 1U)) && \
 836:D:/Infineon/Tools/DAVE IDE/4.5.0.202105191637/eclipse/workspace/LED_test/Libraries/CMSIS/Include\cmsis_gcc.h ****      (defined (__FPU_USED   ) && (__FPU_USED    == 1U))     )
 837:D:/Infineon/Tools/DAVE IDE/4.5.0.202105191637/eclipse/workspace/LED_test/Libraries/CMSIS/Include\cmsis_gcc.h **** #if __has_builtin(__builtin_arm_get_fpscr) 
 838:D:/Infineon/Tools/DAVE IDE/4.5.0.202105191637/eclipse/workspace/LED_test/Libraries/CMSIS/Include\cmsis_gcc.h **** // Re-enable using built-in when GCC has been fixed
 839:D:/Infineon/Tools/DAVE IDE/4.5.0.202105191637/eclipse/workspace/LED_test/Libraries/CMSIS/Include\cmsis_gcc.h **** // || (__GNUC__ > 7) || (__GNUC__ == 7 && __GNUC_MINOR__ >= 2)
 840:D:/Infineon/Tools/DAVE IDE/4.5.0.202105191637/eclipse/workspace/LED_test/Libraries/CMSIS/Include\cmsis_gcc.h ****   /* see https://gcc.gnu.org/ml/gcc-patches/2017-04/msg00443.html */
 841:D:/Infineon/Tools/DAVE IDE/4.5.0.202105191637/eclipse/workspace/LED_test/Libraries/CMSIS/Include\cmsis_gcc.h ****   return __builtin_arm_get_fpscr();
 842:D:/Infineon/Tools/DAVE IDE/4.5.0.202105191637/eclipse/workspace/LED_test/Libraries/CMSIS/Include\cmsis_gcc.h **** #else
 843:D:/Infineon/Tools/DAVE IDE/4.5.0.202105191637/eclipse/workspace/LED_test/Libraries/CMSIS/Include\cmsis_gcc.h ****   uint32_t result;
 844:D:/Infineon/Tools/DAVE IDE/4.5.0.202105191637/eclipse/workspace/LED_test/Libraries/CMSIS/Include\cmsis_gcc.h **** 
 845:D:/Infineon/Tools/DAVE IDE/4.5.0.202105191637/eclipse/workspace/LED_test/Libraries/CMSIS/Include\cmsis_gcc.h ****   __ASM volatile ("VMRS %0, fpscr" : "=r" (result) );
 846:D:/Infineon/Tools/DAVE IDE/4.5.0.202105191637/eclipse/workspace/LED_test/Libraries/CMSIS/Include\cmsis_gcc.h ****   return(result);
 847:D:/Infineon/Tools/DAVE IDE/4.5.0.202105191637/eclipse/workspace/LED_test/Libraries/CMSIS/Include\cmsis_gcc.h **** #endif
 848:D:/Infineon/Tools/DAVE IDE/4.5.0.202105191637/eclipse/workspace/LED_test/Libraries/CMSIS/Include\cmsis_gcc.h **** #else
 849:D:/Infineon/Tools/DAVE IDE/4.5.0.202105191637/eclipse/workspace/LED_test/Libraries/CMSIS/Include\cmsis_gcc.h ****   return(0U);
 850:D:/Infineon/Tools/DAVE IDE/4.5.0.202105191637/eclipse/workspace/LED_test/Libraries/CMSIS/Include\cmsis_gcc.h **** #endif
 851:D:/Infineon/Tools/DAVE IDE/4.5.0.202105191637/eclipse/workspace/LED_test/Libraries/CMSIS/Include\cmsis_gcc.h **** }
 852:D:/Infineon/Tools/DAVE IDE/4.5.0.202105191637/eclipse/workspace/LED_test/Libraries/CMSIS/Include\cmsis_gcc.h **** 
 853:D:/Infineon/Tools/DAVE IDE/4.5.0.202105191637/eclipse/workspace/LED_test/Libraries/CMSIS/Include\cmsis_gcc.h **** 
 854:D:/Infineon/Tools/DAVE IDE/4.5.0.202105191637/eclipse/workspace/LED_test/Libraries/CMSIS/Include\cmsis_gcc.h **** /**
 855:D:/Infineon/Tools/DAVE IDE/4.5.0.202105191637/eclipse/workspace/LED_test/Libraries/CMSIS/Include\cmsis_gcc.h ****   \brief   Set FPSCR
 856:D:/Infineon/Tools/DAVE IDE/4.5.0.202105191637/eclipse/workspace/LED_test/Libraries/CMSIS/Include\cmsis_gcc.h ****   \details Assigns the given value to the Floating Point Status/Control register.
 857:D:/Infineon/Tools/DAVE IDE/4.5.0.202105191637/eclipse/workspace/LED_test/Libraries/CMSIS/Include\cmsis_gcc.h ****   \param [in]    fpscr  Floating Point Status/Control value to set
 858:D:/Infineon/Tools/DAVE IDE/4.5.0.202105191637/eclipse/workspace/LED_test/Libraries/CMSIS/Include\cmsis_gcc.h ****  */
 859:D:/Infineon/Tools/DAVE IDE/4.5.0.202105191637/eclipse/workspace/LED_test/Libraries/CMSIS/Include\cmsis_gcc.h **** __STATIC_FORCEINLINE void __set_FPSCR(uint32_t fpscr)
 860:D:/Infineon/Tools/DAVE IDE/4.5.0.202105191637/eclipse/workspace/LED_test/Libraries/CMSIS/Include\cmsis_gcc.h **** {
 861:D:/Infineon/Tools/DAVE IDE/4.5.0.202105191637/eclipse/workspace/LED_test/Libraries/CMSIS/Include\cmsis_gcc.h **** #if ((defined (__FPU_PRESENT) && (__FPU_PRESENT == 1U)) && \
 862:D:/Infineon/Tools/DAVE IDE/4.5.0.202105191637/eclipse/workspace/LED_test/Libraries/CMSIS/Include\cmsis_gcc.h ****      (defined (__FPU_USED   ) && (__FPU_USED    == 1U))     )
 863:D:/Infineon/Tools/DAVE IDE/4.5.0.202105191637/eclipse/workspace/LED_test/Libraries/CMSIS/Include\cmsis_gcc.h **** #if __has_builtin(__builtin_arm_set_fpscr)
 864:D:/Infineon/Tools/DAVE IDE/4.5.0.202105191637/eclipse/workspace/LED_test/Libraries/CMSIS/Include\cmsis_gcc.h **** // Re-enable using built-in when GCC has been fixed
 865:D:/Infineon/Tools/DAVE IDE/4.5.0.202105191637/eclipse/workspace/LED_test/Libraries/CMSIS/Include\cmsis_gcc.h **** // || (__GNUC__ > 7) || (__GNUC__ == 7 && __GNUC_MINOR__ >= 2)
 866:D:/Infineon/Tools/DAVE IDE/4.5.0.202105191637/eclipse/workspace/LED_test/Libraries/CMSIS/Include\cmsis_gcc.h ****   /* see https://gcc.gnu.org/ml/gcc-patches/2017-04/msg00443.html */
 867:D:/Infineon/Tools/DAVE IDE/4.5.0.202105191637/eclipse/workspace/LED_test/Libraries/CMSIS/Include\cmsis_gcc.h ****   __builtin_arm_set_fpscr(fpscr);
 868:D:/Infineon/Tools/DAVE IDE/4.5.0.202105191637/eclipse/workspace/LED_test/Libraries/CMSIS/Include\cmsis_gcc.h **** #else
 869:D:/Infineon/Tools/DAVE IDE/4.5.0.202105191637/eclipse/workspace/LED_test/Libraries/CMSIS/Include\cmsis_gcc.h ****   __ASM volatile ("VMSR fpscr, %0" : : "r" (fpscr) : "vfpcc", "memory");
 870:D:/Infineon/Tools/DAVE IDE/4.5.0.202105191637/eclipse/workspace/LED_test/Libraries/CMSIS/Include\cmsis_gcc.h **** #endif
 871:D:/Infineon/Tools/DAVE IDE/4.5.0.202105191637/eclipse/workspace/LED_test/Libraries/CMSIS/Include\cmsis_gcc.h **** #else
 872:D:/Infineon/Tools/DAVE IDE/4.5.0.202105191637/eclipse/workspace/LED_test/Libraries/CMSIS/Include\cmsis_gcc.h ****   (void)fpscr;
 873:D:/Infineon/Tools/DAVE IDE/4.5.0.202105191637/eclipse/workspace/LED_test/Libraries/CMSIS/Include\cmsis_gcc.h **** #endif
 874:D:/Infineon/Tools/DAVE IDE/4.5.0.202105191637/eclipse/workspace/LED_test/Libraries/CMSIS/Include\cmsis_gcc.h **** }
 875:D:/Infineon/Tools/DAVE IDE/4.5.0.202105191637/eclipse/workspace/LED_test/Libraries/CMSIS/Include\cmsis_gcc.h **** 
 876:D:/Infineon/Tools/DAVE IDE/4.5.0.202105191637/eclipse/workspace/LED_test/Libraries/CMSIS/Include\cmsis_gcc.h **** 
 877:D:/Infineon/Tools/DAVE IDE/4.5.0.202105191637/eclipse/workspace/LED_test/Libraries/CMSIS/Include\cmsis_gcc.h **** /*@} end of CMSIS_Core_RegAccFunctions */
 878:D:/Infineon/Tools/DAVE IDE/4.5.0.202105191637/eclipse/workspace/LED_test/Libraries/CMSIS/Include\cmsis_gcc.h **** 
 879:D:/Infineon/Tools/DAVE IDE/4.5.0.202105191637/eclipse/workspace/LED_test/Libraries/CMSIS/Include\cmsis_gcc.h **** 
 880:D:/Infineon/Tools/DAVE IDE/4.5.0.202105191637/eclipse/workspace/LED_test/Libraries/CMSIS/Include\cmsis_gcc.h **** /* ##########################  Core Instruction Access  ######################### */
 881:D:/Infineon/Tools/DAVE IDE/4.5.0.202105191637/eclipse/workspace/LED_test/Libraries/CMSIS/Include\cmsis_gcc.h **** /** \defgroup CMSIS_Core_InstructionInterface CMSIS Core Instruction Interface
 882:D:/Infineon/Tools/DAVE IDE/4.5.0.202105191637/eclipse/workspace/LED_test/Libraries/CMSIS/Include\cmsis_gcc.h ****   Access to dedicated instructions
 883:D:/Infineon/Tools/DAVE IDE/4.5.0.202105191637/eclipse/workspace/LED_test/Libraries/CMSIS/Include\cmsis_gcc.h ****   @{
 884:D:/Infineon/Tools/DAVE IDE/4.5.0.202105191637/eclipse/workspace/LED_test/Libraries/CMSIS/Include\cmsis_gcc.h **** */
 885:D:/Infineon/Tools/DAVE IDE/4.5.0.202105191637/eclipse/workspace/LED_test/Libraries/CMSIS/Include\cmsis_gcc.h **** 
 886:D:/Infineon/Tools/DAVE IDE/4.5.0.202105191637/eclipse/workspace/LED_test/Libraries/CMSIS/Include\cmsis_gcc.h **** /* Define macros for porting to both thumb1 and thumb2.
 887:D:/Infineon/Tools/DAVE IDE/4.5.0.202105191637/eclipse/workspace/LED_test/Libraries/CMSIS/Include\cmsis_gcc.h ****  * For thumb1, use low register (r0-r7), specified by constraint "l"
 888:D:/Infineon/Tools/DAVE IDE/4.5.0.202105191637/eclipse/workspace/LED_test/Libraries/CMSIS/Include\cmsis_gcc.h ****  * Otherwise, use general registers, specified by constraint "r" */
 889:D:/Infineon/Tools/DAVE IDE/4.5.0.202105191637/eclipse/workspace/LED_test/Libraries/CMSIS/Include\cmsis_gcc.h **** #if defined (__thumb__) && !defined (__thumb2__)
 890:D:/Infineon/Tools/DAVE IDE/4.5.0.202105191637/eclipse/workspace/LED_test/Libraries/CMSIS/Include\cmsis_gcc.h **** #define __CMSIS_GCC_OUT_REG(r) "=l" (r)
 891:D:/Infineon/Tools/DAVE IDE/4.5.0.202105191637/eclipse/workspace/LED_test/Libraries/CMSIS/Include\cmsis_gcc.h **** #define __CMSIS_GCC_RW_REG(r) "+l" (r)
 892:D:/Infineon/Tools/DAVE IDE/4.5.0.202105191637/eclipse/workspace/LED_test/Libraries/CMSIS/Include\cmsis_gcc.h **** #define __CMSIS_GCC_USE_REG(r) "l" (r)
 893:D:/Infineon/Tools/DAVE IDE/4.5.0.202105191637/eclipse/workspace/LED_test/Libraries/CMSIS/Include\cmsis_gcc.h **** #else
 894:D:/Infineon/Tools/DAVE IDE/4.5.0.202105191637/eclipse/workspace/LED_test/Libraries/CMSIS/Include\cmsis_gcc.h **** #define __CMSIS_GCC_OUT_REG(r) "=r" (r)
 895:D:/Infineon/Tools/DAVE IDE/4.5.0.202105191637/eclipse/workspace/LED_test/Libraries/CMSIS/Include\cmsis_gcc.h **** #define __CMSIS_GCC_RW_REG(r) "+r" (r)
 896:D:/Infineon/Tools/DAVE IDE/4.5.0.202105191637/eclipse/workspace/LED_test/Libraries/CMSIS/Include\cmsis_gcc.h **** #define __CMSIS_GCC_USE_REG(r) "r" (r)
 897:D:/Infineon/Tools/DAVE IDE/4.5.0.202105191637/eclipse/workspace/LED_test/Libraries/CMSIS/Include\cmsis_gcc.h **** #endif
 898:D:/Infineon/Tools/DAVE IDE/4.5.0.202105191637/eclipse/workspace/LED_test/Libraries/CMSIS/Include\cmsis_gcc.h **** 
 899:D:/Infineon/Tools/DAVE IDE/4.5.0.202105191637/eclipse/workspace/LED_test/Libraries/CMSIS/Include\cmsis_gcc.h **** /**
 900:D:/Infineon/Tools/DAVE IDE/4.5.0.202105191637/eclipse/workspace/LED_test/Libraries/CMSIS/Include\cmsis_gcc.h ****   \brief   No Operation
 901:D:/Infineon/Tools/DAVE IDE/4.5.0.202105191637/eclipse/workspace/LED_test/Libraries/CMSIS/Include\cmsis_gcc.h ****   \details No Operation does nothing. This instruction can be used for code alignment purposes.
 902:D:/Infineon/Tools/DAVE IDE/4.5.0.202105191637/eclipse/workspace/LED_test/Libraries/CMSIS/Include\cmsis_gcc.h ****  */
 903:D:/Infineon/Tools/DAVE IDE/4.5.0.202105191637/eclipse/workspace/LED_test/Libraries/CMSIS/Include\cmsis_gcc.h **** #define __NOP()                             __ASM volatile ("nop")
 904:D:/Infineon/Tools/DAVE IDE/4.5.0.202105191637/eclipse/workspace/LED_test/Libraries/CMSIS/Include\cmsis_gcc.h **** 
 905:D:/Infineon/Tools/DAVE IDE/4.5.0.202105191637/eclipse/workspace/LED_test/Libraries/CMSIS/Include\cmsis_gcc.h **** /**
 906:D:/Infineon/Tools/DAVE IDE/4.5.0.202105191637/eclipse/workspace/LED_test/Libraries/CMSIS/Include\cmsis_gcc.h ****   \brief   Wait For Interrupt
 907:D:/Infineon/Tools/DAVE IDE/4.5.0.202105191637/eclipse/workspace/LED_test/Libraries/CMSIS/Include\cmsis_gcc.h ****   \details Wait For Interrupt is a hint instruction that suspends execution until one of a number o
 908:D:/Infineon/Tools/DAVE IDE/4.5.0.202105191637/eclipse/workspace/LED_test/Libraries/CMSIS/Include\cmsis_gcc.h ****  */
 909:D:/Infineon/Tools/DAVE IDE/4.5.0.202105191637/eclipse/workspace/LED_test/Libraries/CMSIS/Include\cmsis_gcc.h **** #define __WFI()                             __ASM volatile ("wfi":::"memory")
 910:D:/Infineon/Tools/DAVE IDE/4.5.0.202105191637/eclipse/workspace/LED_test/Libraries/CMSIS/Include\cmsis_gcc.h **** 
 911:D:/Infineon/Tools/DAVE IDE/4.5.0.202105191637/eclipse/workspace/LED_test/Libraries/CMSIS/Include\cmsis_gcc.h **** 
 912:D:/Infineon/Tools/DAVE IDE/4.5.0.202105191637/eclipse/workspace/LED_test/Libraries/CMSIS/Include\cmsis_gcc.h **** /**
 913:D:/Infineon/Tools/DAVE IDE/4.5.0.202105191637/eclipse/workspace/LED_test/Libraries/CMSIS/Include\cmsis_gcc.h ****   \brief   Wait For Event
 914:D:/Infineon/Tools/DAVE IDE/4.5.0.202105191637/eclipse/workspace/LED_test/Libraries/CMSIS/Include\cmsis_gcc.h ****   \details Wait For Event is a hint instruction that permits the processor to enter
 915:D:/Infineon/Tools/DAVE IDE/4.5.0.202105191637/eclipse/workspace/LED_test/Libraries/CMSIS/Include\cmsis_gcc.h ****            a low-power state until one of a number of events occurs.
 916:D:/Infineon/Tools/DAVE IDE/4.5.0.202105191637/eclipse/workspace/LED_test/Libraries/CMSIS/Include\cmsis_gcc.h ****  */
 917:D:/Infineon/Tools/DAVE IDE/4.5.0.202105191637/eclipse/workspace/LED_test/Libraries/CMSIS/Include\cmsis_gcc.h **** #define __WFE()                             __ASM volatile ("wfe":::"memory")
 918:D:/Infineon/Tools/DAVE IDE/4.5.0.202105191637/eclipse/workspace/LED_test/Libraries/CMSIS/Include\cmsis_gcc.h **** 
 919:D:/Infineon/Tools/DAVE IDE/4.5.0.202105191637/eclipse/workspace/LED_test/Libraries/CMSIS/Include\cmsis_gcc.h **** 
 920:D:/Infineon/Tools/DAVE IDE/4.5.0.202105191637/eclipse/workspace/LED_test/Libraries/CMSIS/Include\cmsis_gcc.h **** /**
 921:D:/Infineon/Tools/DAVE IDE/4.5.0.202105191637/eclipse/workspace/LED_test/Libraries/CMSIS/Include\cmsis_gcc.h ****   \brief   Send Event
 922:D:/Infineon/Tools/DAVE IDE/4.5.0.202105191637/eclipse/workspace/LED_test/Libraries/CMSIS/Include\cmsis_gcc.h ****   \details Send Event is a hint instruction. It causes an event to be signaled to the CPU.
 923:D:/Infineon/Tools/DAVE IDE/4.5.0.202105191637/eclipse/workspace/LED_test/Libraries/CMSIS/Include\cmsis_gcc.h ****  */
 924:D:/Infineon/Tools/DAVE IDE/4.5.0.202105191637/eclipse/workspace/LED_test/Libraries/CMSIS/Include\cmsis_gcc.h **** #define __SEV()                             __ASM volatile ("sev")
 925:D:/Infineon/Tools/DAVE IDE/4.5.0.202105191637/eclipse/workspace/LED_test/Libraries/CMSIS/Include\cmsis_gcc.h **** 
 926:D:/Infineon/Tools/DAVE IDE/4.5.0.202105191637/eclipse/workspace/LED_test/Libraries/CMSIS/Include\cmsis_gcc.h **** 
 927:D:/Infineon/Tools/DAVE IDE/4.5.0.202105191637/eclipse/workspace/LED_test/Libraries/CMSIS/Include\cmsis_gcc.h **** /**
 928:D:/Infineon/Tools/DAVE IDE/4.5.0.202105191637/eclipse/workspace/LED_test/Libraries/CMSIS/Include\cmsis_gcc.h ****   \brief   Instruction Synchronization Barrier
 929:D:/Infineon/Tools/DAVE IDE/4.5.0.202105191637/eclipse/workspace/LED_test/Libraries/CMSIS/Include\cmsis_gcc.h ****   \details Instruction Synchronization Barrier flushes the pipeline in the processor,
 930:D:/Infineon/Tools/DAVE IDE/4.5.0.202105191637/eclipse/workspace/LED_test/Libraries/CMSIS/Include\cmsis_gcc.h ****            so that all instructions following the ISB are fetched from cache or memory,
 931:D:/Infineon/Tools/DAVE IDE/4.5.0.202105191637/eclipse/workspace/LED_test/Libraries/CMSIS/Include\cmsis_gcc.h ****            after the instruction has been completed.
 932:D:/Infineon/Tools/DAVE IDE/4.5.0.202105191637/eclipse/workspace/LED_test/Libraries/CMSIS/Include\cmsis_gcc.h ****  */
 933:D:/Infineon/Tools/DAVE IDE/4.5.0.202105191637/eclipse/workspace/LED_test/Libraries/CMSIS/Include\cmsis_gcc.h **** __STATIC_FORCEINLINE void __ISB(void)
 934:D:/Infineon/Tools/DAVE IDE/4.5.0.202105191637/eclipse/workspace/LED_test/Libraries/CMSIS/Include\cmsis_gcc.h **** {
 935:D:/Infineon/Tools/DAVE IDE/4.5.0.202105191637/eclipse/workspace/LED_test/Libraries/CMSIS/Include\cmsis_gcc.h ****   __ASM volatile ("isb 0xF":::"memory");
 936:D:/Infineon/Tools/DAVE IDE/4.5.0.202105191637/eclipse/workspace/LED_test/Libraries/CMSIS/Include\cmsis_gcc.h **** }
 937:D:/Infineon/Tools/DAVE IDE/4.5.0.202105191637/eclipse/workspace/LED_test/Libraries/CMSIS/Include\cmsis_gcc.h **** 
 938:D:/Infineon/Tools/DAVE IDE/4.5.0.202105191637/eclipse/workspace/LED_test/Libraries/CMSIS/Include\cmsis_gcc.h **** 
 939:D:/Infineon/Tools/DAVE IDE/4.5.0.202105191637/eclipse/workspace/LED_test/Libraries/CMSIS/Include\cmsis_gcc.h **** /**
 940:D:/Infineon/Tools/DAVE IDE/4.5.0.202105191637/eclipse/workspace/LED_test/Libraries/CMSIS/Include\cmsis_gcc.h ****   \brief   Data Synchronization Barrier
 941:D:/Infineon/Tools/DAVE IDE/4.5.0.202105191637/eclipse/workspace/LED_test/Libraries/CMSIS/Include\cmsis_gcc.h ****   \details Acts as a special kind of Data Memory Barrier.
 942:D:/Infineon/Tools/DAVE IDE/4.5.0.202105191637/eclipse/workspace/LED_test/Libraries/CMSIS/Include\cmsis_gcc.h ****            It completes when all explicit memory accesses before this instruction complete.
 943:D:/Infineon/Tools/DAVE IDE/4.5.0.202105191637/eclipse/workspace/LED_test/Libraries/CMSIS/Include\cmsis_gcc.h ****  */
 944:D:/Infineon/Tools/DAVE IDE/4.5.0.202105191637/eclipse/workspace/LED_test/Libraries/CMSIS/Include\cmsis_gcc.h **** __STATIC_FORCEINLINE void __DSB(void)
 945:D:/Infineon/Tools/DAVE IDE/4.5.0.202105191637/eclipse/workspace/LED_test/Libraries/CMSIS/Include\cmsis_gcc.h **** {
 946:D:/Infineon/Tools/DAVE IDE/4.5.0.202105191637/eclipse/workspace/LED_test/Libraries/CMSIS/Include\cmsis_gcc.h ****   __ASM volatile ("dsb 0xF":::"memory");
 172              	 .loc 2 946 0
 173              	
 174 000e BFF34F8F 	 dsb 0xF
 175              	
 176              	 .thumb
 177              	.LBE11:
 178              	.LBE10:
 179              	.LBB12:
 180              	.LBB13:
 198:D:/Infineon/Tools/DAVE IDE/4.5.0.202105191637/eclipse/workspace/LED_test/Libraries/CMSIS/Include\cmsis_gcc.h **** }
 181              	 .loc 2 198 0
 182              	
 183 0012 62B6     	 cpsie i
 184              	
 185              	 .thumb
 186              	.LBE13:
 187              	.LBE12:
 407:../Startup/system_XMC4300.c ****   __DSB();
 408:../Startup/system_XMC4300.c ****   __enable_irq();
 409:../Startup/system_XMC4300.c **** 
 410:../Startup/system_XMC4300.c ****   /* __FPU_PRESENT = 1 defined in device header file */
 411:../Startup/system_XMC4300.c ****   /* __FPU_USED value depends on compiler/linker options. */
 412:../Startup/system_XMC4300.c ****   /* __FPU_USED = 0 if -mfloat-abi=soft is selected */
 413:../Startup/system_XMC4300.c ****   /* __FPU_USED = 1 if -mfloat-abi=softfp or mfloat-abi=hard */
 414:../Startup/system_XMC4300.c **** 
 415:../Startup/system_XMC4300.c **** #if ((__FPU_PRESENT == 1) && (__FPU_USED == 1))
 416:../Startup/system_XMC4300.c ****   SCB->CPACR |= ((3UL << 10*2) |                 /* set CP10 Full Access */
 188              	 .loc 1 416 0
 189 0014 134A     	 ldr r2,.L8
 190 0016 134B     	 ldr r3,.L8
 191 0018 D3F88830 	 ldr r3,[r3,#136]
 192 001c 43F47003 	 orr r3,r3,#15728640
 193 0020 C2F88830 	 str r3,[r2,#136]
 417:../Startup/system_XMC4300.c ****                  (3UL << 11*2)  );               /* set CP11 Full Access */
 418:../Startup/system_XMC4300.c **** #else
 419:../Startup/system_XMC4300.c ****   SCB->CPACR = 0;
 420:../Startup/system_XMC4300.c **** #endif
 421:../Startup/system_XMC4300.c **** 
 422:../Startup/system_XMC4300.c ****   /* Enable unaligned memory access - SCB_CCR.UNALIGN_TRP = 0 */
 423:../Startup/system_XMC4300.c ****   SCB->CCR &= ~(SCB_CCR_UNALIGN_TRP_Msk);
 194              	 .loc 1 423 0
 195 0024 0F4A     	 ldr r2,.L8
 196 0026 0F4B     	 ldr r3,.L8
 197 0028 5B69     	 ldr r3,[r3,#20]
 198 002a 23F00803 	 bic r3,r3,#8
 199 002e 5361     	 str r3,[r2,#20]
 424:../Startup/system_XMC4300.c **** 
 425:../Startup/system_XMC4300.c ****   temp = FLASH0->FCON;
 200              	 .loc 1 425 0
 201 0030 0E4B     	 ldr r3,.L8+8
 202 0032 03F58053 	 add r3,r3,#4096
 203 0036 1433     	 adds r3,r3,#20
 204 0038 1B68     	 ldr r3,[r3]
 205 003a 7B60     	 str r3,[r7,#4]
 426:../Startup/system_XMC4300.c ****   temp &= ~FLASH_FCON_WSPFLASH_Msk;
 206              	 .loc 1 426 0
 207 003c 7B68     	 ldr r3,[r7,#4]
 208 003e 23F00F03 	 bic r3,r3,#15
 209 0042 7B60     	 str r3,[r7,#4]
 427:../Startup/system_XMC4300.c ****   temp |= PMU_FLASH_WS;
 210              	 .loc 1 427 0
 211 0044 7B68     	 ldr r3,[r7,#4]
 212 0046 43F00403 	 orr r3,r3,#4
 213 004a 7B60     	 str r3,[r7,#4]
 428:../Startup/system_XMC4300.c ****   FLASH0->FCON = temp;
 214              	 .loc 1 428 0
 215 004c 074B     	 ldr r3,.L8+8
 216 004e 03F58053 	 add r3,r3,#4096
 217 0052 1433     	 adds r3,r3,#20
 218 0054 7A68     	 ldr r2,[r7,#4]
 219 0056 1A60     	 str r2,[r3]
 429:../Startup/system_XMC4300.c **** }
 220              	 .loc 1 429 0
 221 0058 0C37     	 adds r7,r7,#12
 222              	.LCFI11:
 223              	 .cfi_def_cfa_offset 4
 224 005a BD46     	 mov sp,r7
 225              	.LCFI12:
 226              	 .cfi_def_cfa_register 13
 227              	 
 228 005c 5DF8047B 	 ldr r7,[sp],#4
 229              	.LCFI13:
 230              	 .cfi_restore 7
 231              	 .cfi_def_cfa_offset 0
 232 0060 7047     	 bx lr
 233              	.L9:
 234 0062 00BF     	 .align 2
 235              	.L8:
 236 0064 00ED00E0 	 .word -536810240
 237 0068 00000000 	 .word __Vectors
 238 006c 00100058 	 .word 1476399104
 239              	 .cfi_endproc
 240              	.LFE135:
 242              	 .section .text.SystemCoreClockSetup,"ax",%progbits
 243              	 .align 2
 244              	 .weak SystemCoreClockSetup
 245              	 .thumb
 246              	 .thumb_func
 248              	SystemCoreClockSetup:
 249              	.LFB136:
 430:../Startup/system_XMC4300.c **** 
 431:../Startup/system_XMC4300.c **** __WEAK void SystemCoreClockSetup(void)
 432:../Startup/system_XMC4300.c **** {
 250              	 .loc 1 432 0
 251              	 .cfi_startproc
 252              	 
 253              	 
 254 0000 80B5     	 push {r7,lr}
 255              	.LCFI14:
 256              	 .cfi_def_cfa_offset 8
 257              	 .cfi_offset 7,-8
 258              	 .cfi_offset 14,-4
 259 0002 00AF     	 add r7,sp,#0
 260              	.LCFI15:
 261              	 .cfi_def_cfa_register 7
 433:../Startup/system_XMC4300.c **** #if FOFI_CALIBRATION_MODE == FOFI_CALIBRATION_MODE_FACTORY
 434:../Startup/system_XMC4300.c ****   /* Enable factory calibration */
 435:../Startup/system_XMC4300.c ****   SCU_PLL->PLLCON0 |= SCU_PLL_PLLCON0_FOTR_Msk;
 436:../Startup/system_XMC4300.c **** #else
 437:../Startup/system_XMC4300.c ****   /* Automatic calibration uses the fSTDBY */
 438:../Startup/system_XMC4300.c **** 
 439:../Startup/system_XMC4300.c ****   /* Enable HIB domain */
 440:../Startup/system_XMC4300.c ****   /* Power up HIB domain if and only if it is currently powered down */
 441:../Startup/system_XMC4300.c ****   if((SCU_POWER->PWRSTAT & SCU_POWER_PWRSTAT_HIBEN_Msk) == 0)
 262              	 .loc 1 441 0
 263 0004 A74B     	 ldr r3,.L30
 264 0006 1B68     	 ldr r3,[r3]
 265 0008 03F00103 	 and r3,r3,#1
 266 000c 002B     	 cmp r3,#0
 267 000e 0CD1     	 bne .L11
 442:../Startup/system_XMC4300.c ****   {
 443:../Startup/system_XMC4300.c ****     SCU_POWER->PWRSET |= SCU_POWER_PWRSET_HIB_Msk;
 268              	 .loc 1 443 0
 269 0010 A44A     	 ldr r2,.L30
 270 0012 A44B     	 ldr r3,.L30
 271 0014 5B68     	 ldr r3,[r3,#4]
 272 0016 43F00103 	 orr r3,r3,#1
 273 001a 5360     	 str r3,[r2,#4]
 444:../Startup/system_XMC4300.c **** 
 445:../Startup/system_XMC4300.c ****     while((SCU_POWER->PWRSTAT & SCU_POWER_PWRSTAT_HIBEN_Msk) == 0)
 274              	 .loc 1 445 0
 275 001c 00BF     	 nop
 276              	.L12:
 277              	 .loc 1 445 0 is_stmt 0 discriminator 1
 278 001e A14B     	 ldr r3,.L30
 279 0020 1B68     	 ldr r3,[r3]
 280 0022 03F00103 	 and r3,r3,#1
 281 0026 002B     	 cmp r3,#0
 282 0028 F9D0     	 beq .L12
 283              	.L11:
 446:../Startup/system_XMC4300.c ****     {
 447:../Startup/system_XMC4300.c ****       /* wait until HIB domain is enabled */
 448:../Startup/system_XMC4300.c ****     }
 449:../Startup/system_XMC4300.c ****   }
 450:../Startup/system_XMC4300.c **** 
 451:../Startup/system_XMC4300.c ****   /* Remove the reset only if HIB domain were in a state of reset */
 452:../Startup/system_XMC4300.c ****   if((SCU_RESET->RSTSTAT) & SCU_RESET_RSTSTAT_HIBRS_Msk)
 284              	 .loc 1 452 0 is_stmt 1
 285 002a 9F4B     	 ldr r3,.L30+4
 286 002c 1B68     	 ldr r3,[r3]
 287 002e 03F40073 	 and r3,r3,#512
 288 0032 002B     	 cmp r3,#0
 289 0034 09D0     	 beq .L13
 453:../Startup/system_XMC4300.c ****   {
 454:../Startup/system_XMC4300.c ****     SCU_RESET->RSTCLR |= SCU_RESET_RSTCLR_HIBRS_Msk;
 290              	 .loc 1 454 0
 291 0036 9C4A     	 ldr r2,.L30+4
 292 0038 9B4B     	 ldr r3,.L30+4
 293 003a 9B68     	 ldr r3,[r3,#8]
 294 003c 43F40073 	 orr r3,r3,#512
 295 0040 9360     	 str r3,[r2,#8]
 455:../Startup/system_XMC4300.c ****     delay(DELAY_CNT_150US_50MHZ);
 296              	 .loc 1 455 0
 297 0042 41F64C50 	 movw r0,#7500
 298 0046 FFF7FEFF 	 bl delay
 299              	.L13:
 456:../Startup/system_XMC4300.c ****   }
 457:../Startup/system_XMC4300.c **** 
 458:../Startup/system_XMC4300.c **** #if STDBY_CLOCK_SRC == STDBY_CLOCK_SRC_OSCULP
 459:../Startup/system_XMC4300.c ****   /* Enable OSC_ULP */
 460:../Startup/system_XMC4300.c ****   if ((SCU_HIBERNATE->OSCULCTRL & SCU_HIBERNATE_OSCULCTRL_MODE_Msk) != 0UL)
 461:../Startup/system_XMC4300.c ****   {
 462:../Startup/system_XMC4300.c ****     /*enable OSC_ULP*/
 463:../Startup/system_XMC4300.c ****     while (SCU_GENERAL->MIRRSTS & SCU_GENERAL_MIRRSTS_OSCULCTRL_Msk)
 464:../Startup/system_XMC4300.c ****     {
 465:../Startup/system_XMC4300.c ****       /* check SCU_MIRRSTS to ensure that no transfer over serial interface is pending */
 466:../Startup/system_XMC4300.c ****     }
 467:../Startup/system_XMC4300.c ****     SCU_HIBERNATE->OSCULCTRL &= ~SCU_HIBERNATE_OSCULCTRL_MODE_Msk;
 468:../Startup/system_XMC4300.c **** 
 469:../Startup/system_XMC4300.c ****     /* Check if the clock is OK using OSCULP Oscillator Watchdog*/
 470:../Startup/system_XMC4300.c ****     while (SCU_GENERAL->MIRRSTS & SCU_GENERAL_MIRRSTS_HDCR_Msk)
 471:../Startup/system_XMC4300.c ****     {
 472:../Startup/system_XMC4300.c ****       /* check SCU_MIRRSTS to ensure that no transfer over serial interface is pending */
 473:../Startup/system_XMC4300.c ****     }
 474:../Startup/system_XMC4300.c ****     SCU_HIBERNATE->HDCR |= SCU_HIBERNATE_HDCR_ULPWDGEN_Msk;
 475:../Startup/system_XMC4300.c **** 
 476:../Startup/system_XMC4300.c ****     /* wait till clock is stable */
 477:../Startup/system_XMC4300.c ****     do
 478:../Startup/system_XMC4300.c ****     {
 479:../Startup/system_XMC4300.c ****       while (SCU_GENERAL->MIRRSTS & SCU_GENERAL_MIRRSTS_HDCLR_Msk)
 480:../Startup/system_XMC4300.c ****       {
 481:../Startup/system_XMC4300.c ****         /* check SCU_MIRRSTS to ensure that no transfer over serial interface is pending */
 482:../Startup/system_XMC4300.c ****       }
 483:../Startup/system_XMC4300.c ****       SCU_HIBERNATE->HDCLR |= SCU_HIBERNATE_HDCLR_ULPWDG_Msk;
 484:../Startup/system_XMC4300.c **** 
 485:../Startup/system_XMC4300.c ****       delay(DELAY_CNT_50US_50MHZ);
 486:../Startup/system_XMC4300.c **** 
 487:../Startup/system_XMC4300.c ****     } while ((SCU_HIBERNATE->HDSTAT & SCU_HIBERNATE_HDSTAT_ULPWDG_Msk) != 0UL);
 488:../Startup/system_XMC4300.c **** 
 489:../Startup/system_XMC4300.c ****   }
 490:../Startup/system_XMC4300.c **** 
 491:../Startup/system_XMC4300.c ****   /* now OSC_ULP is running and can be used*/
 492:../Startup/system_XMC4300.c ****   /* Select OSC_ULP as the clock source for RTC and STDBY*/
 493:../Startup/system_XMC4300.c ****   while (SCU_GENERAL->MIRRSTS & SCU_GENERAL_MIRRSTS_HDCR_Msk)
 494:../Startup/system_XMC4300.c ****   {
 495:../Startup/system_XMC4300.c ****     /* check SCU_MIRRSTS to ensure that no transfer over serial interface is pending */
 496:../Startup/system_XMC4300.c ****   }
 497:../Startup/system_XMC4300.c ****   SCU_HIBERNATE->HDCR |= SCU_HIBERNATE_HDCR_RCS_Msk | SCU_HIBERNATE_HDCR_STDBYSEL_Msk;
 498:../Startup/system_XMC4300.c **** #endif /* STDBY_CLOCK_SRC == STDBY_CLOCK_SRC_OSCULP */
 499:../Startup/system_XMC4300.c **** 
 500:../Startup/system_XMC4300.c ****   /* Enable automatic calibration of internal fast oscillator */
 501:../Startup/system_XMC4300.c ****   SCU_PLL->PLLCON0 |= SCU_PLL_PLLCON0_AOTREN_Msk;
 300              	 .loc 1 501 0
 301 004a 984A     	 ldr r2,.L30+8
 302 004c 974B     	 ldr r3,.L30+8
 303 004e 5B68     	 ldr r3,[r3,#4]
 304 0050 43F40023 	 orr r3,r3,#524288
 305 0054 5360     	 str r3,[r2,#4]
 502:../Startup/system_XMC4300.c **** #endif /* FOFI_CALIBRATION_MODE == FOFI_CALIBRATION_MODE_AUTOMATIC */
 503:../Startup/system_XMC4300.c **** 
 504:../Startup/system_XMC4300.c ****   delay(DELAY_CNT_50US_50MHZ);
 306              	 .loc 1 504 0
 307 0056 40F6C410 	 movw r0,#2500
 308 005a FFF7FEFF 	 bl delay
 505:../Startup/system_XMC4300.c **** 
 506:../Startup/system_XMC4300.c **** #if ENABLE_PLL
 507:../Startup/system_XMC4300.c **** 
 508:../Startup/system_XMC4300.c ****   /* enable PLL */
 509:../Startup/system_XMC4300.c ****   SCU_PLL->PLLCON0 &= ~(SCU_PLL_PLLCON0_VCOPWD_Msk | SCU_PLL_PLLCON0_PLLPWD_Msk);
 309              	 .loc 1 509 0
 310 005e 934A     	 ldr r2,.L30+8
 311 0060 924B     	 ldr r3,.L30+8
 312 0062 5B68     	 ldr r3,[r3,#4]
 313 0064 23F48033 	 bic r3,r3,#65536
 314 0068 23F00203 	 bic r3,r3,#2
 315 006c 5360     	 str r3,[r2,#4]
 510:../Startup/system_XMC4300.c **** 
 511:../Startup/system_XMC4300.c **** #if PLL_CLOCK_SRC != PLL_CLOCK_SRC_OFI
 512:../Startup/system_XMC4300.c ****   /* enable OSC_HP */
 513:../Startup/system_XMC4300.c ****   if ((SCU_OSC->OSCHPCTRL & SCU_OSC_OSCHPCTRL_MODE_Msk) != 0U)
 316              	 .loc 1 513 0
 317 006e 904B     	 ldr r3,.L30+12
 318 0070 5B68     	 ldr r3,[r3,#4]
 319 0072 03F03003 	 and r3,r3,#48
 320 0076 002B     	 cmp r3,#0
 321 0078 26D0     	 beq .L14
 514:../Startup/system_XMC4300.c ****   {
 515:../Startup/system_XMC4300.c ****     SCU_OSC->OSCHPCTRL &= ~(SCU_OSC_OSCHPCTRL_MODE_Msk | SCU_OSC_OSCHPCTRL_OSCVAL_Msk);
 322              	 .loc 1 515 0
 323 007a 8D4A     	 ldr r2,.L30+12
 324 007c 8C4B     	 ldr r3,.L30+12
 325 007e 5B68     	 ldr r3,[r3,#4]
 326 0080 23F47023 	 bic r3,r3,#983040
 327 0084 23F03003 	 bic r3,r3,#48
 328 0088 5360     	 str r3,[r2,#4]
 516:../Startup/system_XMC4300.c ****     SCU_OSC->OSCHPCTRL |= ((OSCHP_GetFrequency() / FOSCREF) - 1UL) << SCU_OSC_OSCHPCTRL_OSCVAL_Pos;
 329              	 .loc 1 516 0
 330 008a FFF7FEFF 	 bl OSCHP_GetFrequency
 331 008e 0246     	 mov r2,r0
 332 0090 884B     	 ldr r3,.L30+16
 333 0092 A3FB0223 	 umull r2,r3,r3,r2
 334 0096 1B0D     	 lsrs r3,r3,#20
 335 0098 013B     	 subs r3,r3,#1
 336 009a 1B04     	 lsls r3,r3,#16
 337 009c 8449     	 ldr r1,.L30+12
 338 009e 844A     	 ldr r2,.L30+12
 339 00a0 5268     	 ldr r2,[r2,#4]
 340 00a2 1343     	 orrs r3,r3,r2
 341 00a4 4B60     	 str r3,[r1,#4]
 517:../Startup/system_XMC4300.c **** 
 518:../Startup/system_XMC4300.c ****     /* select OSC_HP clock as PLL input */
 519:../Startup/system_XMC4300.c ****     SCU_PLL->PLLCON2 = 0;
 342              	 .loc 1 519 0
 343 00a6 814B     	 ldr r3,.L30+8
 344 00a8 0022     	 movs r2,#0
 345 00aa DA60     	 str r2,[r3,#12]
 520:../Startup/system_XMC4300.c **** 
 521:../Startup/system_XMC4300.c ****     /* restart OSC Watchdog */
 522:../Startup/system_XMC4300.c ****     SCU_PLL->PLLCON0 &= ~SCU_PLL_PLLCON0_OSCRES_Msk;
 346              	 .loc 1 522 0
 347 00ac 7F4A     	 ldr r2,.L30+8
 348 00ae 7F4B     	 ldr r3,.L30+8
 349 00b0 5B68     	 ldr r3,[r3,#4]
 350 00b2 23F40033 	 bic r3,r3,#131072
 351 00b6 5360     	 str r3,[r2,#4]
 523:../Startup/system_XMC4300.c **** 
 524:../Startup/system_XMC4300.c ****     while ((SCU_PLL->PLLSTAT & SCU_PLL_PLLSTAT_OSC_USABLE) != SCU_PLL_PLLSTAT_OSC_USABLE)
 352              	 .loc 1 524 0
 353 00b8 00BF     	 nop
 354              	.L15:
 355              	 .loc 1 524 0 is_stmt 0 discriminator 1
 356 00ba 7C4B     	 ldr r3,.L30+8
 357 00bc 1B68     	 ldr r3,[r3]
 358 00be 03F46073 	 and r3,r3,#896
 359 00c2 B3F5607F 	 cmp r3,#896
 360 00c6 F8D1     	 bne .L15
 361              	.L14:
 525:../Startup/system_XMC4300.c ****     {
 526:../Startup/system_XMC4300.c ****       /* wait till OSC_HP output frequency is usable */
 527:../Startup/system_XMC4300.c ****     }
 528:../Startup/system_XMC4300.c ****   }
 529:../Startup/system_XMC4300.c **** #else /* PLL_CLOCK_SRC != PLL_CLOCK_SRC_OFI */
 530:../Startup/system_XMC4300.c **** 
 531:../Startup/system_XMC4300.c ****   /* select backup clock as PLL input */
 532:../Startup/system_XMC4300.c ****   SCU_PLL->PLLCON2 = SCU_PLL_PLLCON2_PINSEL_Msk | SCU_PLL_PLLCON2_K1INSEL_Msk;
 533:../Startup/system_XMC4300.c **** #endif
 534:../Startup/system_XMC4300.c **** 
 535:../Startup/system_XMC4300.c ****   /* Go to bypass the Main PLL */
 536:../Startup/system_XMC4300.c ****   SCU_PLL->PLLCON0 |= SCU_PLL_PLLCON0_VCOBYP_Msk;
 362              	 .loc 1 536 0 is_stmt 1
 363 00c8 784A     	 ldr r2,.L30+8
 364 00ca 784B     	 ldr r3,.L30+8
 365 00cc 5B68     	 ldr r3,[r3,#4]
 366 00ce 43F00103 	 orr r3,r3,#1
 367 00d2 5360     	 str r3,[r2,#4]
 537:../Startup/system_XMC4300.c ****   while ((SCU_PLL->PLLSTAT & SCU_PLL_PLLSTAT_VCOBYST_Msk) == 0U)
 368              	 .loc 1 537 0
 369 00d4 00BF     	 nop
 370              	.L16:
 371              	 .loc 1 537 0 is_stmt 0 discriminator 1
 372 00d6 754B     	 ldr r3,.L30+8
 373 00d8 1B68     	 ldr r3,[r3]
 374 00da 03F00103 	 and r3,r3,#1
 375 00de 002B     	 cmp r3,#0
 376 00e0 F9D0     	 beq .L16
 538:../Startup/system_XMC4300.c ****   {
 539:../Startup/system_XMC4300.c ****     /* wait for prescaler mode */
 540:../Startup/system_XMC4300.c ****   }
 541:../Startup/system_XMC4300.c **** 
 542:../Startup/system_XMC4300.c ****   /* disconnect Oscillator from PLL */
 543:../Startup/system_XMC4300.c ****   SCU_PLL->PLLCON0 |= SCU_PLL_PLLCON0_FINDIS_Msk;
 377              	 .loc 1 543 0 is_stmt 1
 378 00e2 724A     	 ldr r2,.L30+8
 379 00e4 714B     	 ldr r3,.L30+8
 380 00e6 5B68     	 ldr r3,[r3,#4]
 381 00e8 43F01003 	 orr r3,r3,#16
 382 00ec 5360     	 str r3,[r2,#4]
 544:../Startup/system_XMC4300.c **** 
 545:../Startup/system_XMC4300.c ****   /* Setup divider settings for main PLL */
 546:../Startup/system_XMC4300.c ****   SCU_PLL->PLLCON1 = ((PLL_NDIV << SCU_PLL_PLLCON1_NDIV_Pos) |
 383              	 .loc 1 546 0
 384 00ee 6F4B     	 ldr r3,.L30+8
 385 00f0 714A     	 ldr r2,.L30+20
 386 00f2 9A60     	 str r2,[r3,#8]
 547:../Startup/system_XMC4300.c ****                       (PLL_K2DIV_24MHZ << SCU_PLL_PLLCON1_K2DIV_Pos) |
 548:../Startup/system_XMC4300.c ****                       (PLL_PDIV << SCU_PLL_PLLCON1_PDIV_Pos));
 549:../Startup/system_XMC4300.c **** 
 550:../Startup/system_XMC4300.c ****   /* Set OSCDISCDIS */
 551:../Startup/system_XMC4300.c ****   SCU_PLL->PLLCON0 |= SCU_PLL_PLLCON0_OSCDISCDIS_Msk;
 387              	 .loc 1 551 0
 388 00f4 6D4A     	 ldr r2,.L30+8
 389 00f6 6D4B     	 ldr r3,.L30+8
 390 00f8 5B68     	 ldr r3,[r3,#4]
 391 00fa 43F04003 	 orr r3,r3,#64
 392 00fe 5360     	 str r3,[r2,#4]
 552:../Startup/system_XMC4300.c **** 
 553:../Startup/system_XMC4300.c ****   /* connect Oscillator to PLL */
 554:../Startup/system_XMC4300.c ****   SCU_PLL->PLLCON0 &= ~SCU_PLL_PLLCON0_FINDIS_Msk;
 393              	 .loc 1 554 0
 394 0100 6A4A     	 ldr r2,.L30+8
 395 0102 6A4B     	 ldr r3,.L30+8
 396 0104 5B68     	 ldr r3,[r3,#4]
 397 0106 23F01003 	 bic r3,r3,#16
 398 010a 5360     	 str r3,[r2,#4]
 555:../Startup/system_XMC4300.c **** 
 556:../Startup/system_XMC4300.c ****   /* restart PLL Lock detection */
 557:../Startup/system_XMC4300.c ****   SCU_PLL->PLLCON0 |= SCU_PLL_PLLCON0_RESLD_Msk;
 399              	 .loc 1 557 0
 400 010c 674A     	 ldr r2,.L30+8
 401 010e 674B     	 ldr r3,.L30+8
 402 0110 5B68     	 ldr r3,[r3,#4]
 403 0112 43F48023 	 orr r3,r3,#262144
 404 0116 5360     	 str r3,[r2,#4]
 558:../Startup/system_XMC4300.c **** 
 559:../Startup/system_XMC4300.c ****   while ((SCU_PLL->PLLSTAT & SCU_PLL_PLLSTAT_VCOLOCK_Msk) == 0U)
 405              	 .loc 1 559 0
 406 0118 00BF     	 nop
 407              	.L17:
 408              	 .loc 1 559 0 is_stmt 0 discriminator 1
 409 011a 644B     	 ldr r3,.L30+8
 410 011c 1B68     	 ldr r3,[r3]
 411 011e 03F00403 	 and r3,r3,#4
 412 0122 002B     	 cmp r3,#0
 413 0124 F9D0     	 beq .L17
 560:../Startup/system_XMC4300.c ****   {
 561:../Startup/system_XMC4300.c ****     /* wait for PLL Lock at 24MHz*/
 562:../Startup/system_XMC4300.c ****   }
 563:../Startup/system_XMC4300.c **** 
 564:../Startup/system_XMC4300.c ****   /* Disable bypass- put PLL clock back */
 565:../Startup/system_XMC4300.c ****   SCU_PLL->PLLCON0 &= ~SCU_PLL_PLLCON0_VCOBYP_Msk;
 414              	 .loc 1 565 0 is_stmt 1
 415 0126 614A     	 ldr r2,.L30+8
 416 0128 604B     	 ldr r3,.L30+8
 417 012a 5B68     	 ldr r3,[r3,#4]
 418 012c 23F00103 	 bic r3,r3,#1
 419 0130 5360     	 str r3,[r2,#4]
 566:../Startup/system_XMC4300.c ****   while ((SCU_PLL->PLLSTAT & SCU_PLL_PLLSTAT_VCOBYST_Msk) != 0U)
 420              	 .loc 1 566 0
 421 0132 00BF     	 nop
 422              	.L18:
 423              	 .loc 1 566 0 is_stmt 0 discriminator 1
 424 0134 5D4B     	 ldr r3,.L30+8
 425 0136 1B68     	 ldr r3,[r3]
 426 0138 03F00103 	 and r3,r3,#1
 427 013c 002B     	 cmp r3,#0
 428 013e F9D1     	 bne .L18
 567:../Startup/system_XMC4300.c ****   {
 568:../Startup/system_XMC4300.c ****     /* wait for normal mode */
 569:../Startup/system_XMC4300.c ****   }
 570:../Startup/system_XMC4300.c **** #endif /* ENABLE_PLL */
 571:../Startup/system_XMC4300.c **** 
 572:../Startup/system_XMC4300.c ****   /* Before scaling to final frequency we need to setup the clock dividers */
 573:../Startup/system_XMC4300.c ****   SCU_CLK->SYSCLKCR = __SYSCLKCR;
 429              	 .loc 1 573 0 is_stmt 1
 430 0140 5E4B     	 ldr r3,.L30+24
 431 0142 4FF00112 	 mov r2,#65537
 432 0146 DA60     	 str r2,[r3,#12]
 574:../Startup/system_XMC4300.c ****   SCU_CLK->PBCLKCR = __PBCLKCR;
 433              	 .loc 1 574 0
 434 0148 5C4B     	 ldr r3,.L30+24
 435 014a 0022     	 movs r2,#0
 436 014c 5A61     	 str r2,[r3,#20]
 575:../Startup/system_XMC4300.c ****   SCU_CLK->CPUCLKCR = __CPUCLKCR;
 437              	 .loc 1 575 0
 438 014e 5B4B     	 ldr r3,.L30+24
 439 0150 0022     	 movs r2,#0
 440 0152 1A61     	 str r2,[r3,#16]
 576:../Startup/system_XMC4300.c ****   SCU_CLK->CCUCLKCR = __CCUCLKCR;
 441              	 .loc 1 576 0
 442 0154 594B     	 ldr r3,.L30+24
 443 0156 0022     	 movs r2,#0
 444 0158 1A62     	 str r2,[r3,#32]
 577:../Startup/system_XMC4300.c ****   SCU_CLK->WDTCLKCR = __WDTCLKCR;
 445              	 .loc 1 577 0
 446 015a 584B     	 ldr r3,.L30+24
 447 015c 0022     	 movs r2,#0
 448 015e 5A62     	 str r2,[r3,#36]
 578:../Startup/system_XMC4300.c ****   SCU_CLK->USBCLKCR = __USBCLKCR;
 449              	 .loc 1 578 0
 450 0160 564B     	 ldr r3,.L30+24
 451 0162 574A     	 ldr r2,.L30+28
 452 0164 9A61     	 str r2,[r3,#24]
 579:../Startup/system_XMC4300.c ****   SCU_CLK->ECATCLKCR = __ECATCLKCR;
 453              	 .loc 1 579 0
 454 0166 554B     	 ldr r3,.L30+24
 455 0168 0122     	 movs r2,#1
 456 016a 9A63     	 str r2,[r3,#56]
 580:../Startup/system_XMC4300.c ****   SCU_CLK->EXTCLKCR = __EXTCLKCR;
 457              	 .loc 1 580 0
 458 016c 534B     	 ldr r3,.L30+24
 459 016e 554A     	 ldr r2,.L30+32
 460 0170 9A62     	 str r2,[r3,#40]
 581:../Startup/system_XMC4300.c **** 
 582:../Startup/system_XMC4300.c **** #if ENABLE_PLL
 583:../Startup/system_XMC4300.c ****   /* PLL frequency stepping...*/
 584:../Startup/system_XMC4300.c ****   /* Reset OSCDISCDIS */
 585:../Startup/system_XMC4300.c ****   SCU_PLL->PLLCON0 &= ~SCU_PLL_PLLCON0_OSCDISCDIS_Msk;
 461              	 .loc 1 585 0
 462 0172 4E4A     	 ldr r2,.L30+8
 463 0174 4D4B     	 ldr r3,.L30+8
 464 0176 5B68     	 ldr r3,[r3,#4]
 465 0178 23F04003 	 bic r3,r3,#64
 466 017c 5360     	 str r3,[r2,#4]
 586:../Startup/system_XMC4300.c **** 
 587:../Startup/system_XMC4300.c ****   SCU_PLL->PLLCON1 = ((PLL_NDIV << SCU_PLL_PLLCON1_NDIV_Pos) |
 467              	 .loc 1 587 0
 468 017e 4B4B     	 ldr r3,.L30+8
 469 0180 514A     	 ldr r2,.L30+36
 470 0182 9A60     	 str r2,[r3,#8]
 588:../Startup/system_XMC4300.c **** 	                  (PLL_K2DIV_48MHZ << SCU_PLL_PLLCON1_K2DIV_Pos) |
 589:../Startup/system_XMC4300.c **** 	                  (PLL_PDIV << SCU_PLL_PLLCON1_PDIV_Pos));
 590:../Startup/system_XMC4300.c **** 
 591:../Startup/system_XMC4300.c ****   while ((SCU_PLL->PLLSTAT & SCU_PLL_PLLSTAT_K2RDY_Msk) == 0U)
 471              	 .loc 1 591 0
 472 0184 00BF     	 nop
 473              	.L19:
 474              	 .loc 1 591 0 is_stmt 0 discriminator 1
 475 0186 494B     	 ldr r3,.L30+8
 476 0188 1B68     	 ldr r3,[r3]
 477 018a 03F02003 	 and r3,r3,#32
 478 018e 002B     	 cmp r3,#0
 479 0190 F9D0     	 beq .L19
 592:../Startup/system_XMC4300.c ****   {
 593:../Startup/system_XMC4300.c ****     /* wait until K2-divider operates on the configured value  */
 594:../Startup/system_XMC4300.c ****   }
 595:../Startup/system_XMC4300.c **** 
 596:../Startup/system_XMC4300.c ****   delay(DELAY_CNT_50US_48MHZ);
 480              	 .loc 1 596 0 is_stmt 1
 481 0192 4FF41660 	 mov r0,#2400
 482 0196 FFF7FEFF 	 bl delay
 597:../Startup/system_XMC4300.c **** 
 598:../Startup/system_XMC4300.c ****   SCU_PLL->PLLCON1 = ((PLL_NDIV << SCU_PLL_PLLCON1_NDIV_Pos) |
 483              	 .loc 1 598 0
 484 019a 444B     	 ldr r3,.L30+8
 485 019c 4B4A     	 ldr r2,.L30+40
 486 019e 9A60     	 str r2,[r3,#8]
 599:../Startup/system_XMC4300.c **** 	                  (PLL_K2DIV_72MHZ << SCU_PLL_PLLCON1_K2DIV_Pos) |
 600:../Startup/system_XMC4300.c **** 	                  (PLL_PDIV << SCU_PLL_PLLCON1_PDIV_Pos));
 601:../Startup/system_XMC4300.c **** 
 602:../Startup/system_XMC4300.c ****   while ((SCU_PLL->PLLSTAT & SCU_PLL_PLLSTAT_K2RDY_Msk) == 0U)
 487              	 .loc 1 602 0
 488 01a0 00BF     	 nop
 489              	.L20:
 490              	 .loc 1 602 0 is_stmt 0 discriminator 1
 491 01a2 424B     	 ldr r3,.L30+8
 492 01a4 1B68     	 ldr r3,[r3]
 493 01a6 03F02003 	 and r3,r3,#32
 494 01aa 002B     	 cmp r3,#0
 495 01ac F9D0     	 beq .L20
 603:../Startup/system_XMC4300.c ****   {
 604:../Startup/system_XMC4300.c ****     /* wait until K2-divider operates on the configured value  */
 605:../Startup/system_XMC4300.c ****   }
 606:../Startup/system_XMC4300.c **** 
 607:../Startup/system_XMC4300.c ****   delay(DELAY_CNT_50US_72MHZ);
 496              	 .loc 1 607 0 is_stmt 1
 497 01ae 4FF46160 	 mov r0,#3600
 498 01b2 FFF7FEFF 	 bl delay
 608:../Startup/system_XMC4300.c **** 
 609:../Startup/system_XMC4300.c ****   SCU_PLL->PLLCON1 = ((PLL_NDIV << SCU_PLL_PLLCON1_NDIV_Pos) |
 499              	 .loc 1 609 0
 500 01b6 3D4B     	 ldr r3,.L30+8
 501 01b8 454A     	 ldr r2,.L30+44
 502 01ba 9A60     	 str r2,[r3,#8]
 610:../Startup/system_XMC4300.c **** 	                  (PLL_K2DIV_96MHZ << SCU_PLL_PLLCON1_K2DIV_Pos) |
 611:../Startup/system_XMC4300.c **** 	                  (PLL_PDIV << SCU_PLL_PLLCON1_PDIV_Pos));
 612:../Startup/system_XMC4300.c **** 
 613:../Startup/system_XMC4300.c ****   while ((SCU_PLL->PLLSTAT & SCU_PLL_PLLSTAT_K2RDY_Msk) == 0U)
 503              	 .loc 1 613 0
 504 01bc 00BF     	 nop
 505              	.L21:
 506              	 .loc 1 613 0 is_stmt 0 discriminator 1
 507 01be 3B4B     	 ldr r3,.L30+8
 508 01c0 1B68     	 ldr r3,[r3]
 509 01c2 03F02003 	 and r3,r3,#32
 510 01c6 002B     	 cmp r3,#0
 511 01c8 F9D0     	 beq .L21
 614:../Startup/system_XMC4300.c ****   {
 615:../Startup/system_XMC4300.c ****     /* wait until K2-divider operates on the configured value  */
 616:../Startup/system_XMC4300.c ****   }
 617:../Startup/system_XMC4300.c **** 
 618:../Startup/system_XMC4300.c ****   delay(DELAY_CNT_50US_96MHZ);
 512              	 .loc 1 618 0 is_stmt 1
 513 01ca 4FF49650 	 mov r0,#4800
 514 01ce FFF7FEFF 	 bl delay
 619:../Startup/system_XMC4300.c **** 
 620:../Startup/system_XMC4300.c ****   SCU_PLL->PLLCON1 = ((PLL_NDIV << SCU_PLL_PLLCON1_NDIV_Pos) |
 515              	 .loc 1 620 0
 516 01d2 364B     	 ldr r3,.L30+8
 517 01d4 3F4A     	 ldr r2,.L30+48
 518 01d6 9A60     	 str r2,[r3,#8]
 621:../Startup/system_XMC4300.c **** 	                  (PLL_K2DIV_120MHZ << SCU_PLL_PLLCON1_K2DIV_Pos) |
 622:../Startup/system_XMC4300.c **** 	                  (PLL_PDIV << SCU_PLL_PLLCON1_PDIV_Pos));
 623:../Startup/system_XMC4300.c **** 
 624:../Startup/system_XMC4300.c ****   while ((SCU_PLL->PLLSTAT & SCU_PLL_PLLSTAT_K2RDY_Msk) == 0U)
 519              	 .loc 1 624 0
 520 01d8 00BF     	 nop
 521              	.L22:
 522              	 .loc 1 624 0 is_stmt 0 discriminator 1
 523 01da 344B     	 ldr r3,.L30+8
 524 01dc 1B68     	 ldr r3,[r3]
 525 01de 03F02003 	 and r3,r3,#32
 526 01e2 002B     	 cmp r3,#0
 527 01e4 F9D0     	 beq .L22
 625:../Startup/system_XMC4300.c ****   {
 626:../Startup/system_XMC4300.c ****     /* wait until K2-divider operates on the configured value  */
 627:../Startup/system_XMC4300.c ****   }
 628:../Startup/system_XMC4300.c **** 
 629:../Startup/system_XMC4300.c ****   delay(DELAY_CNT_50US_120MHZ);
 528              	 .loc 1 629 0 is_stmt 1
 529 01e6 41F27070 	 movw r0,#6000
 530 01ea FFF7FEFF 	 bl delay
 630:../Startup/system_XMC4300.c **** 
 631:../Startup/system_XMC4300.c ****   SCU_PLL->PLLCON1 = ((PLL_NDIV << SCU_PLL_PLLCON1_NDIV_Pos) |
 531              	 .loc 1 631 0
 532 01ee 2F4B     	 ldr r3,.L30+8
 533 01f0 394A     	 ldr r2,.L30+52
 534 01f2 9A60     	 str r2,[r3,#8]
 632:../Startup/system_XMC4300.c **** 	                  (PLL_K2DIV << SCU_PLL_PLLCON1_K2DIV_Pos) |
 633:../Startup/system_XMC4300.c **** 	                  (PLL_PDIV << SCU_PLL_PLLCON1_PDIV_Pos));
 634:../Startup/system_XMC4300.c **** 
 635:../Startup/system_XMC4300.c ****   while ((SCU_PLL->PLLSTAT & SCU_PLL_PLLSTAT_K2RDY_Msk) == 0U)
 535              	 .loc 1 635 0
 536 01f4 00BF     	 nop
 537              	.L23:
 538              	 .loc 1 635 0 is_stmt 0 discriminator 1
 539 01f6 2D4B     	 ldr r3,.L30+8
 540 01f8 1B68     	 ldr r3,[r3]
 541 01fa 03F02003 	 and r3,r3,#32
 542 01fe 002B     	 cmp r3,#0
 543 0200 F9D0     	 beq .L23
 636:../Startup/system_XMC4300.c ****   {
 637:../Startup/system_XMC4300.c ****     /* wait until K2-divider operates on the configured value  */
 638:../Startup/system_XMC4300.c ****   }
 639:../Startup/system_XMC4300.c **** 
 640:../Startup/system_XMC4300.c ****   delay(DELAY_CNT_50US_144MHZ);
 544              	 .loc 1 640 0 is_stmt 1
 545 0202 4FF4E150 	 mov r0,#7200
 546 0206 FFF7FEFF 	 bl delay
 641:../Startup/system_XMC4300.c **** 
 642:../Startup/system_XMC4300.c ****   SCU_TRAP->TRAPCLR = SCU_TRAP_TRAPCLR_SOSCWDGT_Msk | SCU_TRAP_TRAPCLR_SVCOLCKT_Msk;
 547              	 .loc 1 642 0
 548 020a 344B     	 ldr r3,.L30+56
 549 020c 0522     	 movs r2,#5
 550 020e DA60     	 str r2,[r3,#12]
 643:../Startup/system_XMC4300.c **** #endif /* ENABLE_PLL */
 644:../Startup/system_XMC4300.c **** 
 645:../Startup/system_XMC4300.c **** #if ENABLE_USBPLL
 646:../Startup/system_XMC4300.c ****   /* enable USB PLL first */
 647:../Startup/system_XMC4300.c ****   SCU_PLL->USBPLLCON &= ~(SCU_PLL_USBPLLCON_VCOPWD_Msk | SCU_PLL_USBPLLCON_PLLPWD_Msk);
 551              	 .loc 1 647 0
 552 0210 264A     	 ldr r2,.L30+8
 553 0212 264B     	 ldr r3,.L30+8
 554 0214 5B69     	 ldr r3,[r3,#20]
 555 0216 23F48033 	 bic r3,r3,#65536
 556 021a 23F00203 	 bic r3,r3,#2
 557 021e 5361     	 str r3,[r2,#20]
 648:../Startup/system_XMC4300.c **** 
 649:../Startup/system_XMC4300.c ****   /* USB PLL uses as clock input the OSC_HP */
 650:../Startup/system_XMC4300.c ****   /* check and if not already running enable OSC_HP */
 651:../Startup/system_XMC4300.c ****   if ((SCU_OSC->OSCHPCTRL & SCU_OSC_OSCHPCTRL_MODE_Msk) != 0U)
 558              	 .loc 1 651 0
 559 0220 234B     	 ldr r3,.L30+12
 560 0222 5B68     	 ldr r3,[r3,#4]
 561 0224 03F03003 	 and r3,r3,#48
 562 0228 002B     	 cmp r3,#0
 563 022a 31D0     	 beq .L24
 652:../Startup/system_XMC4300.c ****   {
 653:../Startup/system_XMC4300.c ****     /* check if Main PLL is switched on for OSC WDG*/
 654:../Startup/system_XMC4300.c ****     if ((SCU_PLL->PLLCON0 &(SCU_PLL_PLLCON0_VCOPWD_Msk | SCU_PLL_PLLCON0_PLLPWD_Msk)) != 0UL)
 564              	 .loc 1 654 0
 565 022c 1F4B     	 ldr r3,.L30+8
 566 022e 5A68     	 ldr r2,[r3,#4]
 567 0230 2B4B     	 ldr r3,.L30+60
 568 0232 1340     	 ands r3,r3,r2
 569 0234 002B     	 cmp r3,#0
 570 0236 07D0     	 beq .L25
 655:../Startup/system_XMC4300.c ****     {
 656:../Startup/system_XMC4300.c ****       /* enable PLL first */
 657:../Startup/system_XMC4300.c ****       SCU_PLL->PLLCON0 &= ~(SCU_PLL_PLLCON0_VCOPWD_Msk | SCU_PLL_PLLCON0_PLLPWD_Msk);
 571              	 .loc 1 657 0
 572 0238 1C4A     	 ldr r2,.L30+8
 573 023a 1C4B     	 ldr r3,.L30+8
 574 023c 5B68     	 ldr r3,[r3,#4]
 575 023e 23F48033 	 bic r3,r3,#65536
 576 0242 23F00203 	 bic r3,r3,#2
 577 0246 5360     	 str r3,[r2,#4]
 578              	.L25:
 658:../Startup/system_XMC4300.c ****     }
 659:../Startup/system_XMC4300.c **** 
 660:../Startup/system_XMC4300.c ****     SCU_OSC->OSCHPCTRL &= ~(SCU_OSC_OSCHPCTRL_MODE_Msk | SCU_OSC_OSCHPCTRL_OSCVAL_Msk);
 579              	 .loc 1 660 0
 580 0248 194A     	 ldr r2,.L30+12
 581 024a 194B     	 ldr r3,.L30+12
 582 024c 5B68     	 ldr r3,[r3,#4]
 583 024e 23F47023 	 bic r3,r3,#983040
 584 0252 23F03003 	 bic r3,r3,#48
 585 0256 5360     	 str r3,[r2,#4]
 661:../Startup/system_XMC4300.c ****     SCU_OSC->OSCHPCTRL |= ((OSCHP_GetFrequency() / FOSCREF) - 1UL) << SCU_OSC_OSCHPCTRL_OSCVAL_Pos;
 586              	 .loc 1 661 0
 587 0258 FFF7FEFF 	 bl OSCHP_GetFrequency
 588 025c 0246     	 mov r2,r0
 589 025e 154B     	 ldr r3,.L30+16
 590 0260 A3FB0223 	 umull r2,r3,r3,r2
 591 0264 1B0D     	 lsrs r3,r3,#20
 592 0266 013B     	 subs r3,r3,#1
 593 0268 1B04     	 lsls r3,r3,#16
 594 026a 1149     	 ldr r1,.L30+12
 595 026c 104A     	 ldr r2,.L30+12
 596 026e 5268     	 ldr r2,[r2,#4]
 597 0270 1343     	 orrs r3,r3,r2
 598 0272 4B60     	 str r3,[r1,#4]
 662:../Startup/system_XMC4300.c **** 
 663:../Startup/system_XMC4300.c ****     /* restart OSC Watchdog */
 664:../Startup/system_XMC4300.c ****     SCU_PLL->PLLCON0 &= ~SCU_PLL_PLLCON0_OSCRES_Msk;
 599              	 .loc 1 664 0
 600 0274 0D4A     	 ldr r2,.L30+8
 601 0276 0D4B     	 ldr r3,.L30+8
 602 0278 5B68     	 ldr r3,[r3,#4]
 603 027a 23F40033 	 bic r3,r3,#131072
 604 027e 5360     	 str r3,[r2,#4]
 665:../Startup/system_XMC4300.c **** 
 666:../Startup/system_XMC4300.c ****     while ((SCU_PLL->PLLSTAT & SCU_PLL_PLLSTAT_OSC_USABLE) != SCU_PLL_PLLSTAT_OSC_USABLE)
 605              	 .loc 1 666 0
 606 0280 00BF     	 nop
 607              	.L26:
 608              	 .loc 1 666 0 is_stmt 0 discriminator 1
 609 0282 0A4B     	 ldr r3,.L30+8
 610 0284 1B68     	 ldr r3,[r3]
 611 0286 03F46073 	 and r3,r3,#896
 612 028a B3F5607F 	 cmp r3,#896
 613 028e F8D1     	 bne .L26
 614              	.L24:
 667:../Startup/system_XMC4300.c ****     {
 668:../Startup/system_XMC4300.c ****       /* wait till OSC_HP output frequency is usable */
 669:../Startup/system_XMC4300.c ****     }
 670:../Startup/system_XMC4300.c ****   }
 671:../Startup/system_XMC4300.c **** 
 672:../Startup/system_XMC4300.c ****   /* Setup USB PLL */
 673:../Startup/system_XMC4300.c ****   /* Go to bypass the USB PLL */
 674:../Startup/system_XMC4300.c ****   SCU_PLL->USBPLLCON |= SCU_PLL_USBPLLCON_VCOBYP_Msk;
 615              	 .loc 1 674 0 is_stmt 1
 616 0290 064A     	 ldr r2,.L30+8
 617 0292 064B     	 ldr r3,.L30+8
 618 0294 5B69     	 ldr r3,[r3,#20]
 619 0296 43F00103 	 orr r3,r3,#1
 620 029a 5361     	 str r3,[r2,#20]
 675:../Startup/system_XMC4300.c ****   while ((SCU_PLL->USBPLLSTAT & SCU_PLL_USBPLLSTAT_VCOBYST_Msk) == 0U)
 621              	 .loc 1 675 0
 622 029c 00BF     	 nop
 623              	.L27:
 624              	 .loc 1 675 0 is_stmt 0 discriminator 1
 625 029e 034B     	 ldr r3,.L30+8
 626 02a0 1B69     	 ldr r3,[r3,#16]
 627 02a2 1FE0     	 b .L31
 628              	.L32:
 629              	 .align 2
 630              	.L30:
 631 02a4 00420050 	 .word 1342194176
 632 02a8 00440050 	 .word 1342194688
 633 02ac 10470050 	 .word 1342195472
 634 02b0 00470050 	 .word 1342195456
 635 02b4 6BCA5F6B 	 .word 1801439851
 636 02b8 002F0B01 	 .word 17510144
 637 02bc 00460050 	 .word 1342195200
 638 02c0 05000100 	 .word 65541
 639 02c4 03002001 	 .word 18874371
 640 02c8 002F0501 	 .word 17116928
 641 02cc 002F0301 	 .word 16985856
 642 02d0 002F0201 	 .word 16920320
 643 02d4 002F0101 	 .word 16854784
 644 02d8 002F0001 	 .word 16789248
 645 02dc 60410050 	 .word 1342194016
 646 02e0 02000100 	 .word 65538
 647              	.L31:
 648 02e4 03F00103 	 and r3,r3,#1
 649 02e8 002B     	 cmp r3,#0
 650 02ea D8D0     	 beq .L27
 676:../Startup/system_XMC4300.c ****   {
 677:../Startup/system_XMC4300.c ****     /* wait for prescaler mode */
 678:../Startup/system_XMC4300.c ****   }
 679:../Startup/system_XMC4300.c **** 
 680:../Startup/system_XMC4300.c ****   /* disconnect Oscillator from USB PLL */
 681:../Startup/system_XMC4300.c ****   SCU_PLL->USBPLLCON |= SCU_PLL_USBPLLCON_FINDIS_Msk;
 651              	 .loc 1 681 0 is_stmt 1
 652 02ec 1E4A     	 ldr r2,.L33
 653 02ee 1E4B     	 ldr r3,.L33
 654 02f0 5B69     	 ldr r3,[r3,#20]
 655 02f2 43F01003 	 orr r3,r3,#16
 656 02f6 5361     	 str r3,[r2,#20]
 682:../Startup/system_XMC4300.c **** 
 683:../Startup/system_XMC4300.c ****   /* Setup Divider settings for USB PLL */
 684:../Startup/system_XMC4300.c ****   SCU_PLL->USBPLLCON = ((USB_NDIV << SCU_PLL_USBPLLCON_NDIV_Pos) |
 657              	 .loc 1 684 0
 658 02f8 1B4B     	 ldr r3,.L33
 659 02fa 1C4A     	 ldr r2,.L33+4
 660 02fc 5A61     	 str r2,[r3,#20]
 685:../Startup/system_XMC4300.c ****                         (USB_PDIV << SCU_PLL_USBPLLCON_PDIV_Pos));
 686:../Startup/system_XMC4300.c **** 
 687:../Startup/system_XMC4300.c ****   /* Set OSCDISCDIS */
 688:../Startup/system_XMC4300.c ****   SCU_PLL->USBPLLCON |= SCU_PLL_USBPLLCON_OSCDISCDIS_Msk;
 661              	 .loc 1 688 0
 662 02fe 1A4A     	 ldr r2,.L33
 663 0300 194B     	 ldr r3,.L33
 664 0302 5B69     	 ldr r3,[r3,#20]
 665 0304 43F04003 	 orr r3,r3,#64
 666 0308 5361     	 str r3,[r2,#20]
 689:../Startup/system_XMC4300.c **** 
 690:../Startup/system_XMC4300.c ****   /* connect Oscillator to USB PLL */
 691:../Startup/system_XMC4300.c ****   SCU_PLL->USBPLLCON &= ~SCU_PLL_USBPLLCON_FINDIS_Msk;
 667              	 .loc 1 691 0
 668 030a 174A     	 ldr r2,.L33
 669 030c 164B     	 ldr r3,.L33
 670 030e 5B69     	 ldr r3,[r3,#20]
 671 0310 23F01003 	 bic r3,r3,#16
 672 0314 5361     	 str r3,[r2,#20]
 692:../Startup/system_XMC4300.c **** 
 693:../Startup/system_XMC4300.c ****   /* restart PLL Lock detection */
 694:../Startup/system_XMC4300.c ****   SCU_PLL->USBPLLCON |= SCU_PLL_USBPLLCON_RESLD_Msk;
 673              	 .loc 1 694 0
 674 0316 144A     	 ldr r2,.L33
 675 0318 134B     	 ldr r3,.L33
 676 031a 5B69     	 ldr r3,[r3,#20]
 677 031c 43F48023 	 orr r3,r3,#262144
 678 0320 5361     	 str r3,[r2,#20]
 695:../Startup/system_XMC4300.c **** 
 696:../Startup/system_XMC4300.c ****   while ((SCU_PLL->USBPLLSTAT & SCU_PLL_USBPLLSTAT_VCOLOCK_Msk) == 0U)
 679              	 .loc 1 696 0
 680 0322 00BF     	 nop
 681              	.L28:
 682              	 .loc 1 696 0 is_stmt 0 discriminator 1
 683 0324 104B     	 ldr r3,.L33
 684 0326 1B69     	 ldr r3,[r3,#16]
 685 0328 03F00403 	 and r3,r3,#4
 686 032c 002B     	 cmp r3,#0
 687 032e F9D0     	 beq .L28
 697:../Startup/system_XMC4300.c ****   {
 698:../Startup/system_XMC4300.c ****     /* wait for PLL Lock */
 699:../Startup/system_XMC4300.c ****   }
 700:../Startup/system_XMC4300.c **** 
 701:../Startup/system_XMC4300.c ****   /* Disable bypass- put PLL clock back */
 702:../Startup/system_XMC4300.c ****   SCU_PLL->USBPLLCON &= ~SCU_PLL_USBPLLCON_VCOBYP_Msk;
 688              	 .loc 1 702 0 is_stmt 1
 689 0330 0D4A     	 ldr r2,.L33
 690 0332 0D4B     	 ldr r3,.L33
 691 0334 5B69     	 ldr r3,[r3,#20]
 692 0336 23F00103 	 bic r3,r3,#1
 693 033a 5361     	 str r3,[r2,#20]
 703:../Startup/system_XMC4300.c ****   while ((SCU_PLL->USBPLLSTAT & SCU_PLL_USBPLLSTAT_VCOBYST_Msk) != 0U)
 694              	 .loc 1 703 0
 695 033c 00BF     	 nop
 696              	.L29:
 697              	 .loc 1 703 0 is_stmt 0 discriminator 1
 698 033e 0A4B     	 ldr r3,.L33
 699 0340 1B69     	 ldr r3,[r3,#16]
 700 0342 03F00103 	 and r3,r3,#1
 701 0346 002B     	 cmp r3,#0
 702 0348 F9D1     	 bne .L29
 704:../Startup/system_XMC4300.c ****   {
 705:../Startup/system_XMC4300.c ****     /* wait for normal mode */
 706:../Startup/system_XMC4300.c ****   }
 707:../Startup/system_XMC4300.c **** 
 708:../Startup/system_XMC4300.c ****   /* Reset OSCDISCDIS */
 709:../Startup/system_XMC4300.c ****   SCU_PLL->USBPLLCON &= ~SCU_PLL_USBPLLCON_OSCDISCDIS_Msk;
 703              	 .loc 1 709 0 is_stmt 1
 704 034a 074A     	 ldr r2,.L33
 705 034c 064B     	 ldr r3,.L33
 706 034e 5B69     	 ldr r3,[r3,#20]
 707 0350 23F04003 	 bic r3,r3,#64
 708 0354 5361     	 str r3,[r2,#20]
 710:../Startup/system_XMC4300.c **** 
 711:../Startup/system_XMC4300.c ****   SCU_TRAP->TRAPCLR = SCU_TRAP_TRAPCLR_UVCOLCKT_Msk;
 709              	 .loc 1 711 0
 710 0356 064B     	 ldr r3,.L33+8
 711 0358 0822     	 movs r2,#8
 712 035a DA60     	 str r2,[r3,#12]
 712:../Startup/system_XMC4300.c **** #endif
 713:../Startup/system_XMC4300.c **** 
 714:../Startup/system_XMC4300.c ****   /* Enable selected clocks */
 715:../Startup/system_XMC4300.c ****   SCU_CLK->CLKSET = __CLKSET;
 713              	 .loc 1 715 0
 714 035c 054B     	 ldr r3,.L33+12
 715 035e 0022     	 movs r2,#0
 716 0360 5A60     	 str r2,[r3,#4]
 716:../Startup/system_XMC4300.c **** 
 717:../Startup/system_XMC4300.c **** #if __EXTCLKPIN != 0
 718:../Startup/system_XMC4300.c **** #if __EXTCLKPIN == EXTCLK_PIN_P1_15
 719:../Startup/system_XMC4300.c ****   /* P1.15 */
 720:../Startup/system_XMC4300.c ****   PORT1->PDR1 &= ~PORT1_PDR1_PD15_Msk;
 721:../Startup/system_XMC4300.c ****   PORT1->IOCR12 = (PORT1->IOCR12 & ~PORT0_IOCR12_PC15_Msk) | (0x11U << PORT0_IOCR12_PC15_Pos);
 722:../Startup/system_XMC4300.c **** #else
 723:../Startup/system_XMC4300.c ****   /* P0.8 */
 724:../Startup/system_XMC4300.c ****   PORT0->HWSEL &= ~PORT0_HWSEL_HW8_Msk;
 725:../Startup/system_XMC4300.c ****   PORT0->PDR1 &= ~PORT0_PDR1_PD8_Msk;
 726:../Startup/system_XMC4300.c ****   PORT0->IOCR8 = (PORT0->IOCR8 & ~PORT0_IOCR8_PC8_Msk) | (0x11U << PORT0_IOCR8_PC8_Pos);
 727:../Startup/system_XMC4300.c **** #endif
 728:../Startup/system_XMC4300.c **** #endif  /* ENABLE_EXTCLK == 1  */
 729:../Startup/system_XMC4300.c **** 
 730:../Startup/system_XMC4300.c ****   SystemCoreClockUpdate();
 717              	 .loc 1 730 0
 718 0362 FFF7FEFF 	 bl SystemCoreClockUpdate
 731:../Startup/system_XMC4300.c **** }
 719              	 .loc 1 731 0
 720 0366 80BD     	 pop {r7,pc}
 721              	.L34:
 722              	 .align 2
 723              	.L33:
 724 0368 10470050 	 .word 1342195472
 725 036c 00630002 	 .word 33579776
 726 0370 60410050 	 .word 1342194016
 727 0374 00460050 	 .word 1342195200
 728              	 .cfi_endproc
 729              	.LFE136:
 731              	 .section .text.SystemCoreClockUpdate,"ax",%progbits
 732              	 .align 2
 733              	 .weak SystemCoreClockUpdate
 734              	 .thumb
 735              	 .thumb_func
 737              	SystemCoreClockUpdate:
 738              	.LFB137:
 732:../Startup/system_XMC4300.c **** 
 733:../Startup/system_XMC4300.c **** __WEAK void SystemCoreClockUpdate(void)
 734:../Startup/system_XMC4300.c **** {
 739              	 .loc 1 734 0
 740              	 .cfi_startproc
 741              	 
 742              	 
 743 0000 80B5     	 push {r7,lr}
 744              	.LCFI16:
 745              	 .cfi_def_cfa_offset 8
 746              	 .cfi_offset 7,-8
 747              	 .cfi_offset 14,-4
 748 0002 84B0     	 sub sp,sp,#16
 749              	.LCFI17:
 750              	 .cfi_def_cfa_offset 24
 751 0004 00AF     	 add r7,sp,#0
 752              	.LCFI18:
 753              	 .cfi_def_cfa_register 7
 735:../Startup/system_XMC4300.c ****   uint32_t pdiv;
 736:../Startup/system_XMC4300.c ****   uint32_t ndiv;
 737:../Startup/system_XMC4300.c ****   uint32_t kdiv;
 738:../Startup/system_XMC4300.c ****   uint32_t temp;
 739:../Startup/system_XMC4300.c **** 
 740:../Startup/system_XMC4300.c ****   if (SCU_CLK->SYSCLKCR & SCU_CLK_SYSCLKCR_SYSSEL_Msk)
 754              	 .loc 1 740 0
 755 0006 2F4B     	 ldr r3,.L42
 756 0008 DB68     	 ldr r3,[r3,#12]
 757 000a 03F48033 	 and r3,r3,#65536
 758 000e 002B     	 cmp r3,#0
 759 0010 3ED0     	 beq .L36
 741:../Startup/system_XMC4300.c ****   {
 742:../Startup/system_XMC4300.c ****     /* fPLL is clock source for fSYS */
 743:../Startup/system_XMC4300.c ****     if(SCU_PLL->PLLCON2 & SCU_PLL_PLLCON2_PINSEL_Msk)
 760              	 .loc 1 743 0
 761 0012 2D4B     	 ldr r3,.L42+4
 762 0014 DB68     	 ldr r3,[r3,#12]
 763 0016 03F00103 	 and r3,r3,#1
 764 001a 002B     	 cmp r3,#0
 765 001c 02D0     	 beq .L37
 744:../Startup/system_XMC4300.c ****     {
 745:../Startup/system_XMC4300.c ****       /* PLL input clock is the backup clock (fOFI) */
 746:../Startup/system_XMC4300.c ****       temp = OFI_FREQUENCY;
 766              	 .loc 1 746 0
 767 001e 2B4B     	 ldr r3,.L42+8
 768 0020 FB60     	 str r3,[r7,#12]
 769 0022 02E0     	 b .L38
 770              	.L37:
 747:../Startup/system_XMC4300.c ****     }
 748:../Startup/system_XMC4300.c ****     else
 749:../Startup/system_XMC4300.c ****     {
 750:../Startup/system_XMC4300.c ****       /* PLL input clock is the high performance osicllator (fOSCHP) */
 751:../Startup/system_XMC4300.c ****       temp = OSCHP_GetFrequency();
 771              	 .loc 1 751 0
 772 0024 FFF7FEFF 	 bl OSCHP_GetFrequency
 773 0028 F860     	 str r0,[r7,#12]
 774              	.L38:
 752:../Startup/system_XMC4300.c ****     }
 753:../Startup/system_XMC4300.c **** 
 754:../Startup/system_XMC4300.c ****     /* check if PLL is locked */
 755:../Startup/system_XMC4300.c ****     if (SCU_PLL->PLLSTAT & SCU_PLL_PLLSTAT_VCOLOCK_Msk)
 775              	 .loc 1 755 0
 776 002a 274B     	 ldr r3,.L42+4
 777 002c 1B68     	 ldr r3,[r3]
 778 002e 03F00403 	 and r3,r3,#4
 779 0032 002B     	 cmp r3,#0
 780 0034 20D0     	 beq .L39
 756:../Startup/system_XMC4300.c ****     {
 757:../Startup/system_XMC4300.c ****       /* PLL normal mode */
 758:../Startup/system_XMC4300.c ****       /* read back divider settings */
 759:../Startup/system_XMC4300.c ****       pdiv = ((SCU_PLL->PLLCON1 & SCU_PLL_PLLCON1_PDIV_Msk) >> SCU_PLL_PLLCON1_PDIV_Pos) + 1;
 781              	 .loc 1 759 0
 782 0036 244B     	 ldr r3,.L42+4
 783 0038 9B68     	 ldr r3,[r3,#8]
 784 003a 03F07063 	 and r3,r3,#251658240
 785 003e 1B0E     	 lsrs r3,r3,#24
 786 0040 0133     	 adds r3,r3,#1
 787 0042 BB60     	 str r3,[r7,#8]
 760:../Startup/system_XMC4300.c ****       ndiv = ((SCU_PLL->PLLCON1 & SCU_PLL_PLLCON1_NDIV_Msk) >> SCU_PLL_PLLCON1_NDIV_Pos) + 1;
 788              	 .loc 1 760 0
 789 0044 204B     	 ldr r3,.L42+4
 790 0046 9B68     	 ldr r3,[r3,#8]
 791 0048 03F4FE43 	 and r3,r3,#32512
 792 004c 1B0A     	 lsrs r3,r3,#8
 793 004e 0133     	 adds r3,r3,#1
 794 0050 7B60     	 str r3,[r7,#4]
 761:../Startup/system_XMC4300.c ****       kdiv = ((SCU_PLL->PLLCON1 & SCU_PLL_PLLCON1_K2DIV_Msk) >> SCU_PLL_PLLCON1_K2DIV_Pos) + 1;
 795              	 .loc 1 761 0
 796 0052 1D4B     	 ldr r3,.L42+4
 797 0054 9B68     	 ldr r3,[r3,#8]
 798 0056 03F4FE03 	 and r3,r3,#8323072
 799 005a 1B0C     	 lsrs r3,r3,#16
 800 005c 0133     	 adds r3,r3,#1
 801 005e 3B60     	 str r3,[r7]
 762:../Startup/system_XMC4300.c **** 
 763:../Startup/system_XMC4300.c ****       temp = (temp / (pdiv * kdiv)) * ndiv;
 802              	 .loc 1 763 0
 803 0060 BB68     	 ldr r3,[r7,#8]
 804 0062 3A68     	 ldr r2,[r7]
 805 0064 02FB03F3 	 mul r3,r2,r3
 806 0068 FA68     	 ldr r2,[r7,#12]
 807 006a B2FBF3F3 	 udiv r3,r2,r3
 808 006e 7A68     	 ldr r2,[r7,#4]
 809 0070 02FB03F3 	 mul r3,r2,r3
 810 0074 FB60     	 str r3,[r7,#12]
 811 0076 0DE0     	 b .L41
 812              	.L39:
 764:../Startup/system_XMC4300.c ****     }
 765:../Startup/system_XMC4300.c ****     else
 766:../Startup/system_XMC4300.c ****     {
 767:../Startup/system_XMC4300.c ****       /* PLL prescalar mode */
 768:../Startup/system_XMC4300.c ****       /* read back divider settings */
 769:../Startup/system_XMC4300.c ****       kdiv  = ((SCU_PLL->PLLCON1 & SCU_PLL_PLLCON1_K1DIV_Msk) >> SCU_PLL_PLLCON1_K1DIV_Pos) + 1;
 813              	 .loc 1 769 0
 814 0078 134B     	 ldr r3,.L42+4
 815 007a 9B68     	 ldr r3,[r3,#8]
 816 007c 03F07F03 	 and r3,r3,#127
 817 0080 0133     	 adds r3,r3,#1
 818 0082 3B60     	 str r3,[r7]
 770:../Startup/system_XMC4300.c **** 
 771:../Startup/system_XMC4300.c ****       temp = (temp / kdiv);
 819              	 .loc 1 771 0
 820 0084 FA68     	 ldr r2,[r7,#12]
 821 0086 3B68     	 ldr r3,[r7]
 822 0088 B2FBF3F3 	 udiv r3,r2,r3
 823 008c FB60     	 str r3,[r7,#12]
 824 008e 01E0     	 b .L41
 825              	.L36:
 772:../Startup/system_XMC4300.c ****     }
 773:../Startup/system_XMC4300.c ****   }
 774:../Startup/system_XMC4300.c ****   else
 775:../Startup/system_XMC4300.c ****   {
 776:../Startup/system_XMC4300.c ****     /* fOFI is clock source for fSYS */
 777:../Startup/system_XMC4300.c ****     temp = OFI_FREQUENCY;
 826              	 .loc 1 777 0
 827 0090 0E4B     	 ldr r3,.L42+8
 828 0092 FB60     	 str r3,[r7,#12]
 829              	.L41:
 778:../Startup/system_XMC4300.c ****   }
 779:../Startup/system_XMC4300.c **** 
 780:../Startup/system_XMC4300.c ****   temp = temp / ((SCU_CLK->SYSCLKCR & SCU_CLK_SYSCLKCR_SYSDIV_Msk) + 1);
 830              	 .loc 1 780 0
 831 0094 0B4B     	 ldr r3,.L42
 832 0096 DB68     	 ldr r3,[r3,#12]
 833 0098 DBB2     	 uxtb r3,r3
 834 009a 0133     	 adds r3,r3,#1
 835 009c FA68     	 ldr r2,[r7,#12]
 836 009e B2FBF3F3 	 udiv r3,r2,r3
 837 00a2 FB60     	 str r3,[r7,#12]
 781:../Startup/system_XMC4300.c ****   temp = temp / ((SCU_CLK->CPUCLKCR & SCU_CLK_CPUCLKCR_CPUDIV_Msk) + 1);
 838              	 .loc 1 781 0
 839 00a4 074B     	 ldr r3,.L42
 840 00a6 1B69     	 ldr r3,[r3,#16]
 841 00a8 03F00103 	 and r3,r3,#1
 842 00ac 0133     	 adds r3,r3,#1
 843 00ae FA68     	 ldr r2,[r7,#12]
 844 00b0 B2FBF3F3 	 udiv r3,r2,r3
 845 00b4 FB60     	 str r3,[r7,#12]
 782:../Startup/system_XMC4300.c **** 
 783:../Startup/system_XMC4300.c ****   SystemCoreClock = temp;
 846              	 .loc 1 783 0
 847 00b6 064A     	 ldr r2,.L42+12
 848 00b8 FB68     	 ldr r3,[r7,#12]
 849 00ba 1360     	 str r3,[r2]
 784:../Startup/system_XMC4300.c **** }
 850              	 .loc 1 784 0
 851 00bc 1037     	 adds r7,r7,#16
 852              	.LCFI19:
 853              	 .cfi_def_cfa_offset 8
 854 00be BD46     	 mov sp,r7
 855              	.LCFI20:
 856              	 .cfi_def_cfa_register 13
 857              	 
 858 00c0 80BD     	 pop {r7,pc}
 859              	.L43:
 860 00c2 00BF     	 .align 2
 861              	.L42:
 862 00c4 00460050 	 .word 1342195200
 863 00c8 10470050 	 .word 1342195472
 864 00cc 00366E01 	 .word 24000000
 865 00d0 00000000 	 .word SystemCoreClock
 866              	 .cfi_endproc
 867              	.LFE137:
 869              	 .section .text.OSCHP_GetFrequency,"ax",%progbits
 870              	 .align 2
 871              	 .weak OSCHP_GetFrequency
 872              	 .thumb
 873              	 .thumb_func
 875              	OSCHP_GetFrequency:
 876              	.LFB138:
 785:../Startup/system_XMC4300.c **** 
 786:../Startup/system_XMC4300.c **** __WEAK uint32_t OSCHP_GetFrequency(void)
 787:../Startup/system_XMC4300.c **** {
 877              	 .loc 1 787 0
 878              	 .cfi_startproc
 879              	 
 880              	 
 881              	 
 882 0000 80B4     	 push {r7}
 883              	.LCFI21:
 884              	 .cfi_def_cfa_offset 4
 885              	 .cfi_offset 7,-4
 886 0002 00AF     	 add r7,sp,#0
 887              	.LCFI22:
 888              	 .cfi_def_cfa_register 7
 788:../Startup/system_XMC4300.c ****   return OSCHP_FREQUENCY;
 889              	 .loc 1 788 0
 890 0004 024B     	 ldr r3,.L46
 789:../Startup/system_XMC4300.c **** }
 891              	 .loc 1 789 0
 892 0006 1846     	 mov r0,r3
 893 0008 BD46     	 mov sp,r7
 894              	.LCFI23:
 895              	 .cfi_def_cfa_register 13
 896              	 
 897 000a 5DF8047B 	 ldr r7,[sp],#4
 898              	.LCFI24:
 899              	 .cfi_restore 7
 900              	 .cfi_def_cfa_offset 0
 901 000e 7047     	 bx lr
 902              	.L47:
 903              	 .align 2
 904              	.L46:
 905 0010 001BB700 	 .word 12000000
 906              	 .cfi_endproc
 907              	.LFE138:
 909              	 .text
 910              	.Letext0:
 911              	 .file 3 "d:\\infineon\\tools\\dave ide\\4.5.0.202105191637\\eclipse\\arm-gcc-49\\arm-none-eabi\\include\\machine\\_default_types.h"
 912              	 .file 4 "d:\\infineon\\tools\\dave ide\\4.5.0.202105191637\\eclipse\\arm-gcc-49\\arm-none-eabi\\include\\stdint.h"
 913              	 .file 5 "D:/Infineon/Tools/DAVE IDE/4.5.0.202105191637/eclipse/workspace/LED_test/Libraries/CMSIS/Include/core_cm4.h"
 914              	 .file 6 "D:/Infineon/Tools/DAVE IDE/4.5.0.202105191637/eclipse/workspace/LED_test/Libraries/CMSIS/Infineon/XMC4300_series/Include/XMC4300.h"